SF:/Users/steve/repos/DSC/dsc-bicep-ext/src/main.rs
FN:464,_RNCNCNvCsicGsL62uhEY_13dsc_bicep_ext10run_server00B5_
FN:492,_RNCNCNvCsicGsL62uhEY_13dsc_bicep_ext4main00B5_
FN:519,_RNCNCNvCsicGsL62uhEY_13dsc_bicep_ext4main0s0_0B5_
FN:511,_RNCNCNvCsicGsL62uhEY_13dsc_bicep_ext4main0s_0B5_
FN:59,_RNCNCNvXs0_CsicGsL62uhEY_13dsc_bicep_extNtB9_21BicepExtensionServiceNtNtNtB9_5proto22bicep_extension_server14BicepExtension16create_or_update00B9_
FN:63,_RNCNCNvXs0_CsicGsL62uhEY_13dsc_bicep_extNtB9_21BicepExtensionServiceNtNtNtB9_5proto22bicep_extension_server14BicepExtension16create_or_update0s0_0B9_
FN:81,_RNCNCNvXs0_CsicGsL62uhEY_13dsc_bicep_extNtB9_21BicepExtensionServiceNtNtNtB9_5proto22bicep_extension_server14BicepExtension16create_or_update0s1_0B9_
FN:61,_RNCNCNvXs0_CsicGsL62uhEY_13dsc_bicep_extNtB9_21BicepExtensionServiceNtNtNtB9_5proto22bicep_extension_server14BicepExtension16create_or_update0s_0B9_
FN:183,_RNCNCNvXs0_CsicGsL62uhEY_13dsc_bicep_extNtB9_21BicepExtensionServiceNtNtNtB9_5proto22bicep_extension_server14BicepExtension3get00B9_
FN:187,_RNCNCNvXs0_CsicGsL62uhEY_13dsc_bicep_extNtB9_21BicepExtensionServiceNtNtNtB9_5proto22bicep_extension_server14BicepExtension3get0s0_0B9_
FN:205,_RNCNCNvXs0_CsicGsL62uhEY_13dsc_bicep_extNtB9_21BicepExtensionServiceNtNtNtB9_5proto22bicep_extension_server14BicepExtension3get0s1_0B9_
FN:185,_RNCNCNvXs0_CsicGsL62uhEY_13dsc_bicep_extNtB9_21BicepExtensionServiceNtNtNtB9_5proto22bicep_extension_server14BicepExtension3get0s_0B9_
FN:245,_RNCNCNvXs0_CsicGsL62uhEY_13dsc_bicep_extNtB9_21BicepExtensionServiceNtNtNtB9_5proto22bicep_extension_server14BicepExtension6delete00B9_
FN:249,_RNCNCNvXs0_CsicGsL62uhEY_13dsc_bicep_extNtB9_21BicepExtensionServiceNtNtNtB9_5proto22bicep_extension_server14BicepExtension6delete0s0_0B9_
FN:267,_RNCNCNvXs0_CsicGsL62uhEY_13dsc_bicep_extNtB9_21BicepExtensionServiceNtNtNtB9_5proto22bicep_extension_server14BicepExtension6delete0s1_0B9_
FN:247,_RNCNCNvXs0_CsicGsL62uhEY_13dsc_bicep_extNtB9_21BicepExtensionServiceNtNtNtB9_5proto22bicep_extension_server14BicepExtension6delete0s_0B9_
FN:121,_RNCNCNvXs0_CsicGsL62uhEY_13dsc_bicep_extNtB9_21BicepExtensionServiceNtNtNtB9_5proto22bicep_extension_server14BicepExtension7preview00B9_
FN:125,_RNCNCNvXs0_CsicGsL62uhEY_13dsc_bicep_extNtB9_21BicepExtensionServiceNtNtNtB9_5proto22bicep_extension_server14BicepExtension7preview0s0_0B9_
FN:143,_RNCNCNvXs0_CsicGsL62uhEY_13dsc_bicep_extNtB9_21BicepExtensionServiceNtNtNtB9_5proto22bicep_extension_server14BicepExtension7preview0s1_0B9_
FN:123,_RNCNCNvXs0_CsicGsL62uhEY_13dsc_bicep_extNtB9_21BicepExtensionServiceNtNtNtB9_5proto22bicep_extension_server14BicepExtension7preview0s_0B9_
FN:322,_RNCNvCsicGsL62uhEY_13dsc_bicep_ext10run_server0B3_
FN:489,_RNCNvCsicGsL62uhEY_13dsc_bicep_ext4main0B3_
FN:318,_RNvCsicGsL62uhEY_13dsc_bicep_ext10run_server
FN:489,_RNvCsicGsL62uhEY_13dsc_bicep_ext4main
FN:284,_RNvXs0_CsicGsL62uhEY_13dsc_bicep_extNtB5_21BicepExtensionServiceNtNtNtB5_5proto22bicep_extension_server14BicepExtension14get_type_files
FN:41,_RNvXs0_CsicGsL62uhEY_13dsc_bicep_extNtB5_21BicepExtensionServiceNtNtNtB5_5proto22bicep_extension_server14BicepExtension16create_or_update
FN:165,_RNvXs0_CsicGsL62uhEY_13dsc_bicep_extNtB5_21BicepExtensionServiceNtNtNtB5_5proto22bicep_extension_server14BicepExtension3get
FN:291,_RNvXs0_CsicGsL62uhEY_13dsc_bicep_extNtB5_21BicepExtensionServiceNtNtNtB5_5proto22bicep_extension_server14BicepExtension4ping
FN:227,_RNvXs0_CsicGsL62uhEY_13dsc_bicep_extNtB5_21BicepExtensionServiceNtNtNtB5_5proto22bicep_extension_server14BicepExtension6delete
FN:103,_RNvXs0_CsicGsL62uhEY_13dsc_bicep_extNtB5_21BicepExtensionServiceNtNtNtB5_5proto22bicep_extension_server14BicepExtension7preview
FN:464,_RNCNCNvCs8S1CMC40miZ_13dsc_bicep_ext10run_server00B5_
FN:492,_RNCNCNvCs8S1CMC40miZ_13dsc_bicep_ext4main00B5_
FN:519,_RNCNCNvCs8S1CMC40miZ_13dsc_bicep_ext4main0s0_0B5_
FN:511,_RNCNCNvCs8S1CMC40miZ_13dsc_bicep_ext4main0s_0B5_
FN:59,_RNCNCNvXs0_Cs8S1CMC40miZ_13dsc_bicep_extNtB9_21BicepExtensionServiceNtNtNtB9_5proto22bicep_extension_server14BicepExtension16create_or_update00B9_
FN:63,_RNCNCNvXs0_Cs8S1CMC40miZ_13dsc_bicep_extNtB9_21BicepExtensionServiceNtNtNtB9_5proto22bicep_extension_server14BicepExtension16create_or_update0s0_0B9_
FN:81,_RNCNCNvXs0_Cs8S1CMC40miZ_13dsc_bicep_extNtB9_21BicepExtensionServiceNtNtNtB9_5proto22bicep_extension_server14BicepExtension16create_or_update0s1_0B9_
FN:61,_RNCNCNvXs0_Cs8S1CMC40miZ_13dsc_bicep_extNtB9_21BicepExtensionServiceNtNtNtB9_5proto22bicep_extension_server14BicepExtension16create_or_update0s_0B9_
FN:183,_RNCNCNvXs0_Cs8S1CMC40miZ_13dsc_bicep_extNtB9_21BicepExtensionServiceNtNtNtB9_5proto22bicep_extension_server14BicepExtension3get00B9_
FN:187,_RNCNCNvXs0_Cs8S1CMC40miZ_13dsc_bicep_extNtB9_21BicepExtensionServiceNtNtNtB9_5proto22bicep_extension_server14BicepExtension3get0s0_0B9_
FN:205,_RNCNCNvXs0_Cs8S1CMC40miZ_13dsc_bicep_extNtB9_21BicepExtensionServiceNtNtNtB9_5proto22bicep_extension_server14BicepExtension3get0s1_0B9_
FN:185,_RNCNCNvXs0_Cs8S1CMC40miZ_13dsc_bicep_extNtB9_21BicepExtensionServiceNtNtNtB9_5proto22bicep_extension_server14BicepExtension3get0s_0B9_
FN:245,_RNCNCNvXs0_Cs8S1CMC40miZ_13dsc_bicep_extNtB9_21BicepExtensionServiceNtNtNtB9_5proto22bicep_extension_server14BicepExtension6delete00B9_
FN:249,_RNCNCNvXs0_Cs8S1CMC40miZ_13dsc_bicep_extNtB9_21BicepExtensionServiceNtNtNtB9_5proto22bicep_extension_server14BicepExtension6delete0s0_0B9_
FN:267,_RNCNCNvXs0_Cs8S1CMC40miZ_13dsc_bicep_extNtB9_21BicepExtensionServiceNtNtNtB9_5proto22bicep_extension_server14BicepExtension6delete0s1_0B9_
FN:247,_RNCNCNvXs0_Cs8S1CMC40miZ_13dsc_bicep_extNtB9_21BicepExtensionServiceNtNtNtB9_5proto22bicep_extension_server14BicepExtension6delete0s_0B9_
FN:121,_RNCNCNvXs0_Cs8S1CMC40miZ_13dsc_bicep_extNtB9_21BicepExtensionServiceNtNtNtB9_5proto22bicep_extension_server14BicepExtension7preview00B9_
FN:125,_RNCNCNvXs0_Cs8S1CMC40miZ_13dsc_bicep_extNtB9_21BicepExtensionServiceNtNtNtB9_5proto22bicep_extension_server14BicepExtension7preview0s0_0B9_
FN:143,_RNCNCNvXs0_Cs8S1CMC40miZ_13dsc_bicep_extNtB9_21BicepExtensionServiceNtNtNtB9_5proto22bicep_extension_server14BicepExtension7preview0s1_0B9_
FN:123,_RNCNCNvXs0_Cs8S1CMC40miZ_13dsc_bicep_extNtB9_21BicepExtensionServiceNtNtNtB9_5proto22bicep_extension_server14BicepExtension7preview0s_0B9_
FN:322,_RNCNvCs8S1CMC40miZ_13dsc_bicep_ext10run_server0B3_
FN:489,_RNCNvCs8S1CMC40miZ_13dsc_bicep_ext4main0B3_
FN:318,_RNvCs8S1CMC40miZ_13dsc_bicep_ext10run_server
FN:489,_RNvCs8S1CMC40miZ_13dsc_bicep_ext4main
FN:284,_RNvXs0_Cs8S1CMC40miZ_13dsc_bicep_extNtB5_21BicepExtensionServiceNtNtNtB5_5proto22bicep_extension_server14BicepExtension14get_type_files
FN:41,_RNvXs0_Cs8S1CMC40miZ_13dsc_bicep_extNtB5_21BicepExtensionServiceNtNtNtB5_5proto22bicep_extension_server14BicepExtension16create_or_update
FN:165,_RNvXs0_Cs8S1CMC40miZ_13dsc_bicep_extNtB5_21BicepExtensionServiceNtNtNtB5_5proto22bicep_extension_server14BicepExtension3get
FN:291,_RNvXs0_Cs8S1CMC40miZ_13dsc_bicep_extNtB5_21BicepExtensionServiceNtNtNtB5_5proto22bicep_extension_server14BicepExtension4ping
FN:227,_RNvXs0_Cs8S1CMC40miZ_13dsc_bicep_extNtB5_21BicepExtensionServiceNtNtNtB5_5proto22bicep_extension_server14BicepExtension6delete
FN:103,_RNvXs0_Cs8S1CMC40miZ_13dsc_bicep_extNtB5_21BicepExtensionServiceNtNtNtB5_5proto22bicep_extension_server14BicepExtension7preview
FN:464,_RNCNCNvCscLnuSfeWGc5_13dsc_bicep_ext10run_server00B5_
FN:492,_RNCNCNvCscLnuSfeWGc5_13dsc_bicep_ext4main00B5_
FN:519,_RNCNCNvCscLnuSfeWGc5_13dsc_bicep_ext4main0s0_0B5_
FN:511,_RNCNCNvCscLnuSfeWGc5_13dsc_bicep_ext4main0s_0B5_
FN:59,_RNCNCNvXs0_CscLnuSfeWGc5_13dsc_bicep_extNtB9_21BicepExtensionServiceNtNtNtB9_5proto22bicep_extension_server14BicepExtension16create_or_update00B9_
FN:63,_RNCNCNvXs0_CscLnuSfeWGc5_13dsc_bicep_extNtB9_21BicepExtensionServiceNtNtNtB9_5proto22bicep_extension_server14BicepExtension16create_or_update0s0_0B9_
FN:81,_RNCNCNvXs0_CscLnuSfeWGc5_13dsc_bicep_extNtB9_21BicepExtensionServiceNtNtNtB9_5proto22bicep_extension_server14BicepExtension16create_or_update0s1_0B9_
FN:61,_RNCNCNvXs0_CscLnuSfeWGc5_13dsc_bicep_extNtB9_21BicepExtensionServiceNtNtNtB9_5proto22bicep_extension_server14BicepExtension16create_or_update0s_0B9_
FN:183,_RNCNCNvXs0_CscLnuSfeWGc5_13dsc_bicep_extNtB9_21BicepExtensionServiceNtNtNtB9_5proto22bicep_extension_server14BicepExtension3get00B9_
FN:187,_RNCNCNvXs0_CscLnuSfeWGc5_13dsc_bicep_extNtB9_21BicepExtensionServiceNtNtNtB9_5proto22bicep_extension_server14BicepExtension3get0s0_0B9_
FN:205,_RNCNCNvXs0_CscLnuSfeWGc5_13dsc_bicep_extNtB9_21BicepExtensionServiceNtNtNtB9_5proto22bicep_extension_server14BicepExtension3get0s1_0B9_
FN:185,_RNCNCNvXs0_CscLnuSfeWGc5_13dsc_bicep_extNtB9_21BicepExtensionServiceNtNtNtB9_5proto22bicep_extension_server14BicepExtension3get0s_0B9_
FN:245,_RNCNCNvXs0_CscLnuSfeWGc5_13dsc_bicep_extNtB9_21BicepExtensionServiceNtNtNtB9_5proto22bicep_extension_server14BicepExtension6delete00B9_
FN:249,_RNCNCNvXs0_CscLnuSfeWGc5_13dsc_bicep_extNtB9_21BicepExtensionServiceNtNtNtB9_5proto22bicep_extension_server14BicepExtension6delete0s0_0B9_
FN:267,_RNCNCNvXs0_CscLnuSfeWGc5_13dsc_bicep_extNtB9_21BicepExtensionServiceNtNtNtB9_5proto22bicep_extension_server14BicepExtension6delete0s1_0B9_
FN:247,_RNCNCNvXs0_CscLnuSfeWGc5_13dsc_bicep_extNtB9_21BicepExtensionServiceNtNtNtB9_5proto22bicep_extension_server14BicepExtension6delete0s_0B9_
FN:121,_RNCNCNvXs0_CscLnuSfeWGc5_13dsc_bicep_extNtB9_21BicepExtensionServiceNtNtNtB9_5proto22bicep_extension_server14BicepExtension7preview00B9_
FN:125,_RNCNCNvXs0_CscLnuSfeWGc5_13dsc_bicep_extNtB9_21BicepExtensionServiceNtNtNtB9_5proto22bicep_extension_server14BicepExtension7preview0s0_0B9_
FN:143,_RNCNCNvXs0_CscLnuSfeWGc5_13dsc_bicep_extNtB9_21BicepExtensionServiceNtNtNtB9_5proto22bicep_extension_server14BicepExtension7preview0s1_0B9_
FN:123,_RNCNCNvXs0_CscLnuSfeWGc5_13dsc_bicep_extNtB9_21BicepExtensionServiceNtNtNtB9_5proto22bicep_extension_server14BicepExtension7preview0s_0B9_
FN:322,_RNCNvCscLnuSfeWGc5_13dsc_bicep_ext10run_server0B3_
FN:489,_RNCNvCscLnuSfeWGc5_13dsc_bicep_ext4main0B3_
FN:318,_RNvCscLnuSfeWGc5_13dsc_bicep_ext10run_server
FN:489,_RNvCscLnuSfeWGc5_13dsc_bicep_ext4main
FN:284,_RNvXs0_CscLnuSfeWGc5_13dsc_bicep_extNtB5_21BicepExtensionServiceNtNtNtB5_5proto22bicep_extension_server14BicepExtension14get_type_files
FN:41,_RNvXs0_CscLnuSfeWGc5_13dsc_bicep_extNtB5_21BicepExtensionServiceNtNtNtB5_5proto22bicep_extension_server14BicepExtension16create_or_update
FN:165,_RNvXs0_CscLnuSfeWGc5_13dsc_bicep_extNtB5_21BicepExtensionServiceNtNtNtB5_5proto22bicep_extension_server14BicepExtension3get
FN:291,_RNvXs0_CscLnuSfeWGc5_13dsc_bicep_extNtB5_21BicepExtensionServiceNtNtNtB5_5proto22bicep_extension_server14BicepExtension4ping
FN:227,_RNvXs0_CscLnuSfeWGc5_13dsc_bicep_extNtB5_21BicepExtensionServiceNtNtNtB5_5proto22bicep_extension_server14BicepExtension6delete
FN:103,_RNvXs0_CscLnuSfeWGc5_13dsc_bicep_extNtB5_21BicepExtensionServiceNtNtNtB5_5proto22bicep_extension_server14BicepExtension7preview
FNDA:0,_RNCNCNvCsicGsL62uhEY_13dsc_bicep_ext10run_server00B5_
FNDA:0,_RNCNCNvCsicGsL62uhEY_13dsc_bicep_ext4main00B5_
FNDA:0,_RNCNCNvCsicGsL62uhEY_13dsc_bicep_ext4main0s0_0B5_
FNDA:0,_RNCNCNvCsicGsL62uhEY_13dsc_bicep_ext4main0s_0B5_
FNDA:0,_RNCNCNvXs0_CsicGsL62uhEY_13dsc_bicep_extNtB9_21BicepExtensionServiceNtNtNtB9_5proto22bicep_extension_server14BicepExtension16create_or_update00B9_
FNDA:0,_RNCNCNvXs0_CsicGsL62uhEY_13dsc_bicep_extNtB9_21BicepExtensionServiceNtNtNtB9_5proto22bicep_extension_server14BicepExtension16create_or_update0s0_0B9_
FNDA:0,_RNCNCNvXs0_CsicGsL62uhEY_13dsc_bicep_extNtB9_21BicepExtensionServiceNtNtNtB9_5proto22bicep_extension_server14BicepExtension16create_or_update0s1_0B9_
FNDA:0,_RNCNCNvXs0_CsicGsL62uhEY_13dsc_bicep_extNtB9_21BicepExtensionServiceNtNtNtB9_5proto22bicep_extension_server14BicepExtension16create_or_update0s_0B9_
FNDA:0,_RNCNCNvXs0_CsicGsL62uhEY_13dsc_bicep_extNtB9_21BicepExtensionServiceNtNtNtB9_5proto22bicep_extension_server14BicepExtension3get00B9_
FNDA:0,_RNCNCNvXs0_CsicGsL62uhEY_13dsc_bicep_extNtB9_21BicepExtensionServiceNtNtNtB9_5proto22bicep_extension_server14BicepExtension3get0s0_0B9_
FNDA:0,_RNCNCNvXs0_CsicGsL62uhEY_13dsc_bicep_extNtB9_21BicepExtensionServiceNtNtNtB9_5proto22bicep_extension_server14BicepExtension3get0s1_0B9_
FNDA:0,_RNCNCNvXs0_CsicGsL62uhEY_13dsc_bicep_extNtB9_21BicepExtensionServiceNtNtNtB9_5proto22bicep_extension_server14BicepExtension3get0s_0B9_
FNDA:0,_RNCNCNvXs0_CsicGsL62uhEY_13dsc_bicep_extNtB9_21BicepExtensionServiceNtNtNtB9_5proto22bicep_extension_server14BicepExtension6delete00B9_
FNDA:0,_RNCNCNvXs0_CsicGsL62uhEY_13dsc_bicep_extNtB9_21BicepExtensionServiceNtNtNtB9_5proto22bicep_extension_server14BicepExtension6delete0s0_0B9_
FNDA:0,_RNCNCNvXs0_CsicGsL62uhEY_13dsc_bicep_extNtB9_21BicepExtensionServiceNtNtNtB9_5proto22bicep_extension_server14BicepExtension6delete0s1_0B9_
FNDA:0,_RNCNCNvXs0_CsicGsL62uhEY_13dsc_bicep_extNtB9_21BicepExtensionServiceNtNtNtB9_5proto22bicep_extension_server14BicepExtension6delete0s_0B9_
FNDA:0,_RNCNCNvXs0_CsicGsL62uhEY_13dsc_bicep_extNtB9_21BicepExtensionServiceNtNtNtB9_5proto22bicep_extension_server14BicepExtension7preview00B9_
FNDA:0,_RNCNCNvXs0_CsicGsL62uhEY_13dsc_bicep_extNtB9_21BicepExtensionServiceNtNtNtB9_5proto22bicep_extension_server14BicepExtension7preview0s0_0B9_
FNDA:0,_RNCNCNvXs0_CsicGsL62uhEY_13dsc_bicep_extNtB9_21BicepExtensionServiceNtNtNtB9_5proto22bicep_extension_server14BicepExtension7preview0s1_0B9_
FNDA:0,_RNCNCNvXs0_CsicGsL62uhEY_13dsc_bicep_extNtB9_21BicepExtensionServiceNtNtNtB9_5proto22bicep_extension_server14BicepExtension7preview0s_0B9_
FNDA:0,_RNCNvCsicGsL62uhEY_13dsc_bicep_ext10run_server0B3_
FNDA:0,_RNCNvCsicGsL62uhEY_13dsc_bicep_ext4main0B3_
FNDA:0,_RNvCsicGsL62uhEY_13dsc_bicep_ext10run_server
FNDA:0,_RNvCsicGsL62uhEY_13dsc_bicep_ext4main
FNDA:0,_RNvXs0_CsicGsL62uhEY_13dsc_bicep_extNtB5_21BicepExtensionServiceNtNtNtB5_5proto22bicep_extension_server14BicepExtension14get_type_files
FNDA:0,_RNvXs0_CsicGsL62uhEY_13dsc_bicep_extNtB5_21BicepExtensionServiceNtNtNtB5_5proto22bicep_extension_server14BicepExtension16create_or_update
FNDA:0,_RNvXs0_CsicGsL62uhEY_13dsc_bicep_extNtB5_21BicepExtensionServiceNtNtNtB5_5proto22bicep_extension_server14BicepExtension3get
FNDA:0,_RNvXs0_CsicGsL62uhEY_13dsc_bicep_extNtB5_21BicepExtensionServiceNtNtNtB5_5proto22bicep_extension_server14BicepExtension4ping
FNDA:0,_RNvXs0_CsicGsL62uhEY_13dsc_bicep_extNtB5_21BicepExtensionServiceNtNtNtB5_5proto22bicep_extension_server14BicepExtension6delete
FNDA:0,_RNvXs0_CsicGsL62uhEY_13dsc_bicep_extNtB5_21BicepExtensionServiceNtNtNtB5_5proto22bicep_extension_server14BicepExtension7preview
FNDA:0,_RNCNCNvCs8S1CMC40miZ_13dsc_bicep_ext10run_server00B5_
FNDA:0,_RNCNCNvCs8S1CMC40miZ_13dsc_bicep_ext4main00B5_
FNDA:0,_RNCNCNvCs8S1CMC40miZ_13dsc_bicep_ext4main0s0_0B5_
FNDA:0,_RNCNCNvCs8S1CMC40miZ_13dsc_bicep_ext4main0s_0B5_
FNDA:0,_RNCNCNvXs0_Cs8S1CMC40miZ_13dsc_bicep_extNtB9_21BicepExtensionServiceNtNtNtB9_5proto22bicep_extension_server14BicepExtension16create_or_update00B9_
FNDA:0,_RNCNCNvXs0_Cs8S1CMC40miZ_13dsc_bicep_extNtB9_21BicepExtensionServiceNtNtNtB9_5proto22bicep_extension_server14BicepExtension16create_or_update0s0_0B9_
FNDA:0,_RNCNCNvXs0_Cs8S1CMC40miZ_13dsc_bicep_extNtB9_21BicepExtensionServiceNtNtNtB9_5proto22bicep_extension_server14BicepExtension16create_or_update0s1_0B9_
FNDA:0,_RNCNCNvXs0_Cs8S1CMC40miZ_13dsc_bicep_extNtB9_21BicepExtensionServiceNtNtNtB9_5proto22bicep_extension_server14BicepExtension16create_or_update0s_0B9_
FNDA:0,_RNCNCNvXs0_Cs8S1CMC40miZ_13dsc_bicep_extNtB9_21BicepExtensionServiceNtNtNtB9_5proto22bicep_extension_server14BicepExtension3get00B9_
FNDA:0,_RNCNCNvXs0_Cs8S1CMC40miZ_13dsc_bicep_extNtB9_21BicepExtensionServiceNtNtNtB9_5proto22bicep_extension_server14BicepExtension3get0s0_0B9_
FNDA:0,_RNCNCNvXs0_Cs8S1CMC40miZ_13dsc_bicep_extNtB9_21BicepExtensionServiceNtNtNtB9_5proto22bicep_extension_server14BicepExtension3get0s1_0B9_
FNDA:0,_RNCNCNvXs0_Cs8S1CMC40miZ_13dsc_bicep_extNtB9_21BicepExtensionServiceNtNtNtB9_5proto22bicep_extension_server14BicepExtension3get0s_0B9_
FNDA:0,_RNCNCNvXs0_Cs8S1CMC40miZ_13dsc_bicep_extNtB9_21BicepExtensionServiceNtNtNtB9_5proto22bicep_extension_server14BicepExtension6delete00B9_
FNDA:0,_RNCNCNvXs0_Cs8S1CMC40miZ_13dsc_bicep_extNtB9_21BicepExtensionServiceNtNtNtB9_5proto22bicep_extension_server14BicepExtension6delete0s0_0B9_
FNDA:0,_RNCNCNvXs0_Cs8S1CMC40miZ_13dsc_bicep_extNtB9_21BicepExtensionServiceNtNtNtB9_5proto22bicep_extension_server14BicepExtension6delete0s1_0B9_
FNDA:0,_RNCNCNvXs0_Cs8S1CMC40miZ_13dsc_bicep_extNtB9_21BicepExtensionServiceNtNtNtB9_5proto22bicep_extension_server14BicepExtension6delete0s_0B9_
FNDA:0,_RNCNCNvXs0_Cs8S1CMC40miZ_13dsc_bicep_extNtB9_21BicepExtensionServiceNtNtNtB9_5proto22bicep_extension_server14BicepExtension7preview00B9_
FNDA:0,_RNCNCNvXs0_Cs8S1CMC40miZ_13dsc_bicep_extNtB9_21BicepExtensionServiceNtNtNtB9_5proto22bicep_extension_server14BicepExtension7preview0s0_0B9_
FNDA:0,_RNCNCNvXs0_Cs8S1CMC40miZ_13dsc_bicep_extNtB9_21BicepExtensionServiceNtNtNtB9_5proto22bicep_extension_server14BicepExtension7preview0s1_0B9_
FNDA:0,_RNCNCNvXs0_Cs8S1CMC40miZ_13dsc_bicep_extNtB9_21BicepExtensionServiceNtNtNtB9_5proto22bicep_extension_server14BicepExtension7preview0s_0B9_
FNDA:0,_RNCNvCs8S1CMC40miZ_13dsc_bicep_ext10run_server0B3_
FNDA:0,_RNCNvCs8S1CMC40miZ_13dsc_bicep_ext4main0B3_
FNDA:0,_RNvCs8S1CMC40miZ_13dsc_bicep_ext10run_server
FNDA:0,_RNvCs8S1CMC40miZ_13dsc_bicep_ext4main
FNDA:0,_RNvXs0_Cs8S1CMC40miZ_13dsc_bicep_extNtB5_21BicepExtensionServiceNtNtNtB5_5proto22bicep_extension_server14BicepExtension14get_type_files
FNDA:0,_RNvXs0_Cs8S1CMC40miZ_13dsc_bicep_extNtB5_21BicepExtensionServiceNtNtNtB5_5proto22bicep_extension_server14BicepExtension16create_or_update
FNDA:0,_RNvXs0_Cs8S1CMC40miZ_13dsc_bicep_extNtB5_21BicepExtensionServiceNtNtNtB5_5proto22bicep_extension_server14BicepExtension3get
FNDA:0,_RNvXs0_Cs8S1CMC40miZ_13dsc_bicep_extNtB5_21BicepExtensionServiceNtNtNtB5_5proto22bicep_extension_server14BicepExtension4ping
FNDA:0,_RNvXs0_Cs8S1CMC40miZ_13dsc_bicep_extNtB5_21BicepExtensionServiceNtNtNtB5_5proto22bicep_extension_server14BicepExtension6delete
FNDA:0,_RNvXs0_Cs8S1CMC40miZ_13dsc_bicep_extNtB5_21BicepExtensionServiceNtNtNtB5_5proto22bicep_extension_server14BicepExtension7preview
FNDA:0,_RNCNCNvCscLnuSfeWGc5_13dsc_bicep_ext10run_server00B5_
FNDA:0,_RNCNCNvCscLnuSfeWGc5_13dsc_bicep_ext4main00B5_
FNDA:0,_RNCNCNvCscLnuSfeWGc5_13dsc_bicep_ext4main0s0_0B5_
FNDA:0,_RNCNCNvCscLnuSfeWGc5_13dsc_bicep_ext4main0s_0B5_
FNDA:0,_RNCNCNvXs0_CscLnuSfeWGc5_13dsc_bicep_extNtB9_21BicepExtensionServiceNtNtNtB9_5proto22bicep_extension_server14BicepExtension16create_or_update00B9_
FNDA:0,_RNCNCNvXs0_CscLnuSfeWGc5_13dsc_bicep_extNtB9_21BicepExtensionServiceNtNtNtB9_5proto22bicep_extension_server14BicepExtension16create_or_update0s0_0B9_
FNDA:0,_RNCNCNvXs0_CscLnuSfeWGc5_13dsc_bicep_extNtB9_21BicepExtensionServiceNtNtNtB9_5proto22bicep_extension_server14BicepExtension16create_or_update0s1_0B9_
FNDA:0,_RNCNCNvXs0_CscLnuSfeWGc5_13dsc_bicep_extNtB9_21BicepExtensionServiceNtNtNtB9_5proto22bicep_extension_server14BicepExtension16create_or_update0s_0B9_
FNDA:0,_RNCNCNvXs0_CscLnuSfeWGc5_13dsc_bicep_extNtB9_21BicepExtensionServiceNtNtNtB9_5proto22bicep_extension_server14BicepExtension3get00B9_
FNDA:0,_RNCNCNvXs0_CscLnuSfeWGc5_13dsc_bicep_extNtB9_21BicepExtensionServiceNtNtNtB9_5proto22bicep_extension_server14BicepExtension3get0s0_0B9_
FNDA:0,_RNCNCNvXs0_CscLnuSfeWGc5_13dsc_bicep_extNtB9_21BicepExtensionServiceNtNtNtB9_5proto22bicep_extension_server14BicepExtension3get0s1_0B9_
FNDA:0,_RNCNCNvXs0_CscLnuSfeWGc5_13dsc_bicep_extNtB9_21BicepExtensionServiceNtNtNtB9_5proto22bicep_extension_server14BicepExtension3get0s_0B9_
FNDA:0,_RNCNCNvXs0_CscLnuSfeWGc5_13dsc_bicep_extNtB9_21BicepExtensionServiceNtNtNtB9_5proto22bicep_extension_server14BicepExtension6delete00B9_
FNDA:0,_RNCNCNvXs0_CscLnuSfeWGc5_13dsc_bicep_extNtB9_21BicepExtensionServiceNtNtNtB9_5proto22bicep_extension_server14BicepExtension6delete0s0_0B9_
FNDA:0,_RNCNCNvXs0_CscLnuSfeWGc5_13dsc_bicep_extNtB9_21BicepExtensionServiceNtNtNtB9_5proto22bicep_extension_server14BicepExtension6delete0s1_0B9_
FNDA:0,_RNCNCNvXs0_CscLnuSfeWGc5_13dsc_bicep_extNtB9_21BicepExtensionServiceNtNtNtB9_5proto22bicep_extension_server14BicepExtension6delete0s_0B9_
FNDA:0,_RNCNCNvXs0_CscLnuSfeWGc5_13dsc_bicep_extNtB9_21BicepExtensionServiceNtNtNtB9_5proto22bicep_extension_server14BicepExtension7preview00B9_
FNDA:0,_RNCNCNvXs0_CscLnuSfeWGc5_13dsc_bicep_extNtB9_21BicepExtensionServiceNtNtNtB9_5proto22bicep_extension_server14BicepExtension7preview0s0_0B9_
FNDA:0,_RNCNCNvXs0_CscLnuSfeWGc5_13dsc_bicep_extNtB9_21BicepExtensionServiceNtNtNtB9_5proto22bicep_extension_server14BicepExtension7preview0s1_0B9_
FNDA:0,_RNCNCNvXs0_CscLnuSfeWGc5_13dsc_bicep_extNtB9_21BicepExtensionServiceNtNtNtB9_5proto22bicep_extension_server14BicepExtension7preview0s_0B9_
FNDA:0,_RNCNvCscLnuSfeWGc5_13dsc_bicep_ext10run_server0B3_
FNDA:0,_RNCNvCscLnuSfeWGc5_13dsc_bicep_ext4main0B3_
FNDA:0,_RNvCscLnuSfeWGc5_13dsc_bicep_ext10run_server
FNDA:0,_RNvCscLnuSfeWGc5_13dsc_bicep_ext4main
FNDA:0,_RNvXs0_CscLnuSfeWGc5_13dsc_bicep_extNtB5_21BicepExtensionServiceNtNtNtB5_5proto22bicep_extension_server14BicepExtension14get_type_files
FNDA:0,_RNvXs0_CscLnuSfeWGc5_13dsc_bicep_extNtB5_21BicepExtensionServiceNtNtNtB5_5proto22bicep_extension_server14BicepExtension16create_or_update
FNDA:0,_RNvXs0_CscLnuSfeWGc5_13dsc_bicep_extNtB5_21BicepExtensionServiceNtNtNtB5_5proto22bicep_extension_server14BicepExtension3get
FNDA:0,_RNvXs0_CscLnuSfeWGc5_13dsc_bicep_extNtB5_21BicepExtensionServiceNtNtNtB5_5proto22bicep_extension_server14BicepExtension4ping
FNDA:0,_RNvXs0_CscLnuSfeWGc5_13dsc_bicep_extNtB5_21BicepExtensionServiceNtNtNtB5_5proto22bicep_extension_server14BicepExtension6delete
FNDA:0,_RNvXs0_CscLnuSfeWGc5_13dsc_bicep_extNtB5_21BicepExtensionServiceNtNtNtB5_5proto22bicep_extension_server14BicepExtension7preview
FNF:30
FNH:0
DA:41,0
DA:59,0
DA:61,0
DA:63,0
DA:81,0
DA:98,0
DA:103,0
DA:121,0
DA:123,0
DA:125,0
DA:143,0
DA:160,0
DA:165,0
DA:183,0
DA:185,0
DA:187,0
DA:205,0
DA:222,0
DA:227,0
DA:245,0
DA:247,0
DA:249,0
DA:267,0
DA:279,0
DA:284,0
DA:289,0
DA:291,0
DA:293,0
DA:318,0
DA:319,0
DA:320,0
DA:321,0
DA:322,0
DA:323,0
DA:326,0
DA:330,0
DA:332,0
DA:333,0
DA:340,0
DA:342,0
DA:343,0
DA:345,0
DA:346,0
DA:347,0
DA:348,0
DA:350,0
DA:351,0
DA:464,0
DA:465,0
DA:467,0
DA:468,0
DA:470,0
DA:474,0
DA:475,0
DA:476,0
DA:477,0
DA:479,0
DA:480,0
DA:481,0
DA:482,0
DA:483,0
DA:485,0
DA:486,0
DA:489,0
DA:490,0
DA:491,0
DA:492,0
DA:493,0
DA:494,0
DA:495,0
DA:496,0
DA:497,0
DA:498,0
DA:499,0
DA:500,0
DA:502,0
DA:503,0
DA:504,0
DA:505,0
DA:506,0
DA:508,0
DA:510,0
DA:511,0
DA:513,0
DA:514,0
DA:515,0
DA:516,0
DA:519,0
DA:520,0
DA:521,0
DA:523,0
DA:524,0
DA:525,0
DA:526,0
DA:527,0
DA:528,0
DA:529,0
DA:530,0
DA:531,0
DA:532,0
DA:533,0
DA:534,0
DA:535,0
BRF:0
BRH:0
LF:118
LH:0
end_of_record
SF:/Users/steve/repos/DSC/dsc/src/main.rs
FN:162,_RNCNCNvCskXQqlygXNEk_3dsc22terminate_subprocesses00B5_
FN:162,_RNCNvCskXQqlygXNEk_3dsc22terminate_subprocesses0B3_
FN:173,_RNvCskXQqlygXNEk_3dsc11check_debug
FN:140,_RNvCskXQqlygXNEk_3dsc13ctrlc_handler
FN:160,_RNvCskXQqlygXNEk_3dsc22terminate_subprocesses
FN:31,_RNvCskXQqlygXNEk_3dsc4main
FN:57,_RNvCskXQqlygXNEk_3dsc8dsc_main
FN:173,_RNvCsbnPvSRIC2WX_3dsc11check_debug
FN:140,_RNvCsbnPvSRIC2WX_3dsc13ctrlc_handler
FN:160,_RNvCsbnPvSRIC2WX_3dsc22terminate_subprocesses
FN:31,_RNvCsbnPvSRIC2WX_3dsc4main
FN:57,_RNvCsbnPvSRIC2WX_3dsc8dsc_main
FN:162,_RNCNCNvCsbnPvSRIC2WX_3dsc22terminate_subprocesses00B5_
FN:162,_RNCNvCsbnPvSRIC2WX_3dsc22terminate_subprocesses0B3_
FN:162,_RNCNCNvCs1X0yMICwGEd_3dsc22terminate_subprocesses00B5_
FN:162,_RNCNvCs1X0yMICwGEd_3dsc22terminate_subprocesses0B3_
FN:173,_RNvCs1X0yMICwGEd_3dsc11check_debug
FN:140,_RNvCs1X0yMICwGEd_3dsc13ctrlc_handler
FN:160,_RNvCs1X0yMICwGEd_3dsc22terminate_subprocesses
FN:31,_RNvCs1X0yMICwGEd_3dsc4main
FN:57,_RNvCs1X0yMICwGEd_3dsc8dsc_main
FNDA:0,_RNCNCNvCskXQqlygXNEk_3dsc22terminate_subprocesses00B5_
FNDA:0,_RNCNvCskXQqlygXNEk_3dsc22terminate_subprocesses0B3_
FNDA:0,_RNvCskXQqlygXNEk_3dsc11check_debug
FNDA:0,_RNvCskXQqlygXNEk_3dsc13ctrlc_handler
FNDA:0,_RNvCskXQqlygXNEk_3dsc22terminate_subprocesses
FNDA:0,_RNvCskXQqlygXNEk_3dsc4main
FNDA:0,_RNvCskXQqlygXNEk_3dsc8dsc_main
FNDA:1154,_RNvCsbnPvSRIC2WX_3dsc11check_debug
FNDA:0,_RNvCsbnPvSRIC2WX_3dsc13ctrlc_handler
FNDA:0,_RNvCsbnPvSRIC2WX_3dsc22terminate_subprocesses
FNDA:1154,_RNvCsbnPvSRIC2WX_3dsc4main
FNDA:1154,_RNvCsbnPvSRIC2WX_3dsc8dsc_main
FNDA:0,_RNCNCNvCsbnPvSRIC2WX_3dsc22terminate_subprocesses00B5_
FNDA:0,_RNCNvCsbnPvSRIC2WX_3dsc22terminate_subprocesses0B3_
FNDA:0,_RNCNCNvCs1X0yMICwGEd_3dsc22terminate_subprocesses00B5_
FNDA:0,_RNCNvCs1X0yMICwGEd_3dsc22terminate_subprocesses0B3_
FNDA:0,_RNvCs1X0yMICwGEd_3dsc11check_debug
FNDA:0,_RNvCs1X0yMICwGEd_3dsc13ctrlc_handler
FNDA:0,_RNvCs1X0yMICwGEd_3dsc22terminate_subprocesses
FNDA:0,_RNvCs1X0yMICwGEd_3dsc4main
FNDA:0,_RNvCs1X0yMICwGEd_3dsc8dsc_main
FNF:7
FNH:3
DA:31,1154
DA:52,1154
DA:53,1154
DA:54,1154
DA:55,1154
DA:57,1154
DA:59,1154
DA:64,1154
DA:65,0
DA:66,1154
DA:68,1154
DA:70,1154
DA:72,1154
DA:74,1154
DA:76,1154
DA:77,5
DA:78,5
DA:79,5
DA:80,5
DA:82,849
DA:83,849
DA:84,849
DA:85,822
DA:87,27
DA:90,849
DA:91,12
DA:92,12
DA:93,12
DA:94,10
DA:95,2
DA:96,2
DA:97,2
DA:101,15
DA:102,32
DA:103,790
DA:106,847
DA:108,8
DA:109,8
DA:110,8
DA:111,5
DA:112,5
DA:113,5
DA:115,1
DA:116,0
DA:117,0
DA:118,1
DA:119,1
DA:121,262
DA:122,262
DA:123,262
DA:124,24
DA:125,24
DA:126,24
DA:127,24
DA:128,0
DA:129,0
DA:130,0
DA:133,24
DA:137,1151
DA:140,0
DA:141,0
DA:144,0
DA:145,0
DA:146,0
DA:147,0
DA:148,0
DA:150,0
DA:151,0
DA:152,0
DA:153,0
DA:156,0
DA:157,0
DA:160,0
DA:161,0
DA:162,0
DA:163,0
DA:164,0
DA:166,0
DA:167,0
DA:168,0
DA:169,0
DA:170,0
DA:173,1154
DA:174,1154
DA:175,0
DA:177,0
DA:178,0
DA:179,0
DA:180,0
DA:181,0
DA:184,0
DA:186,0
DA:187,0
DA:188,0
DA:189,0
DA:191,1154
DA:192,1154
BRF:0
BRH:0
LF:99
LH:57
end_of_record
SF:/Users/steve/repos/DSC/dsc/src/resolve.rs
FN:156,_RNCNvNtCskXQqlygXNEk_3dsc7resolve14normalize_path0B5_
FN:58,_RNvNtCskXQqlygXNEk_3dsc7resolve12get_contents
FN:151,_RNvNtCskXQqlygXNEk_3dsc7resolve14normalize_path
FN:156,_RNCNvNtCsbnPvSRIC2WX_3dsc7resolve14normalize_path0B5_
FN:58,_RNvNtCsbnPvSRIC2WX_3dsc7resolve12get_contents
FN:151,_RNvNtCsbnPvSRIC2WX_3dsc7resolve14normalize_path
FN:156,_RNCNvNtCs1X0yMICwGEd_3dsc7resolve14normalize_path0B5_
FN:58,_RNvNtCs1X0yMICwGEd_3dsc7resolve12get_contents
FN:151,_RNvNtCs1X0yMICwGEd_3dsc7resolve14normalize_path
FNDA:0,_RNCNvNtCskXQqlygXNEk_3dsc7resolve14normalize_path0B5_
FNDA:0,_RNvNtCskXQqlygXNEk_3dsc7resolve12get_contents
FNDA:0,_RNvNtCskXQqlygXNEk_3dsc7resolve14normalize_path
FNDA:34,_RNCNvNtCsbnPvSRIC2WX_3dsc7resolve14normalize_path0B5_
FNDA:30,_RNvNtCsbnPvSRIC2WX_3dsc7resolve12get_contents
FNDA:34,_RNvNtCsbnPvSRIC2WX_3dsc7resolve14normalize_path
FNDA:0,_RNCNvNtCs1X0yMICwGEd_3dsc7resolve14normalize_path0B5_
FNDA:0,_RNvNtCs1X0yMICwGEd_3dsc7resolve12get_contents
FNDA:0,_RNvNtCs1X0yMICwGEd_3dsc7resolve14normalize_path
FNF:3
FNH:3
DA:58,30
DA:59,30
DA:62,30
DA:63,30
DA:64,0
DA:65,0
DA:69,30
DA:70,26
DA:71,26
DA:74,25
DA:75,25
DA:76,24
DA:77,24
DA:78,24
DA:79,0
DA:80,0
DA:84,1
DA:85,1
DA:89,24
DA:90,24
DA:91,0
DA:92,0
DA:96,24
DA:97,24
DA:98,0
DA:99,0
DA:103,4
DA:104,4
DA:105,4
DA:106,0
DA:107,0
DA:113,26
DA:114,8
DA:116,8
DA:117,7
DA:118,7
DA:119,6
DA:120,6
DA:121,6
DA:122,0
DA:123,0
DA:126,6
DA:128,1
DA:129,1
DA:133,2
DA:134,2
DA:135,2
DA:136,0
DA:137,0
DA:140,2
DA:143,18
DA:144,18
DA:148,26
DA:149,30
DA:151,34
DA:152,34
DA:153,14
DA:156,34
DA:157,2
DA:158,18
DA:161,18
DA:162,18
DA:163,0
DA:165,0
DA:166,0
DA:167,0
DA:168,0
DA:175,18
DA:177,34
BRF:0
BRH:0
LF:70
LH:51
end_of_record
SF:/Users/steve/repos/DSC/dsc/src/resource_command.rs
FN:25,_RNCNvNtCskXQqlygXNEk_3dsc16resource_command3gets_0B5_
FN:138,_RNCNvNtCskXQqlygXNEk_3dsc16resource_command3sets0_0B5_
FN:232,_RNCNvNtCskXQqlygXNEk_3dsc16resource_command4tests0_0B5_
FN:263,_RNCNvNtCskXQqlygXNEk_3dsc16resource_command6deletes_0B5_
FN:332,_RNCNvNtCskXQqlygXNEk_3dsc16resource_command6exports_0B5_
FN:303,_RNCNvNtCskXQqlygXNEk_3dsc16resource_command6schemas_0B5_
FN:76,_RNCNvNtCskXQqlygXNEk_3dsc16resource_command7get_alls_0B5_
FN:358,_RNvNtCskXQqlygXNEk_3dsc16resource_command12get_resource
FN:23,_RNvNtCskXQqlygXNEk_3dsc16resource_command3get
FN:131,_RNvNtCskXQqlygXNEk_3dsc16resource_command3set
FN:225,_RNvNtCskXQqlygXNEk_3dsc16resource_command4test
FN:261,_RNvNtCskXQqlygXNEk_3dsc16resource_command6delete
FN:330,_RNvNtCskXQqlygXNEk_3dsc16resource_command6export
FN:301,_RNvNtCskXQqlygXNEk_3dsc16resource_command6schema
FN:73,_RNvNtCskXQqlygXNEk_3dsc16resource_command7get_all
FN:25,_RNCNvNtCsbnPvSRIC2WX_3dsc16resource_command3gets_0B5_
FN:138,_RNCNvNtCsbnPvSRIC2WX_3dsc16resource_command3sets0_0B5_
FN:232,_RNCNvNtCsbnPvSRIC2WX_3dsc16resource_command4tests0_0B5_
FN:263,_RNCNvNtCsbnPvSRIC2WX_3dsc16resource_command6deletes_0B5_
FN:332,_RNCNvNtCsbnPvSRIC2WX_3dsc16resource_command6exports_0B5_
FN:303,_RNCNvNtCsbnPvSRIC2WX_3dsc16resource_command6schemas_0B5_
FN:76,_RNCNvNtCsbnPvSRIC2WX_3dsc16resource_command7get_alls_0B5_
FN:358,_RNvNtCsbnPvSRIC2WX_3dsc16resource_command12get_resource
FN:23,_RNvNtCsbnPvSRIC2WX_3dsc16resource_command3get
FN:131,_RNvNtCsbnPvSRIC2WX_3dsc16resource_command3set
FN:225,_RNvNtCsbnPvSRIC2WX_3dsc16resource_command4test
FN:261,_RNvNtCsbnPvSRIC2WX_3dsc16resource_command6delete
FN:330,_RNvNtCsbnPvSRIC2WX_3dsc16resource_command6export
FN:301,_RNvNtCsbnPvSRIC2WX_3dsc16resource_command6schema
FN:73,_RNvNtCsbnPvSRIC2WX_3dsc16resource_command7get_all
FN:25,_RNCNvNtCs1X0yMICwGEd_3dsc16resource_command3gets_0B5_
FN:138,_RNCNvNtCs1X0yMICwGEd_3dsc16resource_command3sets0_0B5_
FN:232,_RNCNvNtCs1X0yMICwGEd_3dsc16resource_command4tests0_0B5_
FN:263,_RNCNvNtCs1X0yMICwGEd_3dsc16resource_command6deletes_0B5_
FN:332,_RNCNvNtCs1X0yMICwGEd_3dsc16resource_command6exports_0B5_
FN:303,_RNCNvNtCs1X0yMICwGEd_3dsc16resource_command6schemas_0B5_
FN:76,_RNCNvNtCs1X0yMICwGEd_3dsc16resource_command7get_alls_0B5_
FN:358,_RNvNtCs1X0yMICwGEd_3dsc16resource_command12get_resource
FN:23,_RNvNtCs1X0yMICwGEd_3dsc16resource_command3get
FN:131,_RNvNtCs1X0yMICwGEd_3dsc16resource_command3set
FN:225,_RNvNtCs1X0yMICwGEd_3dsc16resource_command4test
FN:261,_RNvNtCs1X0yMICwGEd_3dsc16resource_command6delete
FN:330,_RNvNtCs1X0yMICwGEd_3dsc16resource_command6export
FN:301,_RNvNtCs1X0yMICwGEd_3dsc16resource_command6schema
FN:73,_RNvNtCs1X0yMICwGEd_3dsc16resource_command7get_all
FNDA:0,_RNCNvNtCskXQqlygXNEk_3dsc16resource_command3gets_0B5_
FNDA:0,_RNCNvNtCskXQqlygXNEk_3dsc16resource_command3sets0_0B5_
FNDA:0,_RNCNvNtCskXQqlygXNEk_3dsc16resource_command4tests0_0B5_
FNDA:0,_RNCNvNtCskXQqlygXNEk_3dsc16resource_command6deletes_0B5_
FNDA:0,_RNCNvNtCskXQqlygXNEk_3dsc16resource_command6exports_0B5_
FNDA:0,_RNCNvNtCskXQqlygXNEk_3dsc16resource_command6schemas_0B5_
FNDA:0,_RNCNvNtCskXQqlygXNEk_3dsc16resource_command7get_alls_0B5_
FNDA:0,_RNvNtCskXQqlygXNEk_3dsc16resource_command12get_resource
FNDA:0,_RNvNtCskXQqlygXNEk_3dsc16resource_command3get
FNDA:0,_RNvNtCskXQqlygXNEk_3dsc16resource_command3set
FNDA:0,_RNvNtCskXQqlygXNEk_3dsc16resource_command4test
FNDA:0,_RNvNtCskXQqlygXNEk_3dsc16resource_command6delete
FNDA:0,_RNvNtCskXQqlygXNEk_3dsc16resource_command6export
FNDA:0,_RNvNtCskXQqlygXNEk_3dsc16resource_command6schema
FNDA:0,_RNvNtCskXQqlygXNEk_3dsc16resource_command7get_all
FNDA:1,_RNCNvNtCsbnPvSRIC2WX_3dsc16resource_command3gets_0B5_
FNDA:0,_RNCNvNtCsbnPvSRIC2WX_3dsc16resource_command3sets0_0B5_
FNDA:0,_RNCNvNtCsbnPvSRIC2WX_3dsc16resource_command4tests0_0B5_
FNDA:0,_RNCNvNtCsbnPvSRIC2WX_3dsc16resource_command6deletes_0B5_
FNDA:0,_RNCNvNtCsbnPvSRIC2WX_3dsc16resource_command6exports_0B5_
FNDA:0,_RNCNvNtCsbnPvSRIC2WX_3dsc16resource_command6schemas_0B5_
FNDA:0,_RNCNvNtCsbnPvSRIC2WX_3dsc16resource_command7get_alls_0B5_
FNDA:189,_RNvNtCsbnPvSRIC2WX_3dsc16resource_command12get_resource
FNDA:63,_RNvNtCsbnPvSRIC2WX_3dsc16resource_command3get
FNDA:36,_RNvNtCsbnPvSRIC2WX_3dsc16resource_command3set
FNDA:41,_RNvNtCsbnPvSRIC2WX_3dsc16resource_command4test
FNDA:8,_RNvNtCsbnPvSRIC2WX_3dsc16resource_command6delete
FNDA:18,_RNvNtCsbnPvSRIC2WX_3dsc16resource_command6export
FNDA:6,_RNvNtCsbnPvSRIC2WX_3dsc16resource_command6schema
FNDA:4,_RNvNtCsbnPvSRIC2WX_3dsc16resource_command7get_all
FNDA:0,_RNCNvNtCs1X0yMICwGEd_3dsc16resource_command3gets_0B5_
FNDA:0,_RNCNvNtCs1X0yMICwGEd_3dsc16resource_command3sets0_0B5_
FNDA:0,_RNCNvNtCs1X0yMICwGEd_3dsc16resource_command4tests0_0B5_
FNDA:0,_RNCNvNtCs1X0yMICwGEd_3dsc16resource_command6deletes_0B5_
FNDA:0,_RNCNvNtCs1X0yMICwGEd_3dsc16resource_command6exports_0B5_
FNDA:0,_RNCNvNtCs1X0yMICwGEd_3dsc16resource_command6schemas_0B5_
FNDA:0,_RNCNvNtCs1X0yMICwGEd_3dsc16resource_command7get_alls_0B5_
FNDA:0,_RNvNtCs1X0yMICwGEd_3dsc16resource_command12get_resource
FNDA:0,_RNvNtCs1X0yMICwGEd_3dsc16resource_command3get
FNDA:0,_RNvNtCs1X0yMICwGEd_3dsc16resource_command3set
FNDA:0,_RNvNtCs1X0yMICwGEd_3dsc16resource_command4test
FNDA:0,_RNvNtCs1X0yMICwGEd_3dsc16resource_command6delete
FNDA:0,_RNvNtCs1X0yMICwGEd_3dsc16resource_command6export
FNDA:0,_RNvNtCs1X0yMICwGEd_3dsc16resource_command6schema
FNDA:0,_RNvNtCs1X0yMICwGEd_3dsc16resource_command7get_all
FNF:15
FNH:9
DA:23,63
DA:24,63
DA:25,7
DA:26,7
DA:29,56
DA:30,56
DA:31,1
DA:32,1
DA:33,55
DA:35,55
DA:36,44
DA:37,44
DA:38,44
DA:39,1
DA:40,1
DA:41,0
DA:42,0
DA:43,0
DA:46,1
DA:47,1
DA:48,43
DA:51,43
DA:52,43
DA:53,0
DA:54,0
DA:55,0
DA:58,43
DA:59,1
DA:60,1
DA:61,40
DA:62,1
DA:64,43
DA:66,11
DA:67,11
DA:68,11
DA:71,44
DA:73,4
DA:74,4
DA:75,4
DA:76,1
DA:77,1
DA:80,3
DA:81,3
DA:82,1
DA:83,1
DA:84,2
DA:86,2
DA:87,2
DA:88,0
DA:89,0
DA:90,0
DA:94,2
DA:95,1
DA:96,1
DA:97,0
DA:98,0
DA:99,0
DA:102,1
DA:103,1
DA:104,1
DA:106,1
DA:107,4
DA:109,4
DA:110,4
DA:111,4
DA:113,4
DA:114,4
DA:115,0
DA:116,0
DA:117,0
DA:120,4
DA:121,0
DA:122,0
DA:123,4
DA:124,0
DA:126,4
DA:127,4
DA:129,2
DA:131,36
DA:132,36
DA:133,1
DA:134,1
DA:135,35
DA:137,35
DA:138,1
DA:139,1
DA:142,34
DA:143,34
DA:144,1
DA:145,1
DA:146,33
DA:148,33
DA:150,33
DA:151,33
DA:152,33
DA:153,3
DA:155,30
DA:158,0
DA:161,33
DA:162,1
DA:164,1
DA:165,1
DA:166,0
DA:167,0
DA:168,0
DA:169,0
DA:173,1
DA:174,0
DA:175,0
DA:176,1
DA:178,1
DA:179,1
DA:180,0
DA:181,0
DA:182,0
DA:183,0
DA:187,1
DA:189,1
DA:190,1
DA:191,1
DA:192,1
DA:193,1
DA:195,1
DA:196,1
DA:197,0
DA:198,0
DA:199,0
DA:202,1
DA:203,1
DA:204,32
DA:206,32
DA:207,26
DA:209,26
DA:210,26
DA:211,0
DA:212,0
DA:213,0
DA:216,26
DA:218,6
DA:219,6
DA:220,6
DA:223,27
DA:225,41
DA:226,41
DA:227,1
DA:228,1
DA:229,40
DA:231,40
DA:232,1
DA:233,1
DA:236,39
DA:237,39
DA:238,1
DA:239,1
DA:240,38
DA:242,38
DA:243,35
DA:245,35
DA:246,35
DA:247,0
DA:248,0
DA:249,0
DA:252,35
DA:254,3
DA:255,3
DA:256,3
DA:259,35
DA:261,8
DA:262,8
DA:263,1
DA:264,1
DA:267,7
DA:268,7
DA:269,1
DA:270,1
DA:271,6
DA:273,6
DA:275,6
DA:276,5
DA:277,5
DA:278,3
DA:279,3
DA:280,1
DA:281,1
DA:282,1
DA:283,0
DA:284,0
DA:285,0
DA:290,1
DA:294,1
DA:295,1
DA:296,1
DA:299,5
DA:301,6
DA:302,6
DA:303,1
DA:304,1
DA:306,5
DA:307,0
DA:308,0
DA:309,5
DA:311,5
DA:312,5
DA:314,5
DA:315,5
DA:316,0
DA:317,0
DA:318,0
DA:321,5
DA:323,0
DA:324,0
DA:325,0
DA:328,5
DA:330,18
DA:331,18
DA:332,1
DA:333,1
DA:336,17
DA:337,1
DA:338,1
DA:339,16
DA:341,16
DA:342,16
DA:343,2
DA:344,2
DA:345,14
DA:347,14
DA:348,14
DA:349,0
DA:350,0
DA:351,0
DA:354,14
DA:355,14
DA:358,189
DA:360,189
DA:361,189
BRF:0
BRH:0
LF:243
LH:185
end_of_record
SF:/Users/steve/repos/DSC/dsc/src/server/invoke_dsc_config.rs
FN:77,_RNCNCNvMNtNtCskXQqlygXNEk_3dsc6server17invoke_dsc_configNtNtB8_10mcp_server9McpServer17invoke_dsc_config00Ba_
FN:202,_RNCNCNvMNtNtCskXQqlygXNEk_3dsc6server17invoke_dsc_configNtNtB8_10mcp_server9McpServer17invoke_dsc_config0s_0Ba_
FN:76,_RNCNvMNtNtCskXQqlygXNEk_3dsc6server17invoke_dsc_configNtNtB6_10mcp_server9McpServer17invoke_dsc_config0B8_
FN:77,_RNCNCNvMNtNtCsbnPvSRIC2WX_3dsc6server17invoke_dsc_configNtNtB8_10mcp_server9McpServer17invoke_dsc_config00Ba_
FN:202,_RNCNCNvMNtNtCsbnPvSRIC2WX_3dsc6server17invoke_dsc_configNtNtB8_10mcp_server9McpServer17invoke_dsc_config0s_0Ba_
FN:76,_RNCNvMNtNtCsbnPvSRIC2WX_3dsc6server17invoke_dsc_configNtNtB6_10mcp_server9McpServer17invoke_dsc_config0B8_
FN:77,_RNCNCNvMNtNtCs1X0yMICwGEd_3dsc6server17invoke_dsc_configNtNtB8_10mcp_server9McpServer17invoke_dsc_config00Ba_
FN:202,_RNCNCNvMNtNtCs1X0yMICwGEd_3dsc6server17invoke_dsc_configNtNtB8_10mcp_server9McpServer17invoke_dsc_config0s_0Ba_
FN:76,_RNCNvMNtNtCs1X0yMICwGEd_3dsc6server17invoke_dsc_configNtNtB6_10mcp_server9McpServer17invoke_dsc_config0B8_
FNDA:0,_RNCNCNvMNtNtCskXQqlygXNEk_3dsc6server17invoke_dsc_configNtNtB8_10mcp_server9McpServer17invoke_dsc_config00Ba_
FNDA:0,_RNCNCNvMNtNtCskXQqlygXNEk_3dsc6server17invoke_dsc_configNtNtB8_10mcp_server9McpServer17invoke_dsc_config0s_0Ba_
FNDA:0,_RNCNvMNtNtCskXQqlygXNEk_3dsc6server17invoke_dsc_configNtNtB6_10mcp_server9McpServer17invoke_dsc_config0B8_
FNDA:9,_RNCNCNvMNtNtCsbnPvSRIC2WX_3dsc6server17invoke_dsc_configNtNtB8_10mcp_server9McpServer17invoke_dsc_config00Ba_
FNDA:0,_RNCNCNvMNtNtCsbnPvSRIC2WX_3dsc6server17invoke_dsc_configNtNtB8_10mcp_server9McpServer17invoke_dsc_config0s_0Ba_
FNDA:9,_RNCNvMNtNtCsbnPvSRIC2WX_3dsc6server17invoke_dsc_configNtNtB6_10mcp_server9McpServer17invoke_dsc_config0B8_
FNDA:0,_RNCNCNvMNtNtCs1X0yMICwGEd_3dsc6server17invoke_dsc_configNtNtB8_10mcp_server9McpServer17invoke_dsc_config00Ba_
FNDA:0,_RNCNCNvMNtNtCs1X0yMICwGEd_3dsc6server17invoke_dsc_configNtNtB8_10mcp_server9McpServer17invoke_dsc_config0s_0Ba_
FNDA:0,_RNCNvMNtNtCs1X0yMICwGEd_3dsc6server17invoke_dsc_configNtNtB6_10mcp_server9McpServer17invoke_dsc_config0B8_
FNF:3
FNH:2
DA:76,9
DA:77,9
DA:78,9
DA:79,9
DA:80,9
DA:81,8
DA:82,1
DA:83,1
DA:84,1
DA:86,1
DA:88,1
DA:92,0
DA:93,0
DA:94,0
DA:96,0
DA:98,0
DA:102,0
DA:103,0
DA:104,0
DA:106,0
DA:108,0
DA:113,8
DA:114,8
DA:115,0
DA:116,0
DA:117,0
DA:118,0
DA:123,8
DA:124,8
DA:125,0
DA:128,8
DA:130,8
DA:131,3
DA:132,2
DA:133,2
DA:134,0
DA:135,0
DA:136,0
DA:138,0
DA:140,0
DA:144,1
DA:145,1
DA:146,1
DA:148,1
DA:150,1
DA:156,2
DA:157,2
DA:158,2
DA:160,5
DA:163,7
DA:164,0
DA:165,0
DA:166,0
DA:168,7
DA:170,7
DA:172,4
DA:173,4
DA:174,0
DA:176,4
DA:179,1
DA:180,1
DA:181,0
DA:183,1
DA:186,1
DA:187,1
DA:188,0
DA:190,1
DA:193,1
DA:194,1
DA:195,0
DA:197,1
DA:200,9
DA:201,9
DA:202,9
DA:204,7
BRF:0
BRH:0
LF:77
LH:49
end_of_record
SF:/Users/steve/repos/DSC/dsc/src/server/invoke_dsc_expression.rs
FN:45,_RNCNCNCNvMNtNtCskXQqlygXNEk_3dsc6server21invoke_dsc_expressionNtNtBa_10mcp_server9McpServer21invoke_dsc_expression000Bc_
FN:47,_RNCNCNCNvMNtNtCskXQqlygXNEk_3dsc6server21invoke_dsc_expressionNtNtBa_10mcp_server9McpServer21invoke_dsc_expression00s_0Bc_
FN:44,_RNCNCNvMNtNtCskXQqlygXNEk_3dsc6server21invoke_dsc_expressionNtNtB8_10mcp_server9McpServer21invoke_dsc_expression00Ba_
FN:49,_RNCNCNvMNtNtCskXQqlygXNEk_3dsc6server21invoke_dsc_expressionNtNtB8_10mcp_server9McpServer21invoke_dsc_expression0s_0Ba_
FN:43,_RNCNvMNtNtCskXQqlygXNEk_3dsc6server21invoke_dsc_expressionNtNtB6_10mcp_server9McpServer21invoke_dsc_expression0B8_
FN:45,_RNCNCNCNvMNtNtCsbnPvSRIC2WX_3dsc6server21invoke_dsc_expressionNtNtBa_10mcp_server9McpServer21invoke_dsc_expression000Bc_
FN:47,_RNCNCNCNvMNtNtCsbnPvSRIC2WX_3dsc6server21invoke_dsc_expressionNtNtBa_10mcp_server9McpServer21invoke_dsc_expression00s_0Bc_
FN:44,_RNCNCNvMNtNtCsbnPvSRIC2WX_3dsc6server21invoke_dsc_expressionNtNtB8_10mcp_server9McpServer21invoke_dsc_expression00Ba_
FN:49,_RNCNCNvMNtNtCsbnPvSRIC2WX_3dsc6server21invoke_dsc_expressionNtNtB8_10mcp_server9McpServer21invoke_dsc_expression0s_0Ba_
FN:43,_RNCNvMNtNtCsbnPvSRIC2WX_3dsc6server21invoke_dsc_expressionNtNtB6_10mcp_server9McpServer21invoke_dsc_expression0B8_
FN:45,_RNCNCNCNvMNtNtCs1X0yMICwGEd_3dsc6server21invoke_dsc_expressionNtNtBa_10mcp_server9McpServer21invoke_dsc_expression000Bc_
FN:47,_RNCNCNCNvMNtNtCs1X0yMICwGEd_3dsc6server21invoke_dsc_expressionNtNtBa_10mcp_server9McpServer21invoke_dsc_expression00s_0Bc_
FN:44,_RNCNCNvMNtNtCs1X0yMICwGEd_3dsc6server21invoke_dsc_expressionNtNtB8_10mcp_server9McpServer21invoke_dsc_expression00Ba_
FN:49,_RNCNCNvMNtNtCs1X0yMICwGEd_3dsc6server21invoke_dsc_expressionNtNtB8_10mcp_server9McpServer21invoke_dsc_expression0s_0Ba_
FN:43,_RNCNvMNtNtCs1X0yMICwGEd_3dsc6server21invoke_dsc_expressionNtNtB6_10mcp_server9McpServer21invoke_dsc_expression0B8_
FNDA:0,_RNCNCNCNvMNtNtCskXQqlygXNEk_3dsc6server21invoke_dsc_expressionNtNtBa_10mcp_server9McpServer21invoke_dsc_expression000Bc_
FNDA:0,_RNCNCNCNvMNtNtCskXQqlygXNEk_3dsc6server21invoke_dsc_expressionNtNtBa_10mcp_server9McpServer21invoke_dsc_expression00s_0Bc_
FNDA:0,_RNCNCNvMNtNtCskXQqlygXNEk_3dsc6server21invoke_dsc_expressionNtNtB8_10mcp_server9McpServer21invoke_dsc_expression00Ba_
FNDA:0,_RNCNCNvMNtNtCskXQqlygXNEk_3dsc6server21invoke_dsc_expressionNtNtB8_10mcp_server9McpServer21invoke_dsc_expression0s_0Ba_
FNDA:0,_RNCNvMNtNtCskXQqlygXNEk_3dsc6server21invoke_dsc_expressionNtNtB6_10mcp_server9McpServer21invoke_dsc_expression0B8_
FNDA:0,_RNCNCNCNvMNtNtCsbnPvSRIC2WX_3dsc6server21invoke_dsc_expressionNtNtBa_10mcp_server9McpServer21invoke_dsc_expression000Bc_
FNDA:1,_RNCNCNCNvMNtNtCsbnPvSRIC2WX_3dsc6server21invoke_dsc_expressionNtNtBa_10mcp_server9McpServer21invoke_dsc_expression00s_0Bc_
FNDA:9,_RNCNCNvMNtNtCsbnPvSRIC2WX_3dsc6server21invoke_dsc_expressionNtNtB8_10mcp_server9McpServer21invoke_dsc_expression00Ba_
FNDA:0,_RNCNCNvMNtNtCsbnPvSRIC2WX_3dsc6server21invoke_dsc_expressionNtNtB8_10mcp_server9McpServer21invoke_dsc_expression0s_0Ba_
FNDA:9,_RNCNvMNtNtCsbnPvSRIC2WX_3dsc6server21invoke_dsc_expressionNtNtB6_10mcp_server9McpServer21invoke_dsc_expression0B8_
FNDA:0,_RNCNCNCNvMNtNtCs1X0yMICwGEd_3dsc6server21invoke_dsc_expressionNtNtBa_10mcp_server9McpServer21invoke_dsc_expression000Bc_
FNDA:0,_RNCNCNCNvMNtNtCs1X0yMICwGEd_3dsc6server21invoke_dsc_expressionNtNtBa_10mcp_server9McpServer21invoke_dsc_expression00s_0Bc_
FNDA:0,_RNCNCNvMNtNtCs1X0yMICwGEd_3dsc6server21invoke_dsc_expressionNtNtB8_10mcp_server9McpServer21invoke_dsc_expression00Ba_
FNDA:0,_RNCNCNvMNtNtCs1X0yMICwGEd_3dsc6server21invoke_dsc_expressionNtNtB8_10mcp_server9McpServer21invoke_dsc_expression0s_0Ba_
FNDA:0,_RNCNvMNtNtCs1X0yMICwGEd_3dsc6server21invoke_dsc_expressionNtNtB6_10mcp_server9McpServer21invoke_dsc_expression0B8_
FNF:5
FNH:3
DA:43,9
DA:44,9
DA:45,9
DA:46,9
DA:47,9
DA:48,8
DA:49,9
DA:51,8
BRF:0
BRH:0
LF:13
LH:11
end_of_record
SF:/Users/steve/repos/DSC/dsc/src/server/invoke_dsc_function.rs
FN:51,_RNCNCNCNvMNtNtCskXQqlygXNEk_3dsc6server19invoke_dsc_functionNtNtBa_10mcp_server9McpServer19invoke_dsc_function000Bc_
FN:47,_RNCNCNvMNtNtCskXQqlygXNEk_3dsc6server19invoke_dsc_functionNtNtB8_10mcp_server9McpServer19invoke_dsc_function00Ba_
FN:53,_RNCNCNvMNtNtCskXQqlygXNEk_3dsc6server19invoke_dsc_functionNtNtB8_10mcp_server9McpServer19invoke_dsc_function0s_0Ba_
FN:46,_RNCNvMNtNtCskXQqlygXNEk_3dsc6server19invoke_dsc_functionNtNtB6_10mcp_server9McpServer19invoke_dsc_function0B8_
FN:51,_RNCNCNCNvMNtNtCsbnPvSRIC2WX_3dsc6server19invoke_dsc_functionNtNtBa_10mcp_server9McpServer19invoke_dsc_function000Bc_
FN:47,_RNCNCNvMNtNtCsbnPvSRIC2WX_3dsc6server19invoke_dsc_functionNtNtB8_10mcp_server9McpServer19invoke_dsc_function00Ba_
FN:53,_RNCNCNvMNtNtCsbnPvSRIC2WX_3dsc6server19invoke_dsc_functionNtNtB8_10mcp_server9McpServer19invoke_dsc_function0s_0Ba_
FN:46,_RNCNvMNtNtCsbnPvSRIC2WX_3dsc6server19invoke_dsc_functionNtNtB6_10mcp_server9McpServer19invoke_dsc_function0B8_
FN:51,_RNCNCNCNvMNtNtCs1X0yMICwGEd_3dsc6server19invoke_dsc_functionNtNtBa_10mcp_server9McpServer19invoke_dsc_function000Bc_
FN:47,_RNCNCNvMNtNtCs1X0yMICwGEd_3dsc6server19invoke_dsc_functionNtNtB8_10mcp_server9McpServer19invoke_dsc_function00Ba_
FN:53,_RNCNCNvMNtNtCs1X0yMICwGEd_3dsc6server19invoke_dsc_functionNtNtB8_10mcp_server9McpServer19invoke_dsc_function0s_0Ba_
FN:46,_RNCNvMNtNtCs1X0yMICwGEd_3dsc6server19invoke_dsc_functionNtNtB6_10mcp_server9McpServer19invoke_dsc_function0B8_
FNDA:0,_RNCNCNCNvMNtNtCskXQqlygXNEk_3dsc6server19invoke_dsc_functionNtNtBa_10mcp_server9McpServer19invoke_dsc_function000Bc_
FNDA:0,_RNCNCNvMNtNtCskXQqlygXNEk_3dsc6server19invoke_dsc_functionNtNtB8_10mcp_server9McpServer19invoke_dsc_function00Ba_
FNDA:0,_RNCNCNvMNtNtCskXQqlygXNEk_3dsc6server19invoke_dsc_functionNtNtB8_10mcp_server9McpServer19invoke_dsc_function0s_0Ba_
FNDA:0,_RNCNvMNtNtCskXQqlygXNEk_3dsc6server19invoke_dsc_functionNtNtB6_10mcp_server9McpServer19invoke_dsc_function0B8_
FNDA:2,_RNCNCNCNvMNtNtCsbnPvSRIC2WX_3dsc6server19invoke_dsc_functionNtNtBa_10mcp_server9McpServer19invoke_dsc_function000Bc_
FNDA:8,_RNCNCNvMNtNtCsbnPvSRIC2WX_3dsc6server19invoke_dsc_functionNtNtB8_10mcp_server9McpServer19invoke_dsc_function00Ba_
FNDA:0,_RNCNCNvMNtNtCsbnPvSRIC2WX_3dsc6server19invoke_dsc_functionNtNtB8_10mcp_server9McpServer19invoke_dsc_function0s_0Ba_
FNDA:8,_RNCNvMNtNtCsbnPvSRIC2WX_3dsc6server19invoke_dsc_functionNtNtB6_10mcp_server9McpServer19invoke_dsc_function0B8_
FNDA:0,_RNCNCNCNvMNtNtCs1X0yMICwGEd_3dsc6server19invoke_dsc_functionNtNtBa_10mcp_server9McpServer19invoke_dsc_function000Bc_
FNDA:0,_RNCNCNvMNtNtCs1X0yMICwGEd_3dsc6server19invoke_dsc_functionNtNtB8_10mcp_server9McpServer19invoke_dsc_function00Ba_
FNDA:0,_RNCNCNvMNtNtCs1X0yMICwGEd_3dsc6server19invoke_dsc_functionNtNtB8_10mcp_server9McpServer19invoke_dsc_function0s_0Ba_
FNDA:0,_RNCNvMNtNtCs1X0yMICwGEd_3dsc6server19invoke_dsc_functionNtNtB6_10mcp_server9McpServer19invoke_dsc_function0B8_
FNF:4
FNH:3
DA:46,8
DA:47,8
DA:49,8
DA:50,8
DA:51,8
DA:52,6
DA:53,8
DA:55,6
BRF:0
BRH:0
LF:12
LH:11
end_of_record
SF:/Users/steve/repos/DSC/dsc/src/server/invoke_dsc_resource.rs
FN:72,_RNCNCNvMNtNtCskXQqlygXNEk_3dsc6server19invoke_dsc_resourceNtNtB8_10mcp_server9McpServer19invoke_dsc_resource00Ba_
FN:113,_RNCNCNvMNtNtCskXQqlygXNEk_3dsc6server19invoke_dsc_resourceNtNtB8_10mcp_server9McpServer19invoke_dsc_resource0s_0Ba_
FN:71,_RNCNvMNtNtCskXQqlygXNEk_3dsc6server19invoke_dsc_resourceNtNtB6_10mcp_server9McpServer19invoke_dsc_resource0B8_
FN:72,_RNCNCNvMNtNtCsbnPvSRIC2WX_3dsc6server19invoke_dsc_resourceNtNtB8_10mcp_server9McpServer19invoke_dsc_resource00Ba_
FN:113,_RNCNCNvMNtNtCsbnPvSRIC2WX_3dsc6server19invoke_dsc_resourceNtNtB8_10mcp_server9McpServer19invoke_dsc_resource0s_0Ba_
FN:71,_RNCNvMNtNtCsbnPvSRIC2WX_3dsc6server19invoke_dsc_resourceNtNtB6_10mcp_server9McpServer19invoke_dsc_resource0B8_
FN:72,_RNCNCNvMNtNtCs1X0yMICwGEd_3dsc6server19invoke_dsc_resourceNtNtB8_10mcp_server9McpServer19invoke_dsc_resource00Ba_
FN:113,_RNCNCNvMNtNtCs1X0yMICwGEd_3dsc6server19invoke_dsc_resourceNtNtB8_10mcp_server9McpServer19invoke_dsc_resource0s_0Ba_
FN:71,_RNCNvMNtNtCs1X0yMICwGEd_3dsc6server19invoke_dsc_resourceNtNtB6_10mcp_server9McpServer19invoke_dsc_resource0B8_
FNDA:0,_RNCNCNvMNtNtCskXQqlygXNEk_3dsc6server19invoke_dsc_resourceNtNtB8_10mcp_server9McpServer19invoke_dsc_resource00Ba_
FNDA:0,_RNCNCNvMNtNtCskXQqlygXNEk_3dsc6server19invoke_dsc_resourceNtNtB8_10mcp_server9McpServer19invoke_dsc_resource0s_0Ba_
FNDA:0,_RNCNvMNtNtCskXQqlygXNEk_3dsc6server19invoke_dsc_resourceNtNtB6_10mcp_server9McpServer19invoke_dsc_resource0B8_
FNDA:5,_RNCNCNvMNtNtCsbnPvSRIC2WX_3dsc6server19invoke_dsc_resourceNtNtB8_10mcp_server9McpServer19invoke_dsc_resource00Ba_
FNDA:0,_RNCNCNvMNtNtCsbnPvSRIC2WX_3dsc6server19invoke_dsc_resourceNtNtB8_10mcp_server9McpServer19invoke_dsc_resource0s_0Ba_
FNDA:5,_RNCNvMNtNtCsbnPvSRIC2WX_3dsc6server19invoke_dsc_resourceNtNtB6_10mcp_server9McpServer19invoke_dsc_resource0B8_
FNDA:0,_RNCNCNvMNtNtCs1X0yMICwGEd_3dsc6server19invoke_dsc_resourceNtNtB8_10mcp_server9McpServer19invoke_dsc_resource00Ba_
FNDA:0,_RNCNCNvMNtNtCs1X0yMICwGEd_3dsc6server19invoke_dsc_resourceNtNtB8_10mcp_server9McpServer19invoke_dsc_resource0s_0Ba_
FNDA:0,_RNCNvMNtNtCs1X0yMICwGEd_3dsc6server19invoke_dsc_resourceNtNtB6_10mcp_server9McpServer19invoke_dsc_resource0B8_
FNF:3
FNH:2
DA:71,5
DA:72,5
DA:73,5
DA:74,5
DA:75,0
DA:77,5
DA:79,1
DA:80,1
DA:81,0
DA:83,1
DA:86,1
DA:87,1
DA:88,0
DA:90,1
DA:93,1
DA:94,1
DA:95,0
DA:97,1
DA:100,1
DA:101,1
DA:102,0
DA:106,1
DA:107,1
DA:108,0
DA:110,1
DA:113,5
DA:115,5
BRF:0
BRH:0
LF:30
LH:23
end_of_record
SF:/Users/steve/repos/DSC/dsc/src/server/list_dsc_functions.rs
FN:50,_RNCNCNCNvMNtNtCskXQqlygXNEk_3dsc6server18list_dsc_functionsNtNtBa_10mcp_server9McpServer18list_dsc_functions000Bc_
FN:54,_RNCNCNCNvMNtNtCskXQqlygXNEk_3dsc6server18list_dsc_functionsNtNtBa_10mcp_server9McpServer18list_dsc_functions00s_0Bc_
FN:38,_RNCNCNvMNtNtCskXQqlygXNEk_3dsc6server18list_dsc_functionsNtNtB8_10mcp_server9McpServer18list_dsc_functions00Ba_
FN:58,_RNCNCNvMNtNtCskXQqlygXNEk_3dsc6server18list_dsc_functionsNtNtB8_10mcp_server9McpServer18list_dsc_functions0s_0Ba_
FN:37,_RNCNvMNtNtCskXQqlygXNEk_3dsc6server18list_dsc_functionsNtNtB6_10mcp_server9McpServer18list_dsc_functions0B8_
FN:50,_RNCNCNCNvMNtNtCsbnPvSRIC2WX_3dsc6server18list_dsc_functionsNtNtBa_10mcp_server9McpServer18list_dsc_functions000Bc_
FN:54,_RNCNCNCNvMNtNtCsbnPvSRIC2WX_3dsc6server18list_dsc_functionsNtNtBa_10mcp_server9McpServer18list_dsc_functions00s_0Bc_
FN:38,_RNCNCNvMNtNtCsbnPvSRIC2WX_3dsc6server18list_dsc_functionsNtNtB8_10mcp_server9McpServer18list_dsc_functions00Ba_
FN:58,_RNCNCNvMNtNtCsbnPvSRIC2WX_3dsc6server18list_dsc_functionsNtNtB8_10mcp_server9McpServer18list_dsc_functions0s_0Ba_
FN:37,_RNCNvMNtNtCsbnPvSRIC2WX_3dsc6server18list_dsc_functionsNtNtB6_10mcp_server9McpServer18list_dsc_functions0B8_
FN:50,_RNCNCNCNvMNtNtCs1X0yMICwGEd_3dsc6server18list_dsc_functionsNtNtBa_10mcp_server9McpServer18list_dsc_functions000Bc_
FN:54,_RNCNCNCNvMNtNtCs1X0yMICwGEd_3dsc6server18list_dsc_functionsNtNtBa_10mcp_server9McpServer18list_dsc_functions00s_0Bc_
FN:38,_RNCNCNvMNtNtCs1X0yMICwGEd_3dsc6server18list_dsc_functionsNtNtB8_10mcp_server9McpServer18list_dsc_functions00Ba_
FN:58,_RNCNCNvMNtNtCs1X0yMICwGEd_3dsc6server18list_dsc_functionsNtNtB8_10mcp_server9McpServer18list_dsc_functions0s_0Ba_
FN:37,_RNCNvMNtNtCs1X0yMICwGEd_3dsc6server18list_dsc_functionsNtNtB6_10mcp_server9McpServer18list_dsc_functions0B8_
FNDA:0,_RNCNCNCNvMNtNtCskXQqlygXNEk_3dsc6server18list_dsc_functionsNtNtBa_10mcp_server9McpServer18list_dsc_functions000Bc_
FNDA:0,_RNCNCNCNvMNtNtCskXQqlygXNEk_3dsc6server18list_dsc_functionsNtNtBa_10mcp_server9McpServer18list_dsc_functions00s_0Bc_
FNDA:0,_RNCNCNvMNtNtCskXQqlygXNEk_3dsc6server18list_dsc_functionsNtNtB8_10mcp_server9McpServer18list_dsc_functions00Ba_
FNDA:0,_RNCNCNvMNtNtCskXQqlygXNEk_3dsc6server18list_dsc_functionsNtNtB8_10mcp_server9McpServer18list_dsc_functions0s_0Ba_
FNDA:0,_RNCNvMNtNtCskXQqlygXNEk_3dsc6server18list_dsc_functionsNtNtB6_10mcp_server9McpServer18list_dsc_functions0B8_
FNDA:0,_RNCNCNCNvMNtNtCsbnPvSRIC2WX_3dsc6server18list_dsc_functionsNtNtBa_10mcp_server9McpServer18list_dsc_functions000Bc_
FNDA:249,_RNCNCNCNvMNtNtCsbnPvSRIC2WX_3dsc6server18list_dsc_functionsNtNtBa_10mcp_server9McpServer18list_dsc_functions00s_0Bc_
FNDA:4,_RNCNCNvMNtNtCsbnPvSRIC2WX_3dsc6server18list_dsc_functionsNtNtB8_10mcp_server9McpServer18list_dsc_functions00Ba_
FNDA:0,_RNCNCNvMNtNtCsbnPvSRIC2WX_3dsc6server18list_dsc_functionsNtNtB8_10mcp_server9McpServer18list_dsc_functions0s_0Ba_
FNDA:4,_RNCNvMNtNtCsbnPvSRIC2WX_3dsc6server18list_dsc_functionsNtNtB6_10mcp_server9McpServer18list_dsc_functions0B8_
FNDA:0,_RNCNCNCNvMNtNtCs1X0yMICwGEd_3dsc6server18list_dsc_functionsNtNtBa_10mcp_server9McpServer18list_dsc_functions000Bc_
FNDA:0,_RNCNCNCNvMNtNtCs1X0yMICwGEd_3dsc6server18list_dsc_functionsNtNtBa_10mcp_server9McpServer18list_dsc_functions00s_0Bc_
FNDA:0,_RNCNCNvMNtNtCs1X0yMICwGEd_3dsc6server18list_dsc_functionsNtNtB8_10mcp_server9McpServer18list_dsc_functions00Ba_
FNDA:0,_RNCNCNvMNtNtCs1X0yMICwGEd_3dsc6server18list_dsc_functionsNtNtB8_10mcp_server9McpServer18list_dsc_functions0s_0Ba_
FNDA:0,_RNCNvMNtNtCs1X0yMICwGEd_3dsc6server18list_dsc_functionsNtNtB6_10mcp_server9McpServer18list_dsc_functions0B8_
FNF:5
FNH:3
DA:37,4
DA:38,4
DA:39,4
DA:40,4
DA:43,4
DA:44,3
DA:45,3
DA:46,3
DA:48,3
DA:49,3
DA:50,0
DA:51,0
DA:52,0
DA:54,249
DA:55,1
DA:57,4
DA:58,4
DA:60,4
BRF:0
BRH:0
LF:22
LH:18
end_of_record
SF:/Users/steve/repos/DSC/dsc/src/server/list_dsc_resources.rs
FN:50,_RNCNCNvMNtNtCskXQqlygXNEk_3dsc6server18list_dsc_resourcesNtNtB8_10mcp_server9McpServer18list_dsc_resources00Ba_
FN:78,_RNCNCNvMNtNtCskXQqlygXNEk_3dsc6server18list_dsc_resourcesNtNtB8_10mcp_server9McpServer18list_dsc_resources0s_0Ba_
FN:49,_RNCNvMNtNtCskXQqlygXNEk_3dsc6server18list_dsc_resourcesNtNtB6_10mcp_server9McpServer18list_dsc_resources0B8_
FN:50,_RNCNCNvMNtNtCsbnPvSRIC2WX_3dsc6server18list_dsc_resourcesNtNtB8_10mcp_server9McpServer18list_dsc_resources00Ba_
FN:78,_RNCNCNvMNtNtCsbnPvSRIC2WX_3dsc6server18list_dsc_resourcesNtNtB8_10mcp_server9McpServer18list_dsc_resources0s_0Ba_
FN:49,_RNCNvMNtNtCsbnPvSRIC2WX_3dsc6server18list_dsc_resourcesNtNtB6_10mcp_server9McpServer18list_dsc_resources0B8_
FN:50,_RNCNCNvMNtNtCs1X0yMICwGEd_3dsc6server18list_dsc_resourcesNtNtB8_10mcp_server9McpServer18list_dsc_resources00Ba_
FN:78,_RNCNCNvMNtNtCs1X0yMICwGEd_3dsc6server18list_dsc_resourcesNtNtB8_10mcp_server9McpServer18list_dsc_resources0s_0Ba_
FN:49,_RNCNvMNtNtCs1X0yMICwGEd_3dsc6server18list_dsc_resourcesNtNtB6_10mcp_server9McpServer18list_dsc_resources0B8_
FNDA:0,_RNCNCNvMNtNtCskXQqlygXNEk_3dsc6server18list_dsc_resourcesNtNtB8_10mcp_server9McpServer18list_dsc_resources00Ba_
FNDA:0,_RNCNCNvMNtNtCskXQqlygXNEk_3dsc6server18list_dsc_resourcesNtNtB8_10mcp_server9McpServer18list_dsc_resources0s_0Ba_
FNDA:0,_RNCNvMNtNtCskXQqlygXNEk_3dsc6server18list_dsc_resourcesNtNtB6_10mcp_server9McpServer18list_dsc_resources0B8_
FNDA:4,_RNCNCNvMNtNtCsbnPvSRIC2WX_3dsc6server18list_dsc_resourcesNtNtB8_10mcp_server9McpServer18list_dsc_resources00Ba_
FNDA:0,_RNCNCNvMNtNtCsbnPvSRIC2WX_3dsc6server18list_dsc_resourcesNtNtB8_10mcp_server9McpServer18list_dsc_resources0s_0Ba_
FNDA:4,_RNCNvMNtNtCsbnPvSRIC2WX_3dsc6server18list_dsc_resourcesNtNtB6_10mcp_server9McpServer18list_dsc_resources0B8_
FNDA:0,_RNCNCNvMNtNtCs1X0yMICwGEd_3dsc6server18list_dsc_resourcesNtNtB8_10mcp_server9McpServer18list_dsc_resources00Ba_
FNDA:0,_RNCNCNvMNtNtCs1X0yMICwGEd_3dsc6server18list_dsc_resourcesNtNtB8_10mcp_server9McpServer18list_dsc_resources0s_0Ba_
FNDA:0,_RNCNvMNtNtCs1X0yMICwGEd_3dsc6server18list_dsc_resourcesNtNtB6_10mcp_server9McpServer18list_dsc_resources0B8_
FNF:3
FNH:2
DA:49,4
DA:50,4
DA:51,4
DA:52,4
DA:53,3
DA:54,3
DA:55,2
DA:56,1
DA:57,1
DA:58,1
DA:60,1
DA:63,1
DA:65,2
DA:66,64
DA:67,64
DA:68,64
DA:69,64
DA:70,64
DA:71,64
DA:72,64
DA:73,64
DA:74,64
DA:75,64
DA:77,2
DA:78,4
DA:80,2
BRF:0
BRH:0
LF:29
LH:28
end_of_record
SF:/Users/steve/repos/DSC/dsc/src/server/mcp_server.rs
FN:37,_RNvXs_NtNtCskXQqlygXNEk_3dsc6server10mcp_serverNtB4_9McpServerNtNtCsitGFVNq7Ifu_4core7default7Default7default
FN:21,_RNvMNtNtCskXQqlygXNEk_3dsc6server10mcp_serverNtB2_9McpServer3new
FN:54,_RNvXs2_NtNtCskXQqlygXNEk_3dsc6server10mcp_serverNtB5_9McpServerNtNtNtCs6KMYyKjEMvs_4rmcp7handler6server13ServerHandler10initialize
FN:44,_RNvXs2_NtNtCskXQqlygXNEk_3dsc6server10mcp_serverNtB5_9McpServerNtNtNtCs6KMYyKjEMvs_4rmcp7handler6server13ServerHandler8get_info
FN:54,_RNCNvXs2_NtNtCskXQqlygXNEk_3dsc6server10mcp_serverNtB7_9McpServerNtNtNtCs6KMYyKjEMvs_4rmcp7handler6server13ServerHandler10initialize0Bb_
FN:37,_RNvXs_NtNtCsbnPvSRIC2WX_3dsc6server10mcp_serverNtB4_9McpServerNtNtCsitGFVNq7Ifu_4core7default7Default7default
FN:54,_RNCNvXs2_NtNtCsbnPvSRIC2WX_3dsc6server10mcp_serverNtB7_9McpServerNtNtNtCs6KMYyKjEMvs_4rmcp7handler6server13ServerHandler10initialize0Bb_
FN:21,_RNvMNtNtCsbnPvSRIC2WX_3dsc6server10mcp_serverNtB2_9McpServer3new
FN:54,_RNvXs2_NtNtCsbnPvSRIC2WX_3dsc6server10mcp_serverNtB5_9McpServerNtNtNtCs6KMYyKjEMvs_4rmcp7handler6server13ServerHandler10initialize
FN:44,_RNvXs2_NtNtCsbnPvSRIC2WX_3dsc6server10mcp_serverNtB5_9McpServerNtNtNtCs6KMYyKjEMvs_4rmcp7handler6server13ServerHandler8get_info
FN:37,_RNvXs_NtNtCs1X0yMICwGEd_3dsc6server10mcp_serverNtB4_9McpServerNtNtCsitGFVNq7Ifu_4core7default7Default7default
FN:21,_RNvMNtNtCs1X0yMICwGEd_3dsc6server10mcp_serverNtB2_9McpServer3new
FN:54,_RNvXs2_NtNtCs1X0yMICwGEd_3dsc6server10mcp_serverNtB5_9McpServerNtNtNtCs37L6J2AubeB_4rmcp7handler6server13ServerHandler10initialize
FN:44,_RNvXs2_NtNtCs1X0yMICwGEd_3dsc6server10mcp_serverNtB5_9McpServerNtNtNtCs37L6J2AubeB_4rmcp7handler6server13ServerHandler8get_info
FN:54,_RNCNvXs2_NtNtCs1X0yMICwGEd_3dsc6server10mcp_serverNtB7_9McpServerNtNtNtCs37L6J2AubeB_4rmcp7handler6server13ServerHandler10initialize0Bb_
FNDA:0,_RNvXs_NtNtCskXQqlygXNEk_3dsc6server10mcp_serverNtB4_9McpServerNtNtCsitGFVNq7Ifu_4core7default7Default7default
FNDA:0,_RNvMNtNtCskXQqlygXNEk_3dsc6server10mcp_serverNtB2_9McpServer3new
FNDA:0,_RNvXs2_NtNtCskXQqlygXNEk_3dsc6server10mcp_serverNtB5_9McpServerNtNtNtCs6KMYyKjEMvs_4rmcp7handler6server13ServerHandler10initialize
FNDA:0,_RNvXs2_NtNtCskXQqlygXNEk_3dsc6server10mcp_serverNtB5_9McpServerNtNtNtCs6KMYyKjEMvs_4rmcp7handler6server13ServerHandler8get_info
FNDA:0,_RNCNvXs2_NtNtCskXQqlygXNEk_3dsc6server10mcp_serverNtB7_9McpServerNtNtNtCs6KMYyKjEMvs_4rmcp7handler6server13ServerHandler10initialize0Bb_
FNDA:0,_RNvXs_NtNtCsbnPvSRIC2WX_3dsc6server10mcp_serverNtB4_9McpServerNtNtCsitGFVNq7Ifu_4core7default7Default7default
FNDA:1,_RNCNvXs2_NtNtCsbnPvSRIC2WX_3dsc6server10mcp_serverNtB7_9McpServerNtNtNtCs6KMYyKjEMvs_4rmcp7handler6server13ServerHandler10initialize0Bb_
FNDA:1,_RNvMNtNtCsbnPvSRIC2WX_3dsc6server10mcp_serverNtB2_9McpServer3new
FNDA:1,_RNvXs2_NtNtCsbnPvSRIC2WX_3dsc6server10mcp_serverNtB5_9McpServerNtNtNtCs6KMYyKjEMvs_4rmcp7handler6server13ServerHandler10initialize
FNDA:1,_RNvXs2_NtNtCsbnPvSRIC2WX_3dsc6server10mcp_serverNtB5_9McpServerNtNtNtCs6KMYyKjEMvs_4rmcp7handler6server13ServerHandler8get_info
FNDA:0,_RNvXs_NtNtCs1X0yMICwGEd_3dsc6server10mcp_serverNtB4_9McpServerNtNtCsitGFVNq7Ifu_4core7default7Default7default
FNDA:0,_RNvMNtNtCs1X0yMICwGEd_3dsc6server10mcp_serverNtB2_9McpServer3new
FNDA:0,_RNvXs2_NtNtCs1X0yMICwGEd_3dsc6server10mcp_serverNtB5_9McpServerNtNtNtCs37L6J2AubeB_4rmcp7handler6server13ServerHandler10initialize
FNDA:0,_RNvXs2_NtNtCs1X0yMICwGEd_3dsc6server10mcp_serverNtB5_9McpServerNtNtNtCs37L6J2AubeB_4rmcp7handler6server13ServerHandler8get_info
FNDA:0,_RNCNvXs2_NtNtCs1X0yMICwGEd_3dsc6server10mcp_serverNtB7_9McpServerNtNtNtCs37L6J2AubeB_4rmcp7handler6server13ServerHandler10initialize0Bb_
FNF:5
FNH:4
DA:21,1
DA:22,1
DA:23,1
DA:24,1
DA:25,1
DA:26,1
DA:27,1
DA:28,1
DA:29,1
DA:30,1
DA:31,1
DA:32,1
DA:33,1
DA:37,0
DA:38,0
DA:39,0
DA:44,1
DA:45,1
DA:46,1
DA:47,1
DA:48,1
DA:50,1
DA:51,1
DA:52,1
DA:54,1
DA:55,1
DA:56,1
BRF:0
BRH:0
LF:28
LH:25
end_of_record
SF:/Users/steve/repos/DSC/dsc/src/server/mod.rs
FN:50,_RNCNvNtCskXQqlygXNEk_3dsc6server12start_server0B5_
FN:53,_RNCNvNtCskXQqlygXNEk_3dsc6server12start_servers_0B5_
FN:48,_RNvNtCskXQqlygXNEk_3dsc6server12start_server
FN:27,_RNvNtCskXQqlygXNEk_3dsc6server18start_server_async
FN:33,_RNCNCNvNtCskXQqlygXNEk_3dsc6server18start_server_async00B7_
FN:37,_RNCNCNvNtCskXQqlygXNEk_3dsc6server18start_server_async0s_0B7_
FN:27,_RNCNvNtCskXQqlygXNEk_3dsc6server18start_server_async0B5_
FN:33,_RNCNCNvNtCsbnPvSRIC2WX_3dsc6server18start_server_async00B7_
FN:37,_RNCNCNvNtCsbnPvSRIC2WX_3dsc6server18start_server_async0s_0B7_
FN:50,_RNCNvNtCsbnPvSRIC2WX_3dsc6server12start_server0B5_
FN:53,_RNCNvNtCsbnPvSRIC2WX_3dsc6server12start_servers_0B5_
FN:27,_RNCNvNtCsbnPvSRIC2WX_3dsc6server18start_server_async0B5_
FN:48,_RNvNtCsbnPvSRIC2WX_3dsc6server12start_server
FN:27,_RNvNtCsbnPvSRIC2WX_3dsc6server18start_server_async
FN:50,_RNCNvNtCs1X0yMICwGEd_3dsc6server12start_server0B5_
FN:53,_RNCNvNtCs1X0yMICwGEd_3dsc6server12start_servers_0B5_
FN:48,_RNvNtCs1X0yMICwGEd_3dsc6server12start_server
FN:27,_RNvNtCs1X0yMICwGEd_3dsc6server18start_server_async
FN:33,_RNCNCNvNtCs1X0yMICwGEd_3dsc6server18start_server_async00B7_
FN:37,_RNCNCNvNtCs1X0yMICwGEd_3dsc6server18start_server_async0s_0B7_
FN:27,_RNCNvNtCs1X0yMICwGEd_3dsc6server18start_server_async0B5_
FNDA:0,_RNCNvNtCskXQqlygXNEk_3dsc6server12start_server0B5_
FNDA:0,_RNCNvNtCskXQqlygXNEk_3dsc6server12start_servers_0B5_
FNDA:0,_RNvNtCskXQqlygXNEk_3dsc6server12start_server
FNDA:0,_RNvNtCskXQqlygXNEk_3dsc6server18start_server_async
FNDA:0,_RNCNCNvNtCskXQqlygXNEk_3dsc6server18start_server_async00B7_
FNDA:0,_RNCNCNvNtCskXQqlygXNEk_3dsc6server18start_server_async0s_0B7_
FNDA:0,_RNCNvNtCskXQqlygXNEk_3dsc6server18start_server_async0B5_
FNDA:0,_RNCNCNvNtCsbnPvSRIC2WX_3dsc6server18start_server_async00B7_
FNDA:0,_RNCNCNvNtCsbnPvSRIC2WX_3dsc6server18start_server_async0s_0B7_
FNDA:0,_RNCNvNtCsbnPvSRIC2WX_3dsc6server12start_server0B5_
FNDA:0,_RNCNvNtCsbnPvSRIC2WX_3dsc6server12start_servers_0B5_
FNDA:1,_RNCNvNtCsbnPvSRIC2WX_3dsc6server18start_server_async0B5_
FNDA:1,_RNvNtCsbnPvSRIC2WX_3dsc6server12start_server
FNDA:1,_RNvNtCsbnPvSRIC2WX_3dsc6server18start_server_async
FNDA:0,_RNCNvNtCs1X0yMICwGEd_3dsc6server12start_server0B5_
FNDA:0,_RNCNvNtCs1X0yMICwGEd_3dsc6server12start_servers_0B5_
FNDA:0,_RNvNtCs1X0yMICwGEd_3dsc6server12start_server
FNDA:0,_RNvNtCs1X0yMICwGEd_3dsc6server18start_server_async
FNDA:0,_RNCNCNvNtCs1X0yMICwGEd_3dsc6server18start_server_async00B7_
FNDA:0,_RNCNCNvNtCs1X0yMICwGEd_3dsc6server18start_server_async0s_0B7_
FNDA:0,_RNCNvNtCs1X0yMICwGEd_3dsc6server18start_server_async0B5_
FNF:7
FNH:3
DA:27,1
DA:29,1
DA:32,1
DA:33,1
DA:36,1
DA:37,1
DA:39,1
DA:40,1
DA:41,1
DA:48,1
DA:49,1
DA:50,1
DA:52,1
DA:53,1
DA:54,1
DA:55,1
BRF:0
BRH:0
LF:21
LH:17
end_of_record
SF:/Users/steve/repos/DSC/dsc/src/server/show_dsc_resource.rs
FN:65,_RNCNCNvMNtNtCskXQqlygXNEk_3dsc6server17show_dsc_resourceNtNtB8_10mcp_server9McpServer17show_dsc_resource00Ba_
FN:83,_RNCNCNvMNtNtCskXQqlygXNEk_3dsc6server17show_dsc_resourceNtNtB8_10mcp_server9McpServer17show_dsc_resource0s_0Ba_
FN:64,_RNCNvMNtNtCskXQqlygXNEk_3dsc6server17show_dsc_resourceNtNtB6_10mcp_server9McpServer17show_dsc_resource0B8_
FN:20,_RNvNtNtCskXQqlygXNEk_3dsc6server17show_dsc_resource27nullable_json_object_schema
FN:65,_RNCNCNvMNtNtCsbnPvSRIC2WX_3dsc6server17show_dsc_resourceNtNtB8_10mcp_server9McpServer17show_dsc_resource00Ba_
FN:83,_RNCNCNvMNtNtCsbnPvSRIC2WX_3dsc6server17show_dsc_resourceNtNtB8_10mcp_server9McpServer17show_dsc_resource0s_0Ba_
FN:64,_RNCNvMNtNtCsbnPvSRIC2WX_3dsc6server17show_dsc_resourceNtNtB6_10mcp_server9McpServer17show_dsc_resource0B8_
FN:20,_RNvNtNtCsbnPvSRIC2WX_3dsc6server17show_dsc_resource27nullable_json_object_schema
FN:20,_RNvNtNtCs1X0yMICwGEd_3dsc6server17show_dsc_resource27nullable_json_object_schema
FN:65,_RNCNCNvMNtNtCs1X0yMICwGEd_3dsc6server17show_dsc_resourceNtNtB8_10mcp_server9McpServer17show_dsc_resource00Ba_
FN:83,_RNCNCNvMNtNtCs1X0yMICwGEd_3dsc6server17show_dsc_resourceNtNtB8_10mcp_server9McpServer17show_dsc_resource0s_0Ba_
FN:64,_RNCNvMNtNtCs1X0yMICwGEd_3dsc6server17show_dsc_resourceNtNtB6_10mcp_server9McpServer17show_dsc_resource0B8_
FNDA:0,_RNCNCNvMNtNtCskXQqlygXNEk_3dsc6server17show_dsc_resourceNtNtB8_10mcp_server9McpServer17show_dsc_resource00Ba_
FNDA:0,_RNCNCNvMNtNtCskXQqlygXNEk_3dsc6server17show_dsc_resourceNtNtB8_10mcp_server9McpServer17show_dsc_resource0s_0Ba_
FNDA:0,_RNCNvMNtNtCskXQqlygXNEk_3dsc6server17show_dsc_resourceNtNtB6_10mcp_server9McpServer17show_dsc_resource0B8_
FNDA:0,_RNvNtNtCskXQqlygXNEk_3dsc6server17show_dsc_resource27nullable_json_object_schema
FNDA:2,_RNCNCNvMNtNtCsbnPvSRIC2WX_3dsc6server17show_dsc_resourceNtNtB8_10mcp_server9McpServer17show_dsc_resource00Ba_
FNDA:0,_RNCNCNvMNtNtCsbnPvSRIC2WX_3dsc6server17show_dsc_resourceNtNtB8_10mcp_server9McpServer17show_dsc_resource0s_0Ba_
FNDA:2,_RNCNvMNtNtCsbnPvSRIC2WX_3dsc6server17show_dsc_resourceNtNtB6_10mcp_server9McpServer17show_dsc_resource0B8_
FNDA:1,_RNvNtNtCsbnPvSRIC2WX_3dsc6server17show_dsc_resource27nullable_json_object_schema
FNDA:0,_RNvNtNtCs1X0yMICwGEd_3dsc6server17show_dsc_resource27nullable_json_object_schema
FNDA:0,_RNCNCNvMNtNtCs1X0yMICwGEd_3dsc6server17show_dsc_resourceNtNtB8_10mcp_server9McpServer17show_dsc_resource00Ba_
FNDA:0,_RNCNCNvMNtNtCs1X0yMICwGEd_3dsc6server17show_dsc_resourceNtNtB8_10mcp_server9McpServer17show_dsc_resource0s_0Ba_
FNDA:0,_RNCNvMNtNtCs1X0yMICwGEd_3dsc6server17show_dsc_resourceNtNtB6_10mcp_server9McpServer17show_dsc_resource0B8_
FNF:4
FNH:3
DA:20,1
DA:21,1
DA:22,1
DA:64,2
DA:65,2
DA:66,2
DA:67,2
DA:68,1
DA:70,1
DA:71,1
DA:72,0
DA:74,1
DA:75,1
DA:76,1
DA:77,1
DA:78,1
DA:79,1
DA:80,1
DA:81,1
DA:82,1
DA:83,2
DA:85,1
BRF:0
BRH:0
LF:25
LH:23
end_of_record
SF:/Users/steve/repos/DSC/dsc/src/server/show_dsc_schema.rs
FN:40,_RNCNCNvMNtNtCskXQqlygXNEk_3dsc6server15show_dsc_schemaNtNtB8_10mcp_server9McpServer15show_dsc_schema00Ba_
FN:43,_RNCNCNvMNtNtCskXQqlygXNEk_3dsc6server15show_dsc_schemaNtNtB8_10mcp_server9McpServer15show_dsc_schema0s_0Ba_
FN:39,_RNCNvMNtNtCskXQqlygXNEk_3dsc6server15show_dsc_schemaNtNtB6_10mcp_server9McpServer15show_dsc_schema0B8_
FN:11,_RNvNtNtCskXQqlygXNEk_3dsc6server15show_dsc_schema18json_object_schema
FN:11,_RNvNtNtCsbnPvSRIC2WX_3dsc6server15show_dsc_schema18json_object_schema
FN:40,_RNCNCNvMNtNtCsbnPvSRIC2WX_3dsc6server15show_dsc_schemaNtNtB8_10mcp_server9McpServer15show_dsc_schema00Ba_
FN:43,_RNCNCNvMNtNtCsbnPvSRIC2WX_3dsc6server15show_dsc_schemaNtNtB8_10mcp_server9McpServer15show_dsc_schema0s_0Ba_
FN:39,_RNCNvMNtNtCsbnPvSRIC2WX_3dsc6server15show_dsc_schemaNtNtB6_10mcp_server9McpServer15show_dsc_schema0B8_
FN:40,_RNCNCNvMNtNtCs1X0yMICwGEd_3dsc6server15show_dsc_schemaNtNtB8_10mcp_server9McpServer15show_dsc_schema00Ba_
FN:43,_RNCNCNvMNtNtCs1X0yMICwGEd_3dsc6server15show_dsc_schemaNtNtB8_10mcp_server9McpServer15show_dsc_schema0s_0Ba_
FN:39,_RNCNvMNtNtCs1X0yMICwGEd_3dsc6server15show_dsc_schemaNtNtB6_10mcp_server9McpServer15show_dsc_schema0B8_
FN:11,_RNvNtNtCs1X0yMICwGEd_3dsc6server15show_dsc_schema18json_object_schema
FNDA:0,_RNCNCNvMNtNtCskXQqlygXNEk_3dsc6server15show_dsc_schemaNtNtB8_10mcp_server9McpServer15show_dsc_schema00Ba_
FNDA:0,_RNCNCNvMNtNtCskXQqlygXNEk_3dsc6server15show_dsc_schemaNtNtB8_10mcp_server9McpServer15show_dsc_schema0s_0Ba_
FNDA:0,_RNCNvMNtNtCskXQqlygXNEk_3dsc6server15show_dsc_schemaNtNtB6_10mcp_server9McpServer15show_dsc_schema0B8_
FNDA:0,_RNvNtNtCskXQqlygXNEk_3dsc6server15show_dsc_schema18json_object_schema
FNDA:1,_RNvNtNtCsbnPvSRIC2WX_3dsc6server15show_dsc_schema18json_object_schema
FNDA:1,_RNCNCNvMNtNtCsbnPvSRIC2WX_3dsc6server15show_dsc_schemaNtNtB8_10mcp_server9McpServer15show_dsc_schema00Ba_
FNDA:0,_RNCNCNvMNtNtCsbnPvSRIC2WX_3dsc6server15show_dsc_schemaNtNtB8_10mcp_server9McpServer15show_dsc_schema0s_0Ba_
FNDA:1,_RNCNvMNtNtCsbnPvSRIC2WX_3dsc6server15show_dsc_schemaNtNtB6_10mcp_server9McpServer15show_dsc_schema0B8_
FNDA:0,_RNCNCNvMNtNtCs1X0yMICwGEd_3dsc6server15show_dsc_schemaNtNtB8_10mcp_server9McpServer15show_dsc_schema00Ba_
FNDA:0,_RNCNCNvMNtNtCs1X0yMICwGEd_3dsc6server15show_dsc_schemaNtNtB8_10mcp_server9McpServer15show_dsc_schema0s_0Ba_
FNDA:0,_RNCNvMNtNtCs1X0yMICwGEd_3dsc6server15show_dsc_schemaNtNtB6_10mcp_server9McpServer15show_dsc_schema0B8_
FNDA:0,_RNvNtNtCs1X0yMICwGEd_3dsc6server15show_dsc_schema18json_object_schema
FNF:4
FNH:3
DA:11,1
DA:12,1
DA:13,1
DA:39,1
DA:40,1
DA:41,1
DA:42,1
DA:43,1
DA:45,1
BRF:0
BRH:0
LF:12
LH:11
end_of_record
SF:/Users/steve/repos/DSC/dsc/src/subcommand.rs
FN:46,_RNvNtCskXQqlygXNEk_3dsc10subcommand10config_get
FN:81,_RNvNtCskXQqlygXNEk_3dsc10subcommand10config_set
FN:116,_RNvNtCskXQqlygXNEk_3dsc10subcommand11config_test
FN:217,_RNvNtCskXQqlygXNEk_3dsc10subcommand13config_export
FN:692,_RNvNtCskXQqlygXNEk_3dsc10subcommand14list_functions
FN:754,_RNvNtCskXQqlygXNEk_3dsc10subcommand14list_resources
FN:628,_RNvNtCskXQqlygXNEk_3dsc10subcommand15list_extensions
FN:477,_RNvNtCskXQqlygXNEk_3dsc10subcommand15validate_config
FN:618,_RNvNtCskXQqlygXNEk_3dsc10subcommand18should_write_table
FN:246,_RNvNtCskXQqlygXNEk_3dsc10subcommand22initialize_config_root
FN:278,_RNvNtCskXQqlygXNEk_3dsc10subcommand6config
FN:541,_RNvNtCskXQqlygXNEk_3dsc10subcommand8function
FN:551,_RNvNtCskXQqlygXNEk_3dsc10subcommand8resource
FN:531,_RNvNtCskXQqlygXNEk_3dsc10subcommand9extension
FN:46,_RNvNtCsbnPvSRIC2WX_3dsc10subcommand10config_get
FN:81,_RNvNtCsbnPvSRIC2WX_3dsc10subcommand10config_set
FN:116,_RNvNtCsbnPvSRIC2WX_3dsc10subcommand11config_test
FN:217,_RNvNtCsbnPvSRIC2WX_3dsc10subcommand13config_export
FN:692,_RNvNtCsbnPvSRIC2WX_3dsc10subcommand14list_functions
FN:754,_RNvNtCsbnPvSRIC2WX_3dsc10subcommand14list_resources
FN:628,_RNvNtCsbnPvSRIC2WX_3dsc10subcommand15list_extensions
FN:477,_RNvNtCsbnPvSRIC2WX_3dsc10subcommand15validate_config
FN:618,_RNvNtCsbnPvSRIC2WX_3dsc10subcommand18should_write_table
FN:246,_RNvNtCsbnPvSRIC2WX_3dsc10subcommand22initialize_config_root
FN:278,_RNvNtCsbnPvSRIC2WX_3dsc10subcommand6config
FN:541,_RNvNtCsbnPvSRIC2WX_3dsc10subcommand8function
FN:551,_RNvNtCsbnPvSRIC2WX_3dsc10subcommand8resource
FN:531,_RNvNtCsbnPvSRIC2WX_3dsc10subcommand9extension
FN:47,_RNvNtCs1X0yMICwGEd_3dsc10subcommand10config_get
FN:82,_RNvNtCs1X0yMICwGEd_3dsc10subcommand10config_set
FN:117,_RNvNtCs1X0yMICwGEd_3dsc10subcommand11config_test
FN:218,_RNvNtCs1X0yMICwGEd_3dsc10subcommand13config_export
FN:693,_RNvNtCs1X0yMICwGEd_3dsc10subcommand14list_functions
FN:782,_RNvNtCs1X0yMICwGEd_3dsc10subcommand14list_resources
FN:629,_RNvNtCs1X0yMICwGEd_3dsc10subcommand15list_extensions
FN:478,_RNvNtCs1X0yMICwGEd_3dsc10subcommand15validate_config
FN:619,_RNvNtCs1X0yMICwGEd_3dsc10subcommand18should_write_table
FN:247,_RNvNtCs1X0yMICwGEd_3dsc10subcommand22initialize_config_root
FN:279,_RNvNtCs1X0yMICwGEd_3dsc10subcommand6config
FN:542,_RNvNtCs1X0yMICwGEd_3dsc10subcommand8function
FN:552,_RNvNtCs1X0yMICwGEd_3dsc10subcommand8resource
FN:532,_RNvNtCs1X0yMICwGEd_3dsc10subcommand9extension
FNDA:0,_RNvNtCskXQqlygXNEk_3dsc10subcommand10config_get
FNDA:0,_RNvNtCskXQqlygXNEk_3dsc10subcommand10config_set
FNDA:0,_RNvNtCskXQqlygXNEk_3dsc10subcommand11config_test
FNDA:0,_RNvNtCskXQqlygXNEk_3dsc10subcommand13config_export
FNDA:0,_RNvNtCskXQqlygXNEk_3dsc10subcommand14list_functions
FNDA:0,_RNvNtCskXQqlygXNEk_3dsc10subcommand14list_resources
FNDA:0,_RNvNtCskXQqlygXNEk_3dsc10subcommand15list_extensions
FNDA:0,_RNvNtCskXQqlygXNEk_3dsc10subcommand15validate_config
FNDA:0,_RNvNtCskXQqlygXNEk_3dsc10subcommand18should_write_table
FNDA:0,_RNvNtCskXQqlygXNEk_3dsc10subcommand22initialize_config_root
FNDA:0,_RNvNtCskXQqlygXNEk_3dsc10subcommand6config
FNDA:0,_RNvNtCskXQqlygXNEk_3dsc10subcommand8function
FNDA:0,_RNvNtCskXQqlygXNEk_3dsc10subcommand8resource
FNDA:0,_RNvNtCskXQqlygXNEk_3dsc10subcommand9extension
FNDA:667,_RNvNtCsbnPvSRIC2WX_3dsc10subcommand10config_get
FNDA:43,_RNvNtCsbnPvSRIC2WX_3dsc10subcommand10config_set
FNDA:40,_RNvNtCsbnPvSRIC2WX_3dsc10subcommand11config_test
FNDA:22,_RNvNtCsbnPvSRIC2WX_3dsc10subcommand13config_export
FNDA:5,_RNvNtCsbnPvSRIC2WX_3dsc10subcommand14list_functions
FNDA:83,_RNvNtCsbnPvSRIC2WX_3dsc10subcommand14list_resources
FNDA:8,_RNvNtCsbnPvSRIC2WX_3dsc10subcommand15list_extensions
FNDA:8,_RNvNtCsbnPvSRIC2WX_3dsc10subcommand15validate_config
FNDA:13,_RNvNtCsbnPvSRIC2WX_3dsc10subcommand18should_write_table
FNDA:859,_RNvNtCsbnPvSRIC2WX_3dsc10subcommand22initialize_config_root
FNDA:847,_RNvNtCsbnPvSRIC2WX_3dsc10subcommand6config
FNDA:5,_RNvNtCsbnPvSRIC2WX_3dsc10subcommand8function
FNDA:262,_RNvNtCsbnPvSRIC2WX_3dsc10subcommand8resource
FNDA:8,_RNvNtCsbnPvSRIC2WX_3dsc10subcommand9extension
FNDA:0,_RNvNtCs1X0yMICwGEd_3dsc10subcommand10config_get
FNDA:0,_RNvNtCs1X0yMICwGEd_3dsc10subcommand10config_set
FNDA:0,_RNvNtCs1X0yMICwGEd_3dsc10subcommand11config_test
FNDA:0,_RNvNtCs1X0yMICwGEd_3dsc10subcommand13config_export
FNDA:0,_RNvNtCs1X0yMICwGEd_3dsc10subcommand14list_functions
FNDA:0,_RNvNtCs1X0yMICwGEd_3dsc10subcommand14list_resources
FNDA:0,_RNvNtCs1X0yMICwGEd_3dsc10subcommand15list_extensions
FNDA:0,_RNvNtCs1X0yMICwGEd_3dsc10subcommand15validate_config
FNDA:0,_RNvNtCs1X0yMICwGEd_3dsc10subcommand18should_write_table
FNDA:0,_RNvNtCs1X0yMICwGEd_3dsc10subcommand22initialize_config_root
FNDA:0,_RNvNtCs1X0yMICwGEd_3dsc10subcommand6config
FNDA:0,_RNvNtCs1X0yMICwGEd_3dsc10subcommand8function
FNDA:0,_RNvNtCs1X0yMICwGEd_3dsc10subcommand8resource
FNDA:0,_RNvNtCs1X0yMICwGEd_3dsc10subcommand9extension
FNF:28
FNH:14
DA:46,667
DA:47,0
DA:48,667
DA:49,578
DA:50,578
DA:51,15
DA:52,15
DA:53,0
DA:54,0
DA:55,0
DA:56,0
DA:58,15
DA:59,0
DA:61,563
DA:62,563
DA:63,0
DA:64,0
DA:65,0
DA:66,0
DA:68,563
DA:69,563
DA:70,0
DA:71,563
DA:72,0
DA:74,89
DA:75,0
DA:76,89
DA:77,0
DA:79,578
DA:80,0
DA:81,43
DA:82,0
DA:83,43
DA:84,40
DA:85,40
DA:86,1
DA:87,1
DA:88,0
DA:89,0
DA:90,0
DA:91,0
DA:93,1
DA:94,0
DA:96,39
DA:97,39
DA:98,0
DA:99,0
DA:100,0
DA:101,0
DA:103,39
DA:104,39
DA:105,0
DA:106,39
DA:107,0
DA:109,3
DA:110,0
DA:111,3
DA:112,0
DA:114,40
DA:115,0
DA:116,40
DA:117,0
DA:118,40
DA:119,37
DA:120,37
DA:121,2
DA:122,1
DA:123,1
DA:124,2
DA:125,2
DA:126,1
DA:127,1
DA:128,1
DA:129,1
DA:130,1
DA:131,1
DA:132,1
DA:133,0
DA:134,0
DA:135,0
DA:136,0
DA:140,0
DA:141,0
DA:142,0
DA:144,1
DA:145,1
DA:146,1
DA:147,0
DA:148,1
DA:149,1
DA:150,1
DA:151,0
DA:152,0
DA:153,0
DA:154,0
DA:155,0
DA:156,0
DA:157,0
DA:160,1
DA:161,0
DA:162,0
DA:163,0
DA:164,0
DA:165,0
DA:166,0
DA:167,0
DA:168,0
DA:169,0
DA:170,0
DA:171,0
DA:172,0
DA:173,0
DA:174,0
DA:178,1
DA:179,0
DA:180,0
DA:181,0
DA:182,0
DA:183,0
DA:184,0
DA:185,1
DA:186,1
DA:187,1
DA:188,0
DA:189,0
DA:190,0
DA:191,0
DA:194,1
DA:195,0
DA:197,35
DA:198,35
DA:199,0
DA:200,0
DA:201,0
DA:202,0
DA:204,35
DA:205,35
DA:206,0
DA:207,35
DA:208,0
DA:210,3
DA:211,0
DA:212,3
DA:213,0
DA:215,36
DA:216,0
DA:217,22
DA:218,0
DA:219,22
DA:220,19
DA:221,19
DA:222,19
DA:223,0
DA:224,0
DA:225,0
DA:226,0
DA:228,19
DA:229,19
DA:230,0
DA:231,0
DA:232,0
DA:233,0
DA:234,0
DA:236,0
DA:237,19
DA:238,0
DA:239,3
DA:240,0
DA:241,3
DA:242,0
DA:244,19
DA:245,0
DA:246,859
DA:247,0
DA:249,859
DA:250,397
DA:251,44
DA:252,353
DA:253,0
DA:254,353
DA:255,0
DA:256,462
DA:257,0
DA:259,815
DA:260,55
DA:261,55
DA:262,0
DA:263,760
DA:264,760
DA:265,760
DA:266,0
DA:269,815
DA:270,353
DA:271,462
DA:272,0
DA:273,462
DA:274,859
DA:275,0
DA:278,847
DA:279,847
DA:280,714
DA:281,44
DA:282,42
DA:283,25
DA:284,22
DA:285,847
DA:286,847
DA:287,847
DA:288,30
DA:289,26
DA:290,4
DA:291,0
DA:292,4
DA:293,0
DA:295,26
DA:296,0
DA:297,817
DA:298,0
DA:300,0
DA:301,0
DA:302,0
DA:303,0
DA:304,0
DA:305,0
DA:306,0
DA:307,0
DA:308,0
DA:310,0
DA:311,0
DA:314,843
DA:315,830
DA:316,13
DA:317,0
DA:318,13
DA:319,0
DA:322,830
DA:323,0
DA:324,830
DA:325,11
DA:326,819
DA:327,0
DA:328,830
DA:329,0
DA:330,0
DA:331,822
DA:332,0
DA:334,766
DA:335,766
DA:336,0
DA:337,64
DA:338,64
DA:339,64
DA:340,64
DA:341,0
DA:342,0
DA:343,0
DA:344,0
DA:345,0
DA:346,0
DA:347,0
DA:348,0
DA:349,0
DA:352,0
DA:353,0
DA:354,0
DA:355,0
DA:362,830
DA:363,7
DA:364,5
DA:365,5
DA:366,2
DA:367,0
DA:369,2
DA:370,0
DA:371,2
DA:372,2
DA:373,2
DA:374,823
DA:375,0
DA:376,825
DA:377,33
DA:378,33
DA:379,792
DA:380,0
DA:381,792
DA:382,667
DA:383,667
DA:384,0
DA:385,43
DA:386,43
DA:387,0
DA:388,40
DA:389,40
DA:390,40
DA:391,20
DA:392,20
DA:393,20
DA:394,0
DA:395,0
DA:396,20
DA:397,12
DA:398,12
DA:399,12
DA:400,12
DA:401,12
DA:402,0
DA:403,0
DA:404,0
DA:405,0
DA:406,0
DA:409,8
DA:410,8
DA:411,8
DA:412,0
DA:413,0
DA:414,0
DA:415,0
DA:416,0
DA:420,20
DA:421,0
DA:422,0
DA:423,0
DA:425,20
DA:426,0
DA:427,22
DA:428,22
DA:429,0
DA:430,0
DA:431,0
DA:432,0
DA:433,0
DA:434,0
DA:435,0
DA:436,0
DA:439,0
DA:440,0
DA:441,0
DA:442,0
DA:443,0
DA:444,0
DA:445,0
DA:446,0
DA:447,0
DA:448,0
DA:449,0
DA:450,0
DA:451,0
DA:452,0
DA:453,0
DA:454,0
DA:455,0
DA:456,0
DA:457,0
DA:459,0
DA:460,0
DA:462,792
DA:463,0
DA:477,8
DA:478,0
DA:479,8
DA:480,8
DA:481,8
DA:482,8
DA:483,8
DA:484,0
DA:486,8
DA:487,0
DA:488,0
DA:491,8
DA:492,15
DA:493,15
DA:494,0
DA:495,0
DA:496,15
DA:497,15
DA:498,15
DA:499,15
DA:500,0
DA:501,15
DA:502,0
DA:503,8
DA:504,0
DA:505,15
DA:506,15
DA:507,0
DA:508,0
DA:509,15
DA:510,15
DA:511,15
DA:512,15
DA:513,0
DA:514,0
DA:515,15
DA:516,0
DA:518,15
DA:519,0
DA:520,0
DA:523,15
DA:524,15
DA:525,0
DA:526,0
DA:528,8
DA:529,8
DA:530,0
DA:531,8
DA:532,8
DA:533,0
DA:534,8
DA:535,8
DA:536,8
DA:537,0
DA:538,0
DA:539,8
DA:540,0
DA:541,5
DA:542,5
DA:543,5
DA:544,5
DA:545,5
DA:546,0
DA:547,0
DA:548,5
DA:549,0
DA:551,262
DA:552,262
DA:553,0
DA:554,262
DA:555,83
DA:556,83
DA:557,83
DA:558,6
DA:559,6
DA:560,0
DA:561,0
DA:562,6
DA:563,6
DA:564,0
DA:565,18
DA:566,18
DA:567,0
DA:568,0
DA:569,18
DA:570,18
DA:571,18
DA:572,0
DA:573,67
DA:574,67
DA:575,0
DA:576,0
DA:577,67
DA:578,67
DA:579,4
DA:580,4
DA:581,0
DA:582,63
DA:583,0
DA:584,0
DA:585,63
DA:586,63
DA:587,63
DA:588,0
DA:590,39
DA:591,39
DA:592,0
DA:593,0
DA:594,39
DA:595,39
DA:596,39
DA:597,0
DA:598,41
DA:599,41
DA:600,0
DA:601,0
DA:602,41
DA:603,41
DA:604,41
DA:605,0
DA:606,8
DA:607,8
DA:608,0
DA:609,0
DA:610,8
DA:611,8
DA:612,8
DA:613,0
DA:615,262
DA:616,0
DA:618,13
DA:619,11
DA:620,0
DA:621,2
DA:622,0
DA:624,11
DA:625,0
DA:626,13
DA:627,0
DA:628,8
DA:629,8
DA:630,0
DA:631,8
DA:632,8
DA:633,8
DA:634,8
DA:635,8
DA:636,0
DA:638,8
DA:639,0
DA:640,8
DA:641,7
DA:642,7
DA:643,7
DA:644,7
DA:645,0
DA:646,7
DA:647,7
DA:648,0
DA:649,21
DA:650,21
DA:651,7
DA:652,14
DA:653,0
DA:655,7
DA:656,2
DA:657,2
DA:658,2
DA:659,2
DA:660,0
DA:661,2
DA:662,2
DA:663,0
DA:665,5
DA:666,5
DA:667,0
DA:668,0
DA:669,0
DA:670,0
DA:672,5
DA:673,0
DA:674,0
DA:675,0
DA:676,5
DA:677,0
DA:678,5
DA:679,0
DA:680,0
DA:681,5
DA:682,0
DA:683,0
DA:684,0
DA:686,8
DA:687,1
DA:688,1
DA:689,7
DA:690,8
DA:691,0
DA:692,5
DA:693,5
DA:694,5
DA:695,5
DA:696,5
DA:697,5
DA:698,5
DA:699,0
DA:700,0
DA:701,5
DA:702,5
DA:703,5
DA:704,5
DA:705,5
DA:706,5
DA:707,5
DA:708,0
DA:709,0
DA:710,0
DA:711,0
DA:712,5
DA:713,5
DA:714,415
DA:715,415
DA:716,82
DA:717,333
DA:718,0
DA:719,83
DA:720,83
DA:721,83
DA:722,83
DA:723,83
DA:724,83
DA:725,83
DA:726,83
DA:727,0
DA:728,250
DA:729,250
DA:730,0
DA:731,0
DA:732,0
DA:733,0
DA:734,0
DA:735,250
DA:736,166
DA:737,0
DA:738,0
DA:739,84
DA:740,0
DA:741,250
DA:742,250
DA:743,0
DA:744,250
DA:746,0
DA:747,0
DA:748,5
DA:749,1
DA:750,1
DA:751,4
DA:752,5
DA:754,83
DA:755,83
DA:756,83
DA:757,83
DA:758,83
DA:759,83
DA:760,83
DA:761,83
DA:762,83
DA:763,83
DA:764,83
DA:765,83
DA:766,83
DA:767,83
DA:768,83
DA:769,83
DA:770,83
DA:772,83
DA:773,1
DA:774,1
DA:775,82
DA:776,83
DA:777,0
DA:778,83
DA:779,1391
DA:780,1391
DA:781,1391
DA:782,1391
DA:783,1391
DA:784,1391
DA:785,1391
DA:786,1391
DA:787,1391
DA:788,1391
DA:789,0
DA:790,0
DA:791,1391
DA:792,0
DA:793,12519
DA:794,12519
DA:795,4026
DA:796,8493
DA:797,0
DA:798,0
DA:800,1391
DA:801,0
DA:802,1234
DA:803,321
DA:804,913
DA:806,0
DA:807,913
DA:808,55
DA:809,0
DA:810,4
DA:811,4
DA:812,11
DA:813,11
DA:814,2
DA:815,2
DA:816,9
DA:817,0
DA:818,0
DA:819,4
DA:820,858
DA:821,0
DA:822,0
DA:823,157
DA:824,21
DA:825,136
DA:828,996
DA:829,63
DA:830,63
DA:831,63
DA:832,63
DA:833,63
DA:834,63
DA:835,63
DA:836,63
DA:837,63
DA:838,0
DA:839,0
DA:840,933
DA:841,933
DA:842,0
DA:843,0
DA:844,0
DA:847,933
DA:848,181
DA:849,1
DA:850,63
DA:851,688
DA:852,0
DA:853,933
DA:854,933
DA:856,933
DA:857,0
DA:858,0
DA:859,0
DA:860,0
DA:861,83
DA:862,1
DA:863,1
DA:864,82
DA:865,83
DA:868,0
DA:869,0
DA:870,0
DA:871,0
DA:872,0
DA:875,0
DA:876,0
DA:877,0
DA:878,0
DA:879,0
DA:881,0
DA:882,0
DA:884,0
DA:886,0
DA:889,0
DA:890,0
DA:891,0
DA:892,0
DA:893,0
BRF:0
BRH:0
LF:1170
LH:435
end_of_record
SF:/Users/steve/repos/DSC/dsc/src/tablewriter.rs
FN:28,_RNCNvMNtCskXQqlygXNEk_3dsc11tablewriterNtB4_5Table3new0B6_
FN:23,_RNvMNtCskXQqlygXNEk_3dsc11tablewriterNtB2_5Table3new
FN:56,_RNvMNtCskXQqlygXNEk_3dsc11tablewriterNtB2_5Table5print
FN:41,_RNvMNtCskXQqlygXNEk_3dsc11tablewriterNtB2_5Table7add_row
FN:28,_RNCNvMNtCsbnPvSRIC2WX_3dsc11tablewriterNtB4_5Table3new0B6_
FN:23,_RNvMNtCsbnPvSRIC2WX_3dsc11tablewriterNtB2_5Table3new
FN:56,_RNvMNtCsbnPvSRIC2WX_3dsc11tablewriterNtB2_5Table5print
FN:41,_RNvMNtCsbnPvSRIC2WX_3dsc11tablewriterNtB2_5Table7add_row
FN:28,_RNCNvMNtCs1X0yMICwGEd_3dsc11tablewriterNtB4_5Table3new0B6_
FN:23,_RNvMNtCs1X0yMICwGEd_3dsc11tablewriterNtB2_5Table3new
FN:56,_RNvMNtCs1X0yMICwGEd_3dsc11tablewriterNtB2_5Table5print
FN:41,_RNvMNtCs1X0yMICwGEd_3dsc11tablewriterNtB2_5Table7add_row
FNDA:0,_RNCNvMNtCskXQqlygXNEk_3dsc11tablewriterNtB4_5Table3new0B6_
FNDA:0,_RNvMNtCskXQqlygXNEk_3dsc11tablewriterNtB2_5Table3new
FNDA:0,_RNvMNtCskXQqlygXNEk_3dsc11tablewriterNtB2_5Table5print
FNDA:0,_RNvMNtCskXQqlygXNEk_3dsc11tablewriterNtB2_5Table7add_row
FNDA:550,_RNCNvMNtCsbnPvSRIC2WX_3dsc11tablewriterNtB4_5Table3new0B6_
FNDA:96,_RNvMNtCsbnPvSRIC2WX_3dsc11tablewriterNtB2_5Table3new
FNDA:3,_RNvMNtCsbnPvSRIC2WX_3dsc11tablewriterNtB2_5Table5print
FNDA:148,_RNvMNtCsbnPvSRIC2WX_3dsc11tablewriterNtB2_5Table7add_row
FNDA:0,_RNCNvMNtCs1X0yMICwGEd_3dsc11tablewriterNtB4_5Table3new0B6_
FNDA:0,_RNvMNtCs1X0yMICwGEd_3dsc11tablewriterNtB2_5Table3new
FNDA:0,_RNvMNtCs1X0yMICwGEd_3dsc11tablewriterNtB2_5Table5print
FNDA:0,_RNvMNtCs1X0yMICwGEd_3dsc11tablewriterNtB2_5Table7add_row
FNF:4
FNH:4
DA:23,96
DA:24,96
DA:25,550
DA:26,550
DA:27,550
DA:28,550
DA:29,96
DA:30,96
DA:31,96
DA:32,96
DA:33,96
DA:34,96
DA:41,148
DA:42,718
DA:43,718
DA:44,32
DA:45,686
DA:47,148
DA:48,148
DA:56,3
DA:57,3
DA:59,3
DA:60,3
DA:61,3
DA:62,14
DA:63,14
DA:64,14
DA:65,11
DA:66,11
DA:69,3
DA:70,0
DA:71,3
DA:73,3
DA:74,3
DA:77,148
DA:78,148
DA:79,718
DA:80,718
DA:81,718
DA:82,570
DA:83,570
DA:87,148
DA:88,0
DA:89,0
DA:90,0
DA:91,0
DA:92,0
DA:93,148
DA:95,148
DA:97,3
BRF:0
BRH:0
LF:51
LH:45
end_of_record
SF:/Users/steve/repos/DSC/dsc/src/util.rs
FN:335,_RNCNvNtCskXQqlygXNEk_3dsc4util14enable_tracing0B5_
FN:405,_RNCNvNtCskXQqlygXNEk_3dsc4util14enable_tracings_0B5_
FN:242,_RNvNtCskXQqlygXNEk_3dsc4util12write_object
FN:645,_RNvNtCskXQqlygXNEk_3dsc4util13params_to_map
FN:329,_RNvNtCskXQqlygXNEk_3dsc4util14enable_tracing
FN:587,_RNvNtCskXQqlygXNEk_3dsc4util16in_desired_state
FN:673,_RNvNtCskXQqlygXNEk_3dsc4util16merge_parameters
FN:541,_RNvNtCskXQqlygXNEk_3dsc4util17set_dscconfigroot
FN:140,_RNvNtCskXQqlygXNEk_3dsc4util18add_fields_to_json
FN:617,_RNvNtCskXQqlygXNEk_3dsc4util25parse_input_to_json_value
FN:114,_RNvNtCskXQqlygXNEk_3dsc4util26serde_json_value_to_string
FN:453,_RNvNtCskXQqlygXNEk_3dsc4util9get_input
FN:95,_RNvXNtCskXQqlygXNEk_3dsc4utilNtB2_14TracingSettingNtNtCsitGFVNq7Ifu_4core7default7Default7default
FN:164,_RNvNtCskXQqlygXNEk_3dsc4util10get_schema
FN:140,_RNvNtCsbnPvSRIC2WX_3dsc4util18add_fields_to_json
FN:114,_RNvNtCsbnPvSRIC2WX_3dsc4util26serde_json_value_to_string
FN:164,_RNvNtCsbnPvSRIC2WX_3dsc4util10get_schema
FN:242,_RNvNtCsbnPvSRIC2WX_3dsc4util12write_object
FN:645,_RNvNtCsbnPvSRIC2WX_3dsc4util13params_to_map
FN:329,_RNvNtCsbnPvSRIC2WX_3dsc4util14enable_tracing
FN:587,_RNvNtCsbnPvSRIC2WX_3dsc4util16in_desired_state
FN:673,_RNvNtCsbnPvSRIC2WX_3dsc4util16merge_parameters
FN:541,_RNvNtCsbnPvSRIC2WX_3dsc4util17set_dscconfigroot
FN:617,_RNvNtCsbnPvSRIC2WX_3dsc4util25parse_input_to_json_value
FN:453,_RNvNtCsbnPvSRIC2WX_3dsc4util9get_input
FN:95,_RNvXNtCsbnPvSRIC2WX_3dsc4utilNtB2_14TracingSettingNtNtCsitGFVNq7Ifu_4core7default7Default7default
FN:335,_RNCNvNtCsbnPvSRIC2WX_3dsc4util14enable_tracing0B5_
FN:405,_RNCNvNtCsbnPvSRIC2WX_3dsc4util14enable_tracings_0B5_
FN:335,_RNCNvNtCs1X0yMICwGEd_3dsc4util14enable_tracing0B5_
FN:405,_RNCNvNtCs1X0yMICwGEd_3dsc4util14enable_tracings_0B5_
FN:242,_RNvNtCs1X0yMICwGEd_3dsc4util12write_object
FN:645,_RNvNtCs1X0yMICwGEd_3dsc4util13params_to_map
FN:329,_RNvNtCs1X0yMICwGEd_3dsc4util14enable_tracing
FN:587,_RNvNtCs1X0yMICwGEd_3dsc4util16in_desired_state
FN:673,_RNvNtCs1X0yMICwGEd_3dsc4util16merge_parameters
FN:541,_RNvNtCs1X0yMICwGEd_3dsc4util17set_dscconfigroot
FN:140,_RNvNtCs1X0yMICwGEd_3dsc4util18add_fields_to_json
FN:617,_RNvNtCs1X0yMICwGEd_3dsc4util25parse_input_to_json_value
FN:114,_RNvNtCs1X0yMICwGEd_3dsc4util26serde_json_value_to_string
FN:453,_RNvNtCs1X0yMICwGEd_3dsc4util9get_input
FN:95,_RNvXNtCs1X0yMICwGEd_3dsc4utilNtB2_14TracingSettingNtNtCsitGFVNq7Ifu_4core7default7Default7default
FN:164,_RNvNtCs1X0yMICwGEd_3dsc4util10get_schema
FNDA:0,_RNCNvNtCskXQqlygXNEk_3dsc4util14enable_tracing0B5_
FNDA:0,_RNCNvNtCskXQqlygXNEk_3dsc4util14enable_tracings_0B5_
FNDA:0,_RNvNtCskXQqlygXNEk_3dsc4util12write_object
FNDA:0,_RNvNtCskXQqlygXNEk_3dsc4util13params_to_map
FNDA:0,_RNvNtCskXQqlygXNEk_3dsc4util14enable_tracing
FNDA:0,_RNvNtCskXQqlygXNEk_3dsc4util16in_desired_state
FNDA:0,_RNvNtCskXQqlygXNEk_3dsc4util16merge_parameters
FNDA:0,_RNvNtCskXQqlygXNEk_3dsc4util17set_dscconfigroot
FNDA:0,_RNvNtCskXQqlygXNEk_3dsc4util18add_fields_to_json
FNDA:0,_RNvNtCskXQqlygXNEk_3dsc4util25parse_input_to_json_value
FNDA:0,_RNvNtCskXQqlygXNEk_3dsc4util26serde_json_value_to_string
FNDA:0,_RNvNtCskXQqlygXNEk_3dsc4util9get_input
FNDA:0,_RNvXNtCskXQqlygXNEk_3dsc4utilNtB2_14TracingSettingNtNtCsitGFVNq7Ifu_4core7default7Default7default
FNDA:0,_RNvNtCskXQqlygXNEk_3dsc4util10get_schema
FNDA:0,_RNvNtCsbnPvSRIC2WX_3dsc4util18add_fields_to_json
FNDA:0,_RNvNtCsbnPvSRIC2WX_3dsc4util26serde_json_value_to_string
FNDA:33,_RNvNtCsbnPvSRIC2WX_3dsc4util10get_schema
FNDA:2036,_RNvNtCsbnPvSRIC2WX_3dsc4util12write_object
FNDA:23,_RNvNtCsbnPvSRIC2WX_3dsc4util13params_to_map
FNDA:1150,_RNvNtCsbnPvSRIC2WX_3dsc4util14enable_tracing
FNDA:2,_RNvNtCsbnPvSRIC2WX_3dsc4util16in_desired_state
FNDA:12,_RNvNtCsbnPvSRIC2WX_3dsc4util16merge_parameters
FNDA:804,_RNvNtCsbnPvSRIC2WX_3dsc4util17set_dscconfigroot
FNDA:23,_RNvNtCsbnPvSRIC2WX_3dsc4util25parse_input_to_json_value
FNDA:1877,_RNvNtCsbnPvSRIC2WX_3dsc4util9get_input
FNDA:1150,_RNvXNtCsbnPvSRIC2WX_3dsc4utilNtB2_14TracingSettingNtNtCsitGFVNq7Ifu_4core7default7Default7default
FNDA:1150,_RNCNvNtCsbnPvSRIC2WX_3dsc4util14enable_tracing0B5_
FNDA:1150,_RNCNvNtCsbnPvSRIC2WX_3dsc4util14enable_tracings_0B5_
FNDA:0,_RNCNvNtCs1X0yMICwGEd_3dsc4util14enable_tracing0B5_
FNDA:0,_RNCNvNtCs1X0yMICwGEd_3dsc4util14enable_tracings_0B5_
FNDA:0,_RNvNtCs1X0yMICwGEd_3dsc4util12write_object
FNDA:0,_RNvNtCs1X0yMICwGEd_3dsc4util13params_to_map
FNDA:0,_RNvNtCs1X0yMICwGEd_3dsc4util14enable_tracing
FNDA:0,_RNvNtCs1X0yMICwGEd_3dsc4util16in_desired_state
FNDA:0,_RNvNtCs1X0yMICwGEd_3dsc4util16merge_parameters
FNDA:0,_RNvNtCs1X0yMICwGEd_3dsc4util17set_dscconfigroot
FNDA:0,_RNvNtCs1X0yMICwGEd_3dsc4util18add_fields_to_json
FNDA:0,_RNvNtCs1X0yMICwGEd_3dsc4util25parse_input_to_json_value
FNDA:0,_RNvNtCs1X0yMICwGEd_3dsc4util26serde_json_value_to_string
FNDA:0,_RNvNtCs1X0yMICwGEd_3dsc4util9get_input
FNDA:0,_RNvXNtCs1X0yMICwGEd_3dsc4utilNtB2_14TracingSettingNtNtCsitGFVNq7Ifu_4core7default7Default7default
FNDA:0,_RNvNtCs1X0yMICwGEd_3dsc4util10get_schema
FNF:14
FNH:12
DA:95,1150
DA:96,1150
DA:97,1150
DA:98,1150
DA:99,1150
DA:100,1150
DA:101,1150
DA:114,0
DA:116,0
DA:117,0
DA:118,0
DA:119,0
DA:120,0
DA:123,0
DA:140,0
DA:142,0
DA:144,0
DA:145,0
DA:146,0
DA:147,0
DA:148,0
DA:150,0
DA:151,0
DA:152,0
DA:164,33
DA:165,33
DA:167,3
DA:170,9
DA:173,1
DA:176,1
DA:179,1
DA:182,1
DA:185,1
DA:188,1
DA:191,1
DA:194,1
DA:197,1
DA:200,1
DA:203,1
DA:206,1
DA:209,2
DA:212,1
DA:215,1
DA:218,1
DA:221,1
DA:224,1
DA:227,1
DA:230,1
DA:233,33
DA:242,2036
DA:243,2036
DA:244,2036
DA:245,2036
DA:246,2036
DA:247,0
DA:248,0
DA:249,0
DA:250,0
DA:252,2036
DA:253,1599
DA:254,1599
DA:256,2036
DA:257,1949
DA:259,7
DA:260,7
DA:261,0
DA:262,0
DA:263,0
DA:266,7
DA:267,7
DA:268,0
DA:269,0
DA:270,0
DA:275,80
DA:276,80
DA:277,62
DA:278,62
DA:280,80
DA:281,80
DA:282,0
DA:283,0
DA:284,0
DA:287,80
DA:288,80
DA:289,0
DA:290,0
DA:291,0
DA:297,2036
DA:298,0
DA:299,0
DA:300,0
DA:301,0
DA:303,0
DA:305,0
DA:306,0
DA:309,0
DA:311,0
DA:312,0
DA:313,0
DA:315,0
DA:316,0
DA:320,2036
DA:321,2036
DA:323,0
DA:324,2036
DA:326,2036
DA:329,1150
DA:331,1150
DA:332,1150
DA:334,1150
DA:335,1150
DA:336,1150
DA:337,1150
DA:338,1150
DA:339,1150
DA:340,1150
DA:341,1150
DA:342,1150
DA:343,1150
DA:344,1150
DA:345,1150
DA:348,1150
DA:349,1150
DA:350,0
DA:351,0
DA:352,0
DA:353,0
DA:354,0
DA:355,0
DA:357,1150
DA:358,1150
DA:359,1150
DA:360,1150
DA:361,1150
DA:362,0
DA:364,0
DA:366,0
DA:370,1150
DA:371,43
DA:372,43
DA:373,43
DA:374,0
DA:375,0
DA:376,0
DA:378,0
DA:379,0
DA:382,1107
DA:385,1150
DA:386,1150
DA:387,322
DA:388,828
DA:389,1150
DA:390,49
DA:391,1101
DA:392,0
DA:395,1150
DA:396,5
DA:397,830
DA:398,17
DA:399,11
DA:400,287
DA:404,1150
DA:405,1150
DA:406,1150
DA:407,1150
DA:408,1150
DA:409,1150
DA:410,1150
DA:411,1150
DA:413,1101
DA:414,1101
DA:415,1101
DA:416,1101
DA:417,1101
DA:418,1101
DA:421,2
DA:422,2
DA:423,2
DA:424,2
DA:425,2
DA:426,2
DA:429,47
DA:430,47
DA:431,47
DA:432,47
DA:433,47
DA:434,47
DA:435,47
DA:439,1150
DA:441,1150
DA:442,1150
DA:443,0
DA:444,1150
DA:447,1150
DA:448,1150
DA:449,1150
DA:450,1150
DA:451,1150
DA:453,1877
DA:454,1877
DA:455,1877
DA:456,550
DA:459,550
DA:460,1
DA:461,1
DA:462,549
DA:463,549
DA:464,1327
DA:465,478
DA:467,478
DA:468,410
DA:469,410
DA:470,410
DA:472,410
DA:473,410
DA:474,410
DA:476,0
DA:477,0
DA:478,0
DA:482,0
DA:483,0
DA:484,0
DA:489,68
DA:490,68
DA:491,68
DA:492,1
DA:493,0
DA:494,1
DA:496,68
DA:497,67
DA:499,67
DA:500,1
DA:501,1
DA:503,66
DA:506,1
DA:507,1
DA:508,1
DA:513,849
DA:514,849
DA:517,1026
DA:518,5
DA:519,5
DA:520,1021
DA:522,1021
DA:523,1021
DA:524,0
DA:525,0
DA:526,0
DA:529,1870
DA:541,804
DA:543,804
DA:546,804
DA:547,0
DA:548,0
DA:551,804
DA:552,43
DA:554,0
DA:555,0
DA:557,43
DA:559,761
DA:563,804
DA:564,0
DA:565,804
DA:568,804
DA:569,804
DA:570,804
DA:571,804
DA:573,804
DA:574,804
DA:587,2
DA:588,2
DA:589,2
DA:590,2
DA:592,0
DA:593,0
DA:594,0
DA:595,0
DA:596,0
DA:598,0
DA:601,2
DA:617,23
DA:618,23
DA:619,22
DA:621,1
DA:622,1
DA:623,0
DA:624,0
DA:629,23
DA:645,23
DA:646,23
DA:648,23
DA:649,2
DA:652,21
DA:653,23
DA:673,12
DA:677,12
DA:678,11
DA:681,10
DA:682,10
DA:685,10
DA:686,10
DA:688,11
DA:689,11
DA:690,11
DA:691,0
DA:692,0
DA:693,0
DA:694,0
DA:695,0
DA:696,0
DA:697,0
DA:698,0
DA:699,0
DA:700,0
DA:701,0
DA:702,0
DA:705,10
DA:706,10
DA:707,12
BRF:0
BRH:0
LF:321
LH:223
end_of_record
SF:/Users/steve/repos/DSC/grammars/tree-sitter-dscexpression/bindings/rust/lib.rs
FN:45,_RNvNtCs4dfnNWtnFSo_25tree_sitter_dscexpression5testss_21test_can_load_grammar
FN:45,_RNvNtCs256CNBzK2SN_25tree_sitter_dscexpression5testss_21test_can_load_grammar
FNDA:1,_RNvNtCs4dfnNWtnFSo_25tree_sitter_dscexpression5testss_21test_can_load_grammar
FNDA:1,_RNvNtCs256CNBzK2SN_25tree_sitter_dscexpression5testss_21test_can_load_grammar
FNF:1
FNH:1
DA:45,2
DA:46,2
DA:47,2
DA:48,2
DA:49,2
DA:50,2
BRF:0
BRH:0
LF:6
LH:6
end_of_record
SF:/Users/steve/repos/DSC/grammars/tree-sitter-ssh-server-config/bindings/rust/lib.rs
FN:45,_RNvNtCsahYLnNWAsAT_29tree_sitter_ssh_server_config5testss_21test_can_load_grammar
FN:45,_RNvNtCs4LMvClocmae_29tree_sitter_ssh_server_config5testss_21test_can_load_grammar
FNDA:1,_RNvNtCsahYLnNWAsAT_29tree_sitter_ssh_server_config5testss_21test_can_load_grammar
FNDA:1,_RNvNtCs4LMvClocmae_29tree_sitter_ssh_server_config5testss_21test_can_load_grammar
FNF:1
FNH:1
DA:45,2
DA:46,2
DA:47,2
DA:48,2
DA:49,2
DA:50,2
BRF:0
BRH:0
LF:6
LH:6
end_of_record
SF:/Users/steve/repos/DSC/lib/dsc-lib-jsonschema-macros/src/ast/string_or_expr.rs
FN:19,_RNvXNtNtCsbc7qds5wLrP_25dsc_lib_jsonschema_macros3ast14string_or_exprNtB2_12StringOrExprNtNtCs1WmFoACHxcs_12darling_core9from_meta8FromMeta10from_value
FN:13,_RNvXNtNtCsbc7qds5wLrP_25dsc_lib_jsonschema_macros3ast14string_or_exprNtB2_12StringOrExprNtNtCs1WmFoACHxcs_12darling_core9from_meta8FromMeta9from_expr
FN:16,_RNvXNtNtCsbc7qds5wLrP_25dsc_lib_jsonschema_macros3ast14string_or_exprNtB2_12StringOrExprNtNtCs1WmFoACHxcs_12darling_core9from_meta8FromMeta11from_string
FN:28,_RNvXs_NtNtCsbc7qds5wLrP_25dsc_lib_jsonschema_macros3ast14string_or_exprNtB4_12StringOrExprNtNtCshNsOxw2ou3S_5quote9to_tokens8ToTokens9to_tokens
FN:19,_RNvXNtNtCskOzkOJzY6jh_25dsc_lib_jsonschema_macros3ast14string_or_exprNtB2_12StringOrExprNtNtCs1WmFoACHxcs_12darling_core9from_meta8FromMeta10from_value
FN:16,_RNvXNtNtCskOzkOJzY6jh_25dsc_lib_jsonschema_macros3ast14string_or_exprNtB2_12StringOrExprNtNtCs1WmFoACHxcs_12darling_core9from_meta8FromMeta11from_string
FN:13,_RNvXNtNtCskOzkOJzY6jh_25dsc_lib_jsonschema_macros3ast14string_or_exprNtB2_12StringOrExprNtNtCs1WmFoACHxcs_12darling_core9from_meta8FromMeta9from_expr
FN:28,_RNvXs_NtNtCskOzkOJzY6jh_25dsc_lib_jsonschema_macros3ast14string_or_exprNtB4_12StringOrExprNtNtCshNsOxw2ou3S_5quote9to_tokens8ToTokens9to_tokens
FN:19,_RNvXNtNtCs8Pq5dKfx6OS_25dsc_lib_jsonschema_macros3ast14string_or_exprNtB2_12StringOrExprNtNtCs1WmFoACHxcs_12darling_core9from_meta8FromMeta10from_value
FN:16,_RNvXNtNtCs8Pq5dKfx6OS_25dsc_lib_jsonschema_macros3ast14string_or_exprNtB2_12StringOrExprNtNtCs1WmFoACHxcs_12darling_core9from_meta8FromMeta11from_string
FN:13,_RNvXNtNtCs8Pq5dKfx6OS_25dsc_lib_jsonschema_macros3ast14string_or_exprNtB2_12StringOrExprNtNtCs1WmFoACHxcs_12darling_core9from_meta8FromMeta9from_expr
FN:28,_RNvXs_NtNtCs8Pq5dKfx6OS_25dsc_lib_jsonschema_macros3ast14string_or_exprNtB4_12StringOrExprNtNtCshNsOxw2ou3S_5quote9to_tokens8ToTokens9to_tokens
FNDA:2,_RNvXNtNtCsbc7qds5wLrP_25dsc_lib_jsonschema_macros3ast14string_or_exprNtB2_12StringOrExprNtNtCs1WmFoACHxcs_12darling_core9from_meta8FromMeta10from_value
FNDA:4,_RNvXNtNtCsbc7qds5wLrP_25dsc_lib_jsonschema_macros3ast14string_or_exprNtB2_12StringOrExprNtNtCs1WmFoACHxcs_12darling_core9from_meta8FromMeta9from_expr
FNDA:0,_RNvXNtNtCsbc7qds5wLrP_25dsc_lib_jsonschema_macros3ast14string_or_exprNtB2_12StringOrExprNtNtCs1WmFoACHxcs_12darling_core9from_meta8FromMeta11from_string
FNDA:0,_RNvXs_NtNtCsbc7qds5wLrP_25dsc_lib_jsonschema_macros3ast14string_or_exprNtB4_12StringOrExprNtNtCshNsOxw2ou3S_5quote9to_tokens8ToTokens9to_tokens
FNDA:0,_RNvXNtNtCskOzkOJzY6jh_25dsc_lib_jsonschema_macros3ast14string_or_exprNtB2_12StringOrExprNtNtCs1WmFoACHxcs_12darling_core9from_meta8FromMeta10from_value
FNDA:0,_RNvXNtNtCskOzkOJzY6jh_25dsc_lib_jsonschema_macros3ast14string_or_exprNtB2_12StringOrExprNtNtCs1WmFoACHxcs_12darling_core9from_meta8FromMeta11from_string
FNDA:96,_RNvXNtNtCskOzkOJzY6jh_25dsc_lib_jsonschema_macros3ast14string_or_exprNtB2_12StringOrExprNtNtCs1WmFoACHxcs_12darling_core9from_meta8FromMeta9from_expr
FNDA:96,_RNvXs_NtNtCskOzkOJzY6jh_25dsc_lib_jsonschema_macros3ast14string_or_exprNtB4_12StringOrExprNtNtCshNsOxw2ou3S_5quote9to_tokens8ToTokens9to_tokens
FNDA:0,_RNvXNtNtCs8Pq5dKfx6OS_25dsc_lib_jsonschema_macros3ast14string_or_exprNtB2_12StringOrExprNtNtCs1WmFoACHxcs_12darling_core9from_meta8FromMeta10from_value
FNDA:0,_RNvXNtNtCs8Pq5dKfx6OS_25dsc_lib_jsonschema_macros3ast14string_or_exprNtB2_12StringOrExprNtNtCs1WmFoACHxcs_12darling_core9from_meta8FromMeta11from_string
FNDA:40,_RNvXNtNtCs8Pq5dKfx6OS_25dsc_lib_jsonschema_macros3ast14string_or_exprNtB2_12StringOrExprNtNtCs1WmFoACHxcs_12darling_core9from_meta8FromMeta9from_expr
FNDA:40,_RNvXs_NtNtCs8Pq5dKfx6OS_25dsc_lib_jsonschema_macros3ast14string_or_exprNtB4_12StringOrExprNtNtCshNsOxw2ou3S_5quote9to_tokens8ToTokens9to_tokens
FNF:4
FNH:3
DA:13,140
DA:14,140
DA:15,140
DA:16,0
DA:17,0
DA:18,0
DA:19,2
DA:20,2
DA:21,2
DA:22,0
DA:24,2
DA:28,136
DA:29,136
DA:30,136
DA:31,0
DA:33,136
BRF:0
BRH:0
LF:16
LH:11
end_of_record
SF:/Users/steve/repos/DSC/lib/dsc-lib-jsonschema-macros/src/derive/dsc_repo_schema.rs
FN:53,_RNvNtNtCsbc7qds5wLrP_25dsc_lib_jsonschema_macros6derive15dsc_repo_schema20dsc_repo_schema_impl
FN:197,_RNvNtNtCsbc7qds5wLrP_25dsc_lib_jsonschema_macros6derive15dsc_repo_schema23generate_schema_i18n_fn
FN:133,_RNvNtNtCsbc7qds5wLrP_25dsc_lib_jsonschema_macros6derive15dsc_repo_schema26generate_with_schema_field
FN:102,_RNvNtNtCsbc7qds5wLrP_25dsc_lib_jsonschema_macros6derive15dsc_repo_schema29generate_without_schema_field
FN:172,_RNvNtNtCsbc7qds5wLrP_25dsc_lib_jsonschema_macros6derive15dsc_repo_schema36generate_schema_property_metadata_fn
FN:53,_RNvNtNtCskOzkOJzY6jh_25dsc_lib_jsonschema_macros6derive15dsc_repo_schema20dsc_repo_schema_impl
FN:197,_RNvNtNtCskOzkOJzY6jh_25dsc_lib_jsonschema_macros6derive15dsc_repo_schema23generate_schema_i18n_fn
FN:133,_RNvNtNtCskOzkOJzY6jh_25dsc_lib_jsonschema_macros6derive15dsc_repo_schema26generate_with_schema_field
FN:102,_RNvNtNtCskOzkOJzY6jh_25dsc_lib_jsonschema_macros6derive15dsc_repo_schema29generate_without_schema_field
FN:172,_RNvNtNtCskOzkOJzY6jh_25dsc_lib_jsonschema_macros6derive15dsc_repo_schema36generate_schema_property_metadata_fn
FN:53,_RNvNtNtCs8Pq5dKfx6OS_25dsc_lib_jsonschema_macros6derive15dsc_repo_schema20dsc_repo_schema_impl
FN:197,_RNvNtNtCs8Pq5dKfx6OS_25dsc_lib_jsonschema_macros6derive15dsc_repo_schema23generate_schema_i18n_fn
FN:133,_RNvNtNtCs8Pq5dKfx6OS_25dsc_lib_jsonschema_macros6derive15dsc_repo_schema26generate_with_schema_field
FN:102,_RNvNtNtCs8Pq5dKfx6OS_25dsc_lib_jsonschema_macros6derive15dsc_repo_schema29generate_without_schema_field
FN:172,_RNvNtNtCs8Pq5dKfx6OS_25dsc_lib_jsonschema_macros6derive15dsc_repo_schema36generate_schema_property_metadata_fn
FNDA:0,_RNvNtNtCsbc7qds5wLrP_25dsc_lib_jsonschema_macros6derive15dsc_repo_schema20dsc_repo_schema_impl
FNDA:0,_RNvNtNtCsbc7qds5wLrP_25dsc_lib_jsonschema_macros6derive15dsc_repo_schema23generate_schema_i18n_fn
FNDA:0,_RNvNtNtCsbc7qds5wLrP_25dsc_lib_jsonschema_macros6derive15dsc_repo_schema26generate_with_schema_field
FNDA:0,_RNvNtNtCsbc7qds5wLrP_25dsc_lib_jsonschema_macros6derive15dsc_repo_schema29generate_without_schema_field
FNDA:0,_RNvNtNtCsbc7qds5wLrP_25dsc_lib_jsonschema_macros6derive15dsc_repo_schema36generate_schema_property_metadata_fn
FNDA:912,_RNvNtNtCskOzkOJzY6jh_25dsc_lib_jsonschema_macros6derive15dsc_repo_schema20dsc_repo_schema_impl
FNDA:912,_RNvNtNtCskOzkOJzY6jh_25dsc_lib_jsonschema_macros6derive15dsc_repo_schema23generate_schema_i18n_fn
FNDA:48,_RNvNtNtCskOzkOJzY6jh_25dsc_lib_jsonschema_macros6derive15dsc_repo_schema26generate_with_schema_field
FNDA:864,_RNvNtNtCskOzkOJzY6jh_25dsc_lib_jsonschema_macros6derive15dsc_repo_schema29generate_without_schema_field
FNDA:48,_RNvNtNtCskOzkOJzY6jh_25dsc_lib_jsonschema_macros6derive15dsc_repo_schema36generate_schema_property_metadata_fn
FNDA:314,_RNvNtNtCs8Pq5dKfx6OS_25dsc_lib_jsonschema_macros6derive15dsc_repo_schema20dsc_repo_schema_impl
FNDA:314,_RNvNtNtCs8Pq5dKfx6OS_25dsc_lib_jsonschema_macros6derive15dsc_repo_schema23generate_schema_i18n_fn
FNDA:20,_RNvNtNtCs8Pq5dKfx6OS_25dsc_lib_jsonschema_macros6derive15dsc_repo_schema26generate_with_schema_field
FNDA:294,_RNvNtNtCs8Pq5dKfx6OS_25dsc_lib_jsonschema_macros6derive15dsc_repo_schema29generate_without_schema_field
FNDA:20,_RNvNtNtCs8Pq5dKfx6OS_25dsc_lib_jsonschema_macros6derive15dsc_repo_schema36generate_schema_property_metadata_fn
FNF:5
FNH:5
DA:53,1226
DA:55,1226
DA:58,1226
DA:61,1226
DA:62,1226
DA:63,0
DA:65,0
DA:69,1226
DA:71,1226
DA:75,1226
DA:77,1226
DA:78,68
DA:79,68
DA:80,68
DA:81,68
DA:82,68
DA:83,68
DA:84,68
DA:85,68
DA:86,1158
DA:87,1158
DA:88,1158
DA:89,1158
DA:90,1158
DA:91,1158
DA:92,1158
DA:93,1158
DA:94,1158
DA:96,1226
DA:97,1226
DA:102,1158
DA:103,1158
DA:104,1158
DA:105,1158
DA:106,1158
DA:107,1158
DA:108,1158
DA:109,1158
DA:110,1158
DA:125,1158
DA:133,68
DA:134,68
DA:135,68
DA:136,68
DA:137,68
DA:138,68
DA:139,68
DA:140,68
DA:141,68
DA:142,68
DA:143,68
DA:144,68
DA:168,68
DA:172,68
DA:173,68
DA:174,68
DA:176,68
DA:177,68
DA:178,68
DA:179,68
DA:180,68
DA:181,68
DA:182,68
DA:183,0
DA:184,68
DA:186,68
DA:193,68
DA:197,1226
DA:198,1226
DA:208,1226
BRF:0
BRH:0
LF:70
LH:67
end_of_record
SF:/Users/steve/repos/DSC/lib/dsc-lib-jsonschema-macros/src/lib.rs
FN:107,_RNvCsbc7qds5wLrP_25dsc_lib_jsonschema_macros27derive_into_dsc_repo_schema
FN:107,_RNvCskOzkOJzY6jh_25dsc_lib_jsonschema_macros27derive_into_dsc_repo_schema
FN:107,_RNvCs8Pq5dKfx6OS_25dsc_lib_jsonschema_macros27derive_into_dsc_repo_schema
FNDA:0,_RNvCsbc7qds5wLrP_25dsc_lib_jsonschema_macros27derive_into_dsc_repo_schema
FNDA:912,_RNvCskOzkOJzY6jh_25dsc_lib_jsonschema_macros27derive_into_dsc_repo_schema
FNDA:314,_RNvCs8Pq5dKfx6OS_25dsc_lib_jsonschema_macros27derive_into_dsc_repo_schema
FNF:1
FNH:1
DA:107,1226
DA:108,1226
DA:109,1226
BRF:0
BRH:0
LF:3
LH:3
end_of_record
SF:/Users/steve/repos/DSC/lib/dsc-lib-jsonschema-macros/src/test/ast/string_or_expr.rs
FN:15,_RNvNtNtNtCsbc7qds5wLrP_25dsc_lib_jsonschema_macros4test3ast14string_or_exprs_12test_expr_fn
FN:22,_RNvNtNtNtCsbc7qds5wLrP_25dsc_lib_jsonschema_macros4test3ast14string_or_exprs_15test_expr_macro
FN:8,_RNvNtNtNtCsbc7qds5wLrP_25dsc_lib_jsonschema_macros4test3ast14string_or_exprs_19test_string_literal
FNDA:2,_RNvNtNtNtCsbc7qds5wLrP_25dsc_lib_jsonschema_macros4test3ast14string_or_exprs_12test_expr_fn
FNDA:2,_RNvNtNtNtCsbc7qds5wLrP_25dsc_lib_jsonschema_macros4test3ast14string_or_exprs_15test_expr_macro
FNDA:2,_RNvNtNtNtCsbc7qds5wLrP_25dsc_lib_jsonschema_macros4test3ast14string_or_exprs_19test_string_literal
FNF:3
FNH:3
DA:8,2
DA:9,2
DA:10,2
DA:12,2
DA:13,2
DA:15,2
DA:16,2
DA:17,2
DA:19,2
DA:20,2
DA:22,2
DA:23,2
DA:24,2
DA:26,2
DA:27,2
BRF:0
BRH:0
LF:15
LH:15
end_of_record
SF:/Users/steve/repos/DSC/lib/dsc-lib-jsonschema/src/dsc_repo/dsc_repo_schema.rs
FN:284,_RNvYNtNtNtCsli4Jnfrlqm4_7dsc_lib12dscresources17resource_manifest16ResourceManifestNtNtNtCse9HBjRuE3ke_18dsc_lib_jsonschema8dsc_repo15dsc_repo_schema13DscRepoSchema22recognized_schema_urisB8_
FN:311,_RNvYNtNtNtCsli4Jnfrlqm4_7dsc_lib12dscresources17resource_manifest16ResourceManifestNtNtNtCse9HBjRuE3ke_18dsc_lib_jsonschema8dsc_repo15dsc_repo_schema13DscRepoSchema24is_recognized_schema_uriB8_
FN:300,_RNvYNtNtNtCsli4Jnfrlqm4_7dsc_lib12dscresources17resource_manifest16ResourceManifestNtNtNtCse9HBjRuE3ke_18dsc_lib_jsonschema8dsc_repo15dsc_repo_schema13DscRepoSchema32recognized_schema_uris_subschemaB8_
FN:284,_RNvYNtNtNtCsli4Jnfrlqm4_7dsc_lib12dscresources25adapted_resource_manifest26AdaptedDscResourceManifestNtNtNtCse9HBjRuE3ke_18dsc_lib_jsonschema8dsc_repo15dsc_repo_schema13DscRepoSchema22recognized_schema_urisB8_
FN:311,_RNvYNtNtNtCsli4Jnfrlqm4_7dsc_lib12dscresources25adapted_resource_manifest26AdaptedDscResourceManifestNtNtNtCse9HBjRuE3ke_18dsc_lib_jsonschema8dsc_repo15dsc_repo_schema13DscRepoSchema24is_recognized_schema_uriB8_
FN:70,_RNvYNtNtNtCsli4Jnfrlqm4_7dsc_lib5types14exit_codes_map12ExitCodesMapNtNtNtCse9HBjRuE3ke_18dsc_lib_jsonschema8dsc_repo15dsc_repo_schema13DscRepoSchema21default_schema_id_uriB8_
FN:70,_RNvYNtNtNtCsli4Jnfrlqm4_7dsc_lib5types12date_version11DateVersionNtNtNtCse9HBjRuE3ke_18dsc_lib_jsonschema8dsc_repo15dsc_repo_schema13DscRepoSchema21default_schema_id_uriB8_
FN:284,_RNvYNtNtNtCsli4Jnfrlqm4_7dsc_lib10extensions18extension_manifest17ExtensionManifestNtNtNtCse9HBjRuE3ke_18dsc_lib_jsonschema8dsc_repo15dsc_repo_schema13DscRepoSchema22recognized_schema_urisB8_
FN:311,_RNvYNtNtNtCsli4Jnfrlqm4_7dsc_lib10extensions18extension_manifest17ExtensionManifestNtNtNtCse9HBjRuE3ke_18dsc_lib_jsonschema8dsc_repo15dsc_repo_schema13DscRepoSchema24is_recognized_schema_uriB8_
FN:300,_RNvYNtNtNtCsli4Jnfrlqm4_7dsc_lib10extensions18extension_manifest17ExtensionManifestNtNtNtCse9HBjRuE3ke_18dsc_lib_jsonschema8dsc_repo15dsc_repo_schema13DscRepoSchema32recognized_schema_uris_subschemaB8_
FN:70,_RNvYNtNtNtCsli4Jnfrlqm4_7dsc_lib9configure10config_doc13ConfigurationNtNtNtCse9HBjRuE3ke_18dsc_lib_jsonschema8dsc_repo15dsc_repo_schema13DscRepoSchema21default_schema_id_uriB8_
FN:284,_RNvYNtNtNtCsli4Jnfrlqm4_7dsc_lib9configure10config_doc13ConfigurationNtNtNtCse9HBjRuE3ke_18dsc_lib_jsonschema8dsc_repo15dsc_repo_schema13DscRepoSchema22recognized_schema_urisB8_
FN:311,_RNvYNtNtNtCsli4Jnfrlqm4_7dsc_lib9configure10config_doc13ConfigurationNtNtNtCse9HBjRuE3ke_18dsc_lib_jsonschema8dsc_repo15dsc_repo_schema13DscRepoSchema24is_recognized_schema_uriB8_
FN:300,_RNvYNtNtNtCsli4Jnfrlqm4_7dsc_lib9configure10config_doc13ConfigurationNtNtNtCse9HBjRuE3ke_18dsc_lib_jsonschema8dsc_repo15dsc_repo_schema13DscRepoSchema32recognized_schema_uris_subschemaB8_
FN:70,_RNvYNtNtNtCsli4Jnfrlqm4_7dsc_lib5types16semantic_version15SemanticVersionNtNtNtCse9HBjRuE3ke_18dsc_lib_jsonschema8dsc_repo15dsc_repo_schema13DscRepoSchema21default_schema_id_uriB8_
FN:70,_RNvYNtNtNtCsli4Jnfrlqm4_7dsc_lib5types20semantic_version_req18SemanticVersionReqNtNtNtCse9HBjRuE3ke_18dsc_lib_jsonschema8dsc_repo15dsc_repo_schema13DscRepoSchema21default_schema_id_uriB8_
FN:70,_RNvYNtNtNtCs5ZHd1N2lPnJ_7dsc_lib5types20semantic_version_req18SemanticVersionReqNtNtNtCs1p6hG0j9t4b_18dsc_lib_jsonschema8dsc_repo15dsc_repo_schema13DscRepoSchema21default_schema_id_uriB8_
FN:284,_RNvYNtNtNtCs5ZHd1N2lPnJ_7dsc_lib12dscresources17resource_manifest16ResourceManifestNtNtNtCs1p6hG0j9t4b_18dsc_lib_jsonschema8dsc_repo15dsc_repo_schema13DscRepoSchema22recognized_schema_urisB8_
FN:311,_RNvYNtNtNtCs5ZHd1N2lPnJ_7dsc_lib12dscresources17resource_manifest16ResourceManifestNtNtNtCs1p6hG0j9t4b_18dsc_lib_jsonschema8dsc_repo15dsc_repo_schema13DscRepoSchema24is_recognized_schema_uriB8_
FN:300,_RNvYNtNtNtCs5ZHd1N2lPnJ_7dsc_lib12dscresources17resource_manifest16ResourceManifestNtNtNtCs1p6hG0j9t4b_18dsc_lib_jsonschema8dsc_repo15dsc_repo_schema13DscRepoSchema32recognized_schema_uris_subschemaB8_
FN:70,_RNvYNtNtNtCs5ZHd1N2lPnJ_7dsc_lib5types12date_version11DateVersionNtNtNtCs1p6hG0j9t4b_18dsc_lib_jsonschema8dsc_repo15dsc_repo_schema13DscRepoSchema21default_schema_id_uriB8_
FN:284,_RNvYNtNtNtCs5ZHd1N2lPnJ_7dsc_lib10extensions18extension_manifest17ExtensionManifestNtNtNtCs1p6hG0j9t4b_18dsc_lib_jsonschema8dsc_repo15dsc_repo_schema13DscRepoSchema22recognized_schema_urisB8_
FN:311,_RNvYNtNtNtCs5ZHd1N2lPnJ_7dsc_lib10extensions18extension_manifest17ExtensionManifestNtNtNtCs1p6hG0j9t4b_18dsc_lib_jsonschema8dsc_repo15dsc_repo_schema13DscRepoSchema24is_recognized_schema_uriB8_
FN:300,_RNvYNtNtNtCs5ZHd1N2lPnJ_7dsc_lib10extensions18extension_manifest17ExtensionManifestNtNtNtCs1p6hG0j9t4b_18dsc_lib_jsonschema8dsc_repo15dsc_repo_schema13DscRepoSchema32recognized_schema_uris_subschemaB8_
FN:70,_RNvYNtNtNtCs5ZHd1N2lPnJ_7dsc_lib5types14exit_codes_map12ExitCodesMapNtNtNtCs1p6hG0j9t4b_18dsc_lib_jsonschema8dsc_repo15dsc_repo_schema13DscRepoSchema21default_schema_id_uriB8_
FN:70,_RNvYNtNtNtCs5ZHd1N2lPnJ_7dsc_lib5types16semantic_version15SemanticVersionNtNtNtCs1p6hG0j9t4b_18dsc_lib_jsonschema8dsc_repo15dsc_repo_schema13DscRepoSchema21default_schema_id_uriB8_
FN:70,_RNvYNtNtNtCs5ZHd1N2lPnJ_7dsc_lib9configure10config_doc13ConfigurationNtNtNtCs1p6hG0j9t4b_18dsc_lib_jsonschema8dsc_repo15dsc_repo_schema13DscRepoSchema21default_schema_id_uriB8_
FN:284,_RNvYNtNtNtCs5ZHd1N2lPnJ_7dsc_lib9configure10config_doc13ConfigurationNtNtNtCs1p6hG0j9t4b_18dsc_lib_jsonschema8dsc_repo15dsc_repo_schema13DscRepoSchema22recognized_schema_urisB8_
FN:311,_RNvYNtNtNtCs5ZHd1N2lPnJ_7dsc_lib9configure10config_doc13ConfigurationNtNtNtCs1p6hG0j9t4b_18dsc_lib_jsonschema8dsc_repo15dsc_repo_schema13DscRepoSchema24is_recognized_schema_uriB8_
FN:300,_RNvYNtNtNtCs5ZHd1N2lPnJ_7dsc_lib9configure10config_doc13ConfigurationNtNtNtCs1p6hG0j9t4b_18dsc_lib_jsonschema8dsc_repo15dsc_repo_schema13DscRepoSchema32recognized_schema_uris_subschemaB8_
FN:284,_RNvYNtNtNtCs5ZHd1N2lPnJ_7dsc_lib12dscresources25adapted_resource_manifest26AdaptedDscResourceManifestNtNtNtCs1p6hG0j9t4b_18dsc_lib_jsonschema8dsc_repo15dsc_repo_schema13DscRepoSchema22recognized_schema_urisB8_
FN:311,_RNvYNtNtNtCs5ZHd1N2lPnJ_7dsc_lib12dscresources25adapted_resource_manifest26AdaptedDscResourceManifestNtNtNtCs1p6hG0j9t4b_18dsc_lib_jsonschema8dsc_repo15dsc_repo_schema13DscRepoSchema24is_recognized_schema_uriB8_
FN:70,_RNvYNtNtNtCs44ofPrmD4bY_7dsc_lib12dscresources17resource_manifest16ResourceManifestNtNtNtCs1p6hG0j9t4b_18dsc_lib_jsonschema8dsc_repo15dsc_repo_schema13DscRepoSchema21default_schema_id_uriB8_
FN:284,_RNvYNtNtNtCs44ofPrmD4bY_7dsc_lib12dscresources17resource_manifest16ResourceManifestNtNtNtCs1p6hG0j9t4b_18dsc_lib_jsonschema8dsc_repo15dsc_repo_schema13DscRepoSchema22recognized_schema_urisB8_
FN:311,_RNvYNtNtNtCs44ofPrmD4bY_7dsc_lib12dscresources17resource_manifest16ResourceManifestNtNtNtCs1p6hG0j9t4b_18dsc_lib_jsonschema8dsc_repo15dsc_repo_schema13DscRepoSchema24is_recognized_schema_uriB8_
FN:70,_RNvYNtNtNtCs44ofPrmD4bY_7dsc_lib10extensions18extension_manifest17ExtensionManifestNtNtNtCs1p6hG0j9t4b_18dsc_lib_jsonschema8dsc_repo15dsc_repo_schema13DscRepoSchema21default_schema_id_uriB8_
FN:284,_RNvYNtNtNtCs44ofPrmD4bY_7dsc_lib10extensions18extension_manifest17ExtensionManifestNtNtNtCs1p6hG0j9t4b_18dsc_lib_jsonschema8dsc_repo15dsc_repo_schema13DscRepoSchema22recognized_schema_urisB8_
FN:311,_RNvYNtNtNtCs44ofPrmD4bY_7dsc_lib10extensions18extension_manifest17ExtensionManifestNtNtNtCs1p6hG0j9t4b_18dsc_lib_jsonschema8dsc_repo15dsc_repo_schema13DscRepoSchema24is_recognized_schema_uriB8_
FN:70,_RNvYNtNtNtCs44ofPrmD4bY_7dsc_lib9configure10config_doc13ConfigurationNtNtNtCs1p6hG0j9t4b_18dsc_lib_jsonschema8dsc_repo15dsc_repo_schema13DscRepoSchema21default_schema_id_uriB8_
FN:284,_RNvYNtNtNtCs44ofPrmD4bY_7dsc_lib9configure10config_doc13ConfigurationNtNtNtCs1p6hG0j9t4b_18dsc_lib_jsonschema8dsc_repo15dsc_repo_schema13DscRepoSchema22recognized_schema_urisB8_
FN:311,_RNvYNtNtNtCs44ofPrmD4bY_7dsc_lib9configure10config_doc13ConfigurationNtNtNtCs1p6hG0j9t4b_18dsc_lib_jsonschema8dsc_repo15dsc_repo_schema13DscRepoSchema24is_recognized_schema_uriB8_
FN:70,_RNvYNtNtNtCsi1wDpkj0Hb3_7dsc_lib10extensions18extension_manifest17ExtensionManifestNtNtNtCse9HBjRuE3ke_18dsc_lib_jsonschema8dsc_repo15dsc_repo_schema13DscRepoSchema21default_schema_id_uriB8_
FN:284,_RNvYNtNtNtCsi1wDpkj0Hb3_7dsc_lib10extensions18extension_manifest17ExtensionManifestNtNtNtCse9HBjRuE3ke_18dsc_lib_jsonschema8dsc_repo15dsc_repo_schema13DscRepoSchema22recognized_schema_urisB8_
FN:311,_RNvYNtNtNtCsi1wDpkj0Hb3_7dsc_lib10extensions18extension_manifest17ExtensionManifestNtNtNtCse9HBjRuE3ke_18dsc_lib_jsonschema8dsc_repo15dsc_repo_schema13DscRepoSchema24is_recognized_schema_uriB8_
FN:70,_RNvYNtNtNtCsi1wDpkj0Hb3_7dsc_lib9configure10config_doc13ConfigurationNtNtNtCse9HBjRuE3ke_18dsc_lib_jsonschema8dsc_repo15dsc_repo_schema13DscRepoSchema21default_schema_id_uriB8_
FN:284,_RNvYNtNtNtCsi1wDpkj0Hb3_7dsc_lib9configure10config_doc13ConfigurationNtNtNtCse9HBjRuE3ke_18dsc_lib_jsonschema8dsc_repo15dsc_repo_schema13DscRepoSchema22recognized_schema_urisB8_
FN:311,_RNvYNtNtNtCsi1wDpkj0Hb3_7dsc_lib9configure10config_doc13ConfigurationNtNtNtCse9HBjRuE3ke_18dsc_lib_jsonschema8dsc_repo15dsc_repo_schema13DscRepoSchema24is_recognized_schema_uriB8_
FN:70,_RNvYNtNtNtCsi1wDpkj0Hb3_7dsc_lib12dscresources17resource_manifest16ResourceManifestNtNtNtCse9HBjRuE3ke_18dsc_lib_jsonschema8dsc_repo15dsc_repo_schema13DscRepoSchema21default_schema_id_uriB8_
FN:284,_RNvYNtNtNtCsi1wDpkj0Hb3_7dsc_lib12dscresources17resource_manifest16ResourceManifestNtNtNtCse9HBjRuE3ke_18dsc_lib_jsonschema8dsc_repo15dsc_repo_schema13DscRepoSchema22recognized_schema_urisB8_
FN:311,_RNvYNtNtNtCsi1wDpkj0Hb3_7dsc_lib12dscresources17resource_manifest16ResourceManifestNtNtNtCse9HBjRuE3ke_18dsc_lib_jsonschema8dsc_repo15dsc_repo_schema13DscRepoSchema24is_recognized_schema_uriB8_
FN:117,_RNvYpNtNtNtCs6DmBUIV3MEM_18dsc_lib_jsonschema8dsc_repo15dsc_repo_schema13DscRepoSchema15generate_schemaB9_
FN:154,_RNvYpNtNtNtCs6DmBUIV3MEM_18dsc_lib_jsonschema8dsc_repo15dsc_repo_schema13DscRepoSchema17get_schema_id_uriB9_
FN:169,_RNvYpNtNtNtCs6DmBUIV3MEM_18dsc_lib_jsonschema8dsc_repo15dsc_repo_schema13DscRepoSchema17set_schema_id_uriB9_
FN:331,_RNvYpNtNtNtCs6DmBUIV3MEM_18dsc_lib_jsonschema8dsc_repo15dsc_repo_schema13DscRepoSchema19validate_schema_uriB9_
FN:342,_RNvYpNtNtNtCs6DmBUIV3MEM_18dsc_lib_jsonschema8dsc_repo15dsc_repo_schema13DscRepoSchema22get_valid_schema_formsB9_
FN:284,_RNvYpNtNtNtCs6DmBUIV3MEM_18dsc_lib_jsonschema8dsc_repo15dsc_repo_schema13DscRepoSchema22recognized_schema_urisB9_
FN:180,_RNvYpNtNtNtCs6DmBUIV3MEM_18dsc_lib_jsonschema8dsc_repo15dsc_repo_schema13DscRepoSchema24get_schema_relative_pathB9_
FN:311,_RNvYpNtNtNtCs6DmBUIV3MEM_18dsc_lib_jsonschema8dsc_repo15dsc_repo_schema13DscRepoSchema24is_recognized_schema_uriB9_
FN:272,_RNvYpNtNtNtCs6DmBUIV3MEM_18dsc_lib_jsonschema8dsc_repo15dsc_repo_schema13DscRepoSchema25set_bundled_schema_id_uriB9_
FN:108,_RNvYpNtNtNtCs6DmBUIV3MEM_18dsc_lib_jsonschema8dsc_repo15dsc_repo_schema13DscRepoSchema26generate_exportable_schemaB9_
FN:228,_RNvYpNtNtNtCs6DmBUIV3MEM_18dsc_lib_jsonschema8dsc_repo15dsc_repo_schema13DscRepoSchema26set_enhanced_schema_id_uriB9_
FN:249,_RNvYpNtNtNtCs6DmBUIV3MEM_18dsc_lib_jsonschema8dsc_repo15dsc_repo_schema13DscRepoSchema27set_canonical_schema_id_uriB9_
FN:88,_RNvYpNtNtNtCs6DmBUIV3MEM_18dsc_lib_jsonschema8dsc_repo15dsc_repo_schema13DscRepoSchema28default_export_schema_id_uriB9_
FN:101,_RNvYpNtNtNtCs6DmBUIV3MEM_18dsc_lib_jsonschema8dsc_repo15dsc_repo_schema13DscRepoSchema30default_export_meta_schema_uriB9_
FN:300,_RNvYpNtNtNtCs6DmBUIV3MEM_18dsc_lib_jsonschema8dsc_repo15dsc_repo_schema13DscRepoSchema32recognized_schema_uris_subschemaB9_
FN:70,_RNvYNtNvNtNtCs6DmBUIV3MEM_18dsc_lib_jsonschema5tests8dsc_repos_28test_dsc_repo_schema_bundled20ExampleBundledSchemaNtNtNtBa_8dsc_repo15dsc_repo_schema13DscRepoSchema21default_schema_id_uriBa_
FN:256,_RNvYNtNvNtNtCs6DmBUIV3MEM_18dsc_lib_jsonschema5tests8dsc_repos_28test_dsc_repo_schema_bundled20ExampleBundledSchemaNtNtNtBa_8dsc_repo15dsc_repo_schema13DscRepoSchema25get_bundled_schema_id_uriBa_
FN:212,_RNvYNtNvNtNtCs6DmBUIV3MEM_18dsc_lib_jsonschema5tests8dsc_repos_28test_dsc_repo_schema_bundled20ExampleBundledSchemaNtNtNtBa_8dsc_repo15dsc_repo_schema13DscRepoSchema26get_enhanced_schema_id_uriBa_
FN:237,_RNvYNtNvNtNtCs6DmBUIV3MEM_18dsc_lib_jsonschema5tests8dsc_repos_28test_dsc_repo_schema_bundled20ExampleBundledSchemaNtNtNtBa_8dsc_repo15dsc_repo_schema13DscRepoSchema27get_canonical_schema_id_uriBa_
FN:70,_RNvYNtNvNtNtCs6DmBUIV3MEM_18dsc_lib_jsonschema5tests8dsc_repos_32test_dsc_repo_schema_not_bundled23ExampleNotBundledSchemaNtNtNtBa_8dsc_repo15dsc_repo_schema13DscRepoSchema21default_schema_id_uriBa_
FN:256,_RNvYNtNvNtNtCs6DmBUIV3MEM_18dsc_lib_jsonschema5tests8dsc_repos_32test_dsc_repo_schema_not_bundled23ExampleNotBundledSchemaNtNtNtBa_8dsc_repo15dsc_repo_schema13DscRepoSchema25get_bundled_schema_id_uriBa_
FN:212,_RNvYNtNvNtNtCs6DmBUIV3MEM_18dsc_lib_jsonschema5tests8dsc_repos_32test_dsc_repo_schema_not_bundled23ExampleNotBundledSchemaNtNtNtBa_8dsc_repo15dsc_repo_schema13DscRepoSchema26get_enhanced_schema_id_uriBa_
FN:237,_RNvYNtNvNtNtCs6DmBUIV3MEM_18dsc_lib_jsonschema5tests8dsc_repos_32test_dsc_repo_schema_not_bundled23ExampleNotBundledSchemaNtNtNtBa_8dsc_repo15dsc_repo_schema13DscRepoSchema27get_canonical_schema_id_uriBa_
FN:70,_RNvYNtNvNtNtCs92r3DgzGcjh_18dsc_lib_jsonschema5tests8dsc_repos_28test_dsc_repo_schema_bundled20ExampleBundledSchemaNtNtNtBa_8dsc_repo15dsc_repo_schema13DscRepoSchema21default_schema_id_uriBa_
FN:256,_RNvYNtNvNtNtCs92r3DgzGcjh_18dsc_lib_jsonschema5tests8dsc_repos_28test_dsc_repo_schema_bundled20ExampleBundledSchemaNtNtNtBa_8dsc_repo15dsc_repo_schema13DscRepoSchema25get_bundled_schema_id_uriBa_
FN:212,_RNvYNtNvNtNtCs92r3DgzGcjh_18dsc_lib_jsonschema5tests8dsc_repos_28test_dsc_repo_schema_bundled20ExampleBundledSchemaNtNtNtBa_8dsc_repo15dsc_repo_schema13DscRepoSchema26get_enhanced_schema_id_uriBa_
FN:237,_RNvYNtNvNtNtCs92r3DgzGcjh_18dsc_lib_jsonschema5tests8dsc_repos_28test_dsc_repo_schema_bundled20ExampleBundledSchemaNtNtNtBa_8dsc_repo15dsc_repo_schema13DscRepoSchema27get_canonical_schema_id_uriBa_
FN:70,_RNvYNtNvNtNtCs92r3DgzGcjh_18dsc_lib_jsonschema5tests8dsc_repos_32test_dsc_repo_schema_not_bundled23ExampleNotBundledSchemaNtNtNtBa_8dsc_repo15dsc_repo_schema13DscRepoSchema21default_schema_id_uriBa_
FN:256,_RNvYNtNvNtNtCs92r3DgzGcjh_18dsc_lib_jsonschema5tests8dsc_repos_32test_dsc_repo_schema_not_bundled23ExampleNotBundledSchemaNtNtNtBa_8dsc_repo15dsc_repo_schema13DscRepoSchema25get_bundled_schema_id_uriBa_
FN:212,_RNvYNtNvNtNtCs92r3DgzGcjh_18dsc_lib_jsonschema5tests8dsc_repos_32test_dsc_repo_schema_not_bundled23ExampleNotBundledSchemaNtNtNtBa_8dsc_repo15dsc_repo_schema13DscRepoSchema26get_enhanced_schema_id_uriBa_
FN:237,_RNvYNtNvNtNtCs92r3DgzGcjh_18dsc_lib_jsonschema5tests8dsc_repos_32test_dsc_repo_schema_not_bundled23ExampleNotBundledSchemaNtNtNtBa_8dsc_repo15dsc_repo_schema13DscRepoSchema27get_canonical_schema_id_uriBa_
FN:117,_RNvYpNtNtNtCs92r3DgzGcjh_18dsc_lib_jsonschema8dsc_repo15dsc_repo_schema13DscRepoSchema15generate_schemaB9_
FN:154,_RNvYpNtNtNtCs92r3DgzGcjh_18dsc_lib_jsonschema8dsc_repo15dsc_repo_schema13DscRepoSchema17get_schema_id_uriB9_
FN:169,_RNvYpNtNtNtCs92r3DgzGcjh_18dsc_lib_jsonschema8dsc_repo15dsc_repo_schema13DscRepoSchema17set_schema_id_uriB9_
FN:331,_RNvYpNtNtNtCs92r3DgzGcjh_18dsc_lib_jsonschema8dsc_repo15dsc_repo_schema13DscRepoSchema19validate_schema_uriB9_
FN:342,_RNvYpNtNtNtCs92r3DgzGcjh_18dsc_lib_jsonschema8dsc_repo15dsc_repo_schema13DscRepoSchema22get_valid_schema_formsB9_
FN:284,_RNvYpNtNtNtCs92r3DgzGcjh_18dsc_lib_jsonschema8dsc_repo15dsc_repo_schema13DscRepoSchema22recognized_schema_urisB9_
FN:180,_RNvYpNtNtNtCs92r3DgzGcjh_18dsc_lib_jsonschema8dsc_repo15dsc_repo_schema13DscRepoSchema24get_schema_relative_pathB9_
FN:311,_RNvYpNtNtNtCs92r3DgzGcjh_18dsc_lib_jsonschema8dsc_repo15dsc_repo_schema13DscRepoSchema24is_recognized_schema_uriB9_
FN:272,_RNvYpNtNtNtCs92r3DgzGcjh_18dsc_lib_jsonschema8dsc_repo15dsc_repo_schema13DscRepoSchema25set_bundled_schema_id_uriB9_
FN:108,_RNvYpNtNtNtCs92r3DgzGcjh_18dsc_lib_jsonschema8dsc_repo15dsc_repo_schema13DscRepoSchema26generate_exportable_schemaB9_
FN:228,_RNvYpNtNtNtCs92r3DgzGcjh_18dsc_lib_jsonschema8dsc_repo15dsc_repo_schema13DscRepoSchema26set_enhanced_schema_id_uriB9_
FN:249,_RNvYpNtNtNtCs92r3DgzGcjh_18dsc_lib_jsonschema8dsc_repo15dsc_repo_schema13DscRepoSchema27set_canonical_schema_id_uriB9_
FN:88,_RNvYpNtNtNtCs92r3DgzGcjh_18dsc_lib_jsonschema8dsc_repo15dsc_repo_schema13DscRepoSchema28default_export_schema_id_uriB9_
FN:101,_RNvYpNtNtNtCs92r3DgzGcjh_18dsc_lib_jsonschema8dsc_repo15dsc_repo_schema13DscRepoSchema30default_export_meta_schema_uriB9_
FN:300,_RNvYpNtNtNtCs92r3DgzGcjh_18dsc_lib_jsonschema8dsc_repo15dsc_repo_schema13DscRepoSchema32recognized_schema_uris_subschemaB9_
FN:70,_RNvYNtNtNtNtNtCs1x44INjIxA6_11integration8dsc_repo22derive_dsc_repo_schema8for_enum16without_bundling7ExampleNtNtNtCs1p6hG0j9t4b_18dsc_lib_jsonschema8dsc_repo15dsc_repo_schema13DscRepoSchema21default_schema_id_uriBc_
FN:256,_RNvYNtNtNtNtNtCs1x44INjIxA6_11integration8dsc_repo22derive_dsc_repo_schema8for_enum16without_bundling7ExampleNtNtNtCs1p6hG0j9t4b_18dsc_lib_jsonschema8dsc_repo15dsc_repo_schema13DscRepoSchema25get_bundled_schema_id_uriBc_
FN:212,_RNvYNtNtNtNtNtCs1x44INjIxA6_11integration8dsc_repo22derive_dsc_repo_schema8for_enum16without_bundling7ExampleNtNtNtCs1p6hG0j9t4b_18dsc_lib_jsonschema8dsc_repo15dsc_repo_schema13DscRepoSchema26get_enhanced_schema_id_uriBc_
FN:237,_RNvYNtNtNtNtNtCs1x44INjIxA6_11integration8dsc_repo22derive_dsc_repo_schema8for_enum16without_bundling7ExampleNtNtNtCs1p6hG0j9t4b_18dsc_lib_jsonschema8dsc_repo15dsc_repo_schema13DscRepoSchema27get_canonical_schema_id_uriBc_
FN:70,_RNvYNtNtNtNtNtNtCs1x44INjIxA6_11integration8dsc_repo22derive_dsc_repo_schema10for_struct13with_bundling20without_schema_field7ExampleNtNtNtCs1p6hG0j9t4b_18dsc_lib_jsonschema8dsc_repo15dsc_repo_schema13DscRepoSchema21default_schema_id_uriBe_
FN:256,_RNvYNtNtNtNtNtNtCs1x44INjIxA6_11integration8dsc_repo22derive_dsc_repo_schema10for_struct13with_bundling20without_schema_field7ExampleNtNtNtCs1p6hG0j9t4b_18dsc_lib_jsonschema8dsc_repo15dsc_repo_schema13DscRepoSchema25get_bundled_schema_id_uriBe_
FN:212,_RNvYNtNtNtNtNtNtCs1x44INjIxA6_11integration8dsc_repo22derive_dsc_repo_schema10for_struct13with_bundling20without_schema_field7ExampleNtNtNtCs1p6hG0j9t4b_18dsc_lib_jsonschema8dsc_repo15dsc_repo_schema13DscRepoSchema26get_enhanced_schema_id_uriBe_
FN:237,_RNvYNtNtNtNtNtNtCs1x44INjIxA6_11integration8dsc_repo22derive_dsc_repo_schema10for_struct13with_bundling20without_schema_field7ExampleNtNtNtCs1p6hG0j9t4b_18dsc_lib_jsonschema8dsc_repo15dsc_repo_schema13DscRepoSchema27get_canonical_schema_id_uriBe_
FN:70,_RNvYNtNtNtNtNtNtCs1x44INjIxA6_11integration8dsc_repo22derive_dsc_repo_schema10for_struct13with_bundling17with_schema_field7ExampleNtNtNtCs1p6hG0j9t4b_18dsc_lib_jsonschema8dsc_repo15dsc_repo_schema13DscRepoSchema21default_schema_id_uriBe_
FN:284,_RNvYNtNtNtNtNtNtCs1x44INjIxA6_11integration8dsc_repo22derive_dsc_repo_schema10for_struct13with_bundling17with_schema_field7ExampleNtNtNtCs1p6hG0j9t4b_18dsc_lib_jsonschema8dsc_repo15dsc_repo_schema13DscRepoSchema22recognized_schema_urisBe_
FN:311,_RNvYNtNtNtNtNtNtCs1x44INjIxA6_11integration8dsc_repo22derive_dsc_repo_schema10for_struct13with_bundling17with_schema_field7ExampleNtNtNtCs1p6hG0j9t4b_18dsc_lib_jsonschema8dsc_repo15dsc_repo_schema13DscRepoSchema24is_recognized_schema_uriBe_
FN:256,_RNvYNtNtNtNtNtNtCs1x44INjIxA6_11integration8dsc_repo22derive_dsc_repo_schema10for_struct13with_bundling17with_schema_field7ExampleNtNtNtCs1p6hG0j9t4b_18dsc_lib_jsonschema8dsc_repo15dsc_repo_schema13DscRepoSchema25get_bundled_schema_id_uriBe_
FN:212,_RNvYNtNtNtNtNtNtCs1x44INjIxA6_11integration8dsc_repo22derive_dsc_repo_schema10for_struct13with_bundling17with_schema_field7ExampleNtNtNtCs1p6hG0j9t4b_18dsc_lib_jsonschema8dsc_repo15dsc_repo_schema13DscRepoSchema26get_enhanced_schema_id_uriBe_
FN:237,_RNvYNtNtNtNtNtNtCs1x44INjIxA6_11integration8dsc_repo22derive_dsc_repo_schema10for_struct13with_bundling17with_schema_field7ExampleNtNtNtCs1p6hG0j9t4b_18dsc_lib_jsonschema8dsc_repo15dsc_repo_schema13DscRepoSchema27get_canonical_schema_id_uriBe_
FN:300,_RNvYNtNtNtNtNtNtCs1x44INjIxA6_11integration8dsc_repo22derive_dsc_repo_schema10for_struct13with_bundling17with_schema_field7ExampleNtNtNtCs1p6hG0j9t4b_18dsc_lib_jsonschema8dsc_repo15dsc_repo_schema13DscRepoSchema32recognized_schema_uris_subschemaBe_
FN:70,_RNvYNtNtNtNtNtNtCs1x44INjIxA6_11integration8dsc_repo22derive_dsc_repo_schema10for_struct16without_bundling20without_schema_field7ExampleNtNtNtCs1p6hG0j9t4b_18dsc_lib_jsonschema8dsc_repo15dsc_repo_schema13DscRepoSchema21default_schema_id_uriBe_
FN:256,_RNvYNtNtNtNtNtNtCs1x44INjIxA6_11integration8dsc_repo22derive_dsc_repo_schema10for_struct16without_bundling20without_schema_field7ExampleNtNtNtCs1p6hG0j9t4b_18dsc_lib_jsonschema8dsc_repo15dsc_repo_schema13DscRepoSchema25get_bundled_schema_id_uriBe_
FN:212,_RNvYNtNtNtNtNtNtCs1x44INjIxA6_11integration8dsc_repo22derive_dsc_repo_schema10for_struct16without_bundling20without_schema_field7ExampleNtNtNtCs1p6hG0j9t4b_18dsc_lib_jsonschema8dsc_repo15dsc_repo_schema13DscRepoSchema26get_enhanced_schema_id_uriBe_
FN:237,_RNvYNtNtNtNtNtNtCs1x44INjIxA6_11integration8dsc_repo22derive_dsc_repo_schema10for_struct16without_bundling20without_schema_field7ExampleNtNtNtCs1p6hG0j9t4b_18dsc_lib_jsonschema8dsc_repo15dsc_repo_schema13DscRepoSchema27get_canonical_schema_id_uriBe_
FN:70,_RNvYNtNtNtNtNtNtCs1x44INjIxA6_11integration8dsc_repo22derive_dsc_repo_schema10for_struct16without_bundling17with_schema_field7ExampleNtNtNtCs1p6hG0j9t4b_18dsc_lib_jsonschema8dsc_repo15dsc_repo_schema13DscRepoSchema21default_schema_id_uriBe_
FN:284,_RNvYNtNtNtNtNtNtCs1x44INjIxA6_11integration8dsc_repo22derive_dsc_repo_schema10for_struct16without_bundling17with_schema_field7ExampleNtNtNtCs1p6hG0j9t4b_18dsc_lib_jsonschema8dsc_repo15dsc_repo_schema13DscRepoSchema22recognized_schema_urisBe_
FN:311,_RNvYNtNtNtNtNtNtCs1x44INjIxA6_11integration8dsc_repo22derive_dsc_repo_schema10for_struct16without_bundling17with_schema_field7ExampleNtNtNtCs1p6hG0j9t4b_18dsc_lib_jsonschema8dsc_repo15dsc_repo_schema13DscRepoSchema24is_recognized_schema_uriBe_
FN:256,_RNvYNtNtNtNtNtNtCs1x44INjIxA6_11integration8dsc_repo22derive_dsc_repo_schema10for_struct16without_bundling17with_schema_field7ExampleNtNtNtCs1p6hG0j9t4b_18dsc_lib_jsonschema8dsc_repo15dsc_repo_schema13DscRepoSchema25get_bundled_schema_id_uriBe_
FN:212,_RNvYNtNtNtNtNtNtCs1x44INjIxA6_11integration8dsc_repo22derive_dsc_repo_schema10for_struct16without_bundling17with_schema_field7ExampleNtNtNtCs1p6hG0j9t4b_18dsc_lib_jsonschema8dsc_repo15dsc_repo_schema13DscRepoSchema26get_enhanced_schema_id_uriBe_
FN:237,_RNvYNtNtNtNtNtNtCs1x44INjIxA6_11integration8dsc_repo22derive_dsc_repo_schema10for_struct16without_bundling17with_schema_field7ExampleNtNtNtCs1p6hG0j9t4b_18dsc_lib_jsonschema8dsc_repo15dsc_repo_schema13DscRepoSchema27get_canonical_schema_id_uriBe_
FN:300,_RNvYNtNtNtNtNtNtCs1x44INjIxA6_11integration8dsc_repo22derive_dsc_repo_schema10for_struct16without_bundling17with_schema_field7ExampleNtNtNtCs1p6hG0j9t4b_18dsc_lib_jsonschema8dsc_repo15dsc_repo_schema13DscRepoSchema32recognized_schema_uris_subschemaBe_
FN:70,_RNvYNtNtNtNtNtNtCshNF1WHaY4M7_11integration8dsc_repo22derive_dsc_repo_schema10for_struct13with_bundling17with_schema_field7ExampleNtNtNtCse9HBjRuE3ke_18dsc_lib_jsonschema8dsc_repo15dsc_repo_schema13DscRepoSchema21default_schema_id_uriBe_
FN:284,_RNvYNtNtNtNtNtNtCshNF1WHaY4M7_11integration8dsc_repo22derive_dsc_repo_schema10for_struct13with_bundling17with_schema_field7ExampleNtNtNtCse9HBjRuE3ke_18dsc_lib_jsonschema8dsc_repo15dsc_repo_schema13DscRepoSchema22recognized_schema_urisBe_
FN:311,_RNvYNtNtNtNtNtNtCshNF1WHaY4M7_11integration8dsc_repo22derive_dsc_repo_schema10for_struct13with_bundling17with_schema_field7ExampleNtNtNtCse9HBjRuE3ke_18dsc_lib_jsonschema8dsc_repo15dsc_repo_schema13DscRepoSchema24is_recognized_schema_uriBe_
FN:256,_RNvYNtNtNtNtNtNtCshNF1WHaY4M7_11integration8dsc_repo22derive_dsc_repo_schema10for_struct13with_bundling17with_schema_field7ExampleNtNtNtCse9HBjRuE3ke_18dsc_lib_jsonschema8dsc_repo15dsc_repo_schema13DscRepoSchema25get_bundled_schema_id_uriBe_
FN:212,_RNvYNtNtNtNtNtNtCshNF1WHaY4M7_11integration8dsc_repo22derive_dsc_repo_schema10for_struct13with_bundling17with_schema_field7ExampleNtNtNtCse9HBjRuE3ke_18dsc_lib_jsonschema8dsc_repo15dsc_repo_schema13DscRepoSchema26get_enhanced_schema_id_uriBe_
FN:237,_RNvYNtNtNtNtNtNtCshNF1WHaY4M7_11integration8dsc_repo22derive_dsc_repo_schema10for_struct13with_bundling17with_schema_field7ExampleNtNtNtCse9HBjRuE3ke_18dsc_lib_jsonschema8dsc_repo15dsc_repo_schema13DscRepoSchema27get_canonical_schema_id_uriBe_
FN:300,_RNvYNtNtNtNtNtNtCshNF1WHaY4M7_11integration8dsc_repo22derive_dsc_repo_schema10for_struct13with_bundling17with_schema_field7ExampleNtNtNtCse9HBjRuE3ke_18dsc_lib_jsonschema8dsc_repo15dsc_repo_schema13DscRepoSchema32recognized_schema_uris_subschemaBe_
FN:70,_RNvYNtNtNtNtNtNtCshNF1WHaY4M7_11integration8dsc_repo22derive_dsc_repo_schema10for_struct16without_bundling20without_schema_field7ExampleNtNtNtCse9HBjRuE3ke_18dsc_lib_jsonschema8dsc_repo15dsc_repo_schema13DscRepoSchema21default_schema_id_uriBe_
FN:256,_RNvYNtNtNtNtNtNtCshNF1WHaY4M7_11integration8dsc_repo22derive_dsc_repo_schema10for_struct16without_bundling20without_schema_field7ExampleNtNtNtCse9HBjRuE3ke_18dsc_lib_jsonschema8dsc_repo15dsc_repo_schema13DscRepoSchema25get_bundled_schema_id_uriBe_
FN:212,_RNvYNtNtNtNtNtNtCshNF1WHaY4M7_11integration8dsc_repo22derive_dsc_repo_schema10for_struct16without_bundling20without_schema_field7ExampleNtNtNtCse9HBjRuE3ke_18dsc_lib_jsonschema8dsc_repo15dsc_repo_schema13DscRepoSchema26get_enhanced_schema_id_uriBe_
FN:237,_RNvYNtNtNtNtNtNtCshNF1WHaY4M7_11integration8dsc_repo22derive_dsc_repo_schema10for_struct16without_bundling20without_schema_field7ExampleNtNtNtCse9HBjRuE3ke_18dsc_lib_jsonschema8dsc_repo15dsc_repo_schema13DscRepoSchema27get_canonical_schema_id_uriBe_
FN:70,_RNvYNtNtNtNtNtCshNF1WHaY4M7_11integration8dsc_repo22derive_dsc_repo_schema8for_enum16without_bundling7ExampleNtNtNtCse9HBjRuE3ke_18dsc_lib_jsonschema8dsc_repo15dsc_repo_schema13DscRepoSchema21default_schema_id_uriBc_
FN:256,_RNvYNtNtNtNtNtCshNF1WHaY4M7_11integration8dsc_repo22derive_dsc_repo_schema8for_enum16without_bundling7ExampleNtNtNtCse9HBjRuE3ke_18dsc_lib_jsonschema8dsc_repo15dsc_repo_schema13DscRepoSchema25get_bundled_schema_id_uriBc_
FN:212,_RNvYNtNtNtNtNtCshNF1WHaY4M7_11integration8dsc_repo22derive_dsc_repo_schema8for_enum16without_bundling7ExampleNtNtNtCse9HBjRuE3ke_18dsc_lib_jsonschema8dsc_repo15dsc_repo_schema13DscRepoSchema26get_enhanced_schema_id_uriBc_
FN:237,_RNvYNtNtNtNtNtCshNF1WHaY4M7_11integration8dsc_repo22derive_dsc_repo_schema8for_enum16without_bundling7ExampleNtNtNtCse9HBjRuE3ke_18dsc_lib_jsonschema8dsc_repo15dsc_repo_schema13DscRepoSchema27get_canonical_schema_id_uriBc_
FN:70,_RNvYNtNtNtNtNtNtCshNF1WHaY4M7_11integration8dsc_repo22derive_dsc_repo_schema10for_struct16without_bundling17with_schema_field7ExampleNtNtNtCse9HBjRuE3ke_18dsc_lib_jsonschema8dsc_repo15dsc_repo_schema13DscRepoSchema21default_schema_id_uriBe_
FN:284,_RNvYNtNtNtNtNtNtCshNF1WHaY4M7_11integration8dsc_repo22derive_dsc_repo_schema10for_struct16without_bundling17with_schema_field7ExampleNtNtNtCse9HBjRuE3ke_18dsc_lib_jsonschema8dsc_repo15dsc_repo_schema13DscRepoSchema22recognized_schema_urisBe_
FN:311,_RNvYNtNtNtNtNtNtCshNF1WHaY4M7_11integration8dsc_repo22derive_dsc_repo_schema10for_struct16without_bundling17with_schema_field7ExampleNtNtNtCse9HBjRuE3ke_18dsc_lib_jsonschema8dsc_repo15dsc_repo_schema13DscRepoSchema24is_recognized_schema_uriBe_
FN:256,_RNvYNtNtNtNtNtNtCshNF1WHaY4M7_11integration8dsc_repo22derive_dsc_repo_schema10for_struct16without_bundling17with_schema_field7ExampleNtNtNtCse9HBjRuE3ke_18dsc_lib_jsonschema8dsc_repo15dsc_repo_schema13DscRepoSchema25get_bundled_schema_id_uriBe_
FN:212,_RNvYNtNtNtNtNtNtCshNF1WHaY4M7_11integration8dsc_repo22derive_dsc_repo_schema10for_struct16without_bundling17with_schema_field7ExampleNtNtNtCse9HBjRuE3ke_18dsc_lib_jsonschema8dsc_repo15dsc_repo_schema13DscRepoSchema26get_enhanced_schema_id_uriBe_
FN:237,_RNvYNtNtNtNtNtNtCshNF1WHaY4M7_11integration8dsc_repo22derive_dsc_repo_schema10for_struct16without_bundling17with_schema_field7ExampleNtNtNtCse9HBjRuE3ke_18dsc_lib_jsonschema8dsc_repo15dsc_repo_schema13DscRepoSchema27get_canonical_schema_id_uriBe_
FN:300,_RNvYNtNtNtNtNtNtCshNF1WHaY4M7_11integration8dsc_repo22derive_dsc_repo_schema10for_struct16without_bundling17with_schema_field7ExampleNtNtNtCse9HBjRuE3ke_18dsc_lib_jsonschema8dsc_repo15dsc_repo_schema13DscRepoSchema32recognized_schema_uris_subschemaBe_
FN:70,_RNvYNtNtNtNtNtNtCshNF1WHaY4M7_11integration8dsc_repo22derive_dsc_repo_schema10for_struct13with_bundling20without_schema_field7ExampleNtNtNtCse9HBjRuE3ke_18dsc_lib_jsonschema8dsc_repo15dsc_repo_schema13DscRepoSchema21default_schema_id_uriBe_
FN:256,_RNvYNtNtNtNtNtNtCshNF1WHaY4M7_11integration8dsc_repo22derive_dsc_repo_schema10for_struct13with_bundling20without_schema_field7ExampleNtNtNtCse9HBjRuE3ke_18dsc_lib_jsonschema8dsc_repo15dsc_repo_schema13DscRepoSchema25get_bundled_schema_id_uriBe_
FN:212,_RNvYNtNtNtNtNtNtCshNF1WHaY4M7_11integration8dsc_repo22derive_dsc_repo_schema10for_struct13with_bundling20without_schema_field7ExampleNtNtNtCse9HBjRuE3ke_18dsc_lib_jsonschema8dsc_repo15dsc_repo_schema13DscRepoSchema26get_enhanced_schema_id_uriBe_
FN:237,_RNvYNtNtNtNtNtNtCshNF1WHaY4M7_11integration8dsc_repo22derive_dsc_repo_schema10for_struct13with_bundling20without_schema_field7ExampleNtNtNtCse9HBjRuE3ke_18dsc_lib_jsonschema8dsc_repo15dsc_repo_schema13DscRepoSchema27get_canonical_schema_id_uriBe_
FNDA:0,_RNvYNtNtNtCsli4Jnfrlqm4_7dsc_lib12dscresources17resource_manifest16ResourceManifestNtNtNtCse9HBjRuE3ke_18dsc_lib_jsonschema8dsc_repo15dsc_repo_schema13DscRepoSchema22recognized_schema_urisB8_
FNDA:0,_RNvYNtNtNtCsli4Jnfrlqm4_7dsc_lib12dscresources17resource_manifest16ResourceManifestNtNtNtCse9HBjRuE3ke_18dsc_lib_jsonschema8dsc_repo15dsc_repo_schema13DscRepoSchema24is_recognized_schema_uriB8_
FNDA:3,_RNvYNtNtNtCsli4Jnfrlqm4_7dsc_lib12dscresources17resource_manifest16ResourceManifestNtNtNtCse9HBjRuE3ke_18dsc_lib_jsonschema8dsc_repo15dsc_repo_schema13DscRepoSchema32recognized_schema_uris_subschemaB8_
FNDA:0,_RNvYNtNtNtCsli4Jnfrlqm4_7dsc_lib12dscresources25adapted_resource_manifest26AdaptedDscResourceManifestNtNtNtCse9HBjRuE3ke_18dsc_lib_jsonschema8dsc_repo15dsc_repo_schema13DscRepoSchema22recognized_schema_urisB8_
FNDA:0,_RNvYNtNtNtCsli4Jnfrlqm4_7dsc_lib12dscresources25adapted_resource_manifest26AdaptedDscResourceManifestNtNtNtCse9HBjRuE3ke_18dsc_lib_jsonschema8dsc_repo15dsc_repo_schema13DscRepoSchema24is_recognized_schema_uriB8_
FNDA:9,_RNvYNtNtNtCsli4Jnfrlqm4_7dsc_lib5types14exit_codes_map12ExitCodesMapNtNtNtCse9HBjRuE3ke_18dsc_lib_jsonschema8dsc_repo15dsc_repo_schema13DscRepoSchema21default_schema_id_uriB8_
FNDA:26,_RNvYNtNtNtCsli4Jnfrlqm4_7dsc_lib5types12date_version11DateVersionNtNtNtCse9HBjRuE3ke_18dsc_lib_jsonschema8dsc_repo15dsc_repo_schema13DscRepoSchema21default_schema_id_uriB8_
FNDA:0,_RNvYNtNtNtCsli4Jnfrlqm4_7dsc_lib10extensions18extension_manifest17ExtensionManifestNtNtNtCse9HBjRuE3ke_18dsc_lib_jsonschema8dsc_repo15dsc_repo_schema13DscRepoSchema22recognized_schema_urisB8_
FNDA:0,_RNvYNtNtNtCsli4Jnfrlqm4_7dsc_lib10extensions18extension_manifest17ExtensionManifestNtNtNtCse9HBjRuE3ke_18dsc_lib_jsonschema8dsc_repo15dsc_repo_schema13DscRepoSchema24is_recognized_schema_uriB8_
FNDA:1,_RNvYNtNtNtCsli4Jnfrlqm4_7dsc_lib10extensions18extension_manifest17ExtensionManifestNtNtNtCse9HBjRuE3ke_18dsc_lib_jsonschema8dsc_repo15dsc_repo_schema13DscRepoSchema32recognized_schema_uris_subschemaB8_
FNDA:0,_RNvYNtNtNtCsli4Jnfrlqm4_7dsc_lib9configure10config_doc13ConfigurationNtNtNtCse9HBjRuE3ke_18dsc_lib_jsonschema8dsc_repo15dsc_repo_schema13DscRepoSchema21default_schema_id_uriB8_
FNDA:0,_RNvYNtNtNtCsli4Jnfrlqm4_7dsc_lib9configure10config_doc13ConfigurationNtNtNtCse9HBjRuE3ke_18dsc_lib_jsonschema8dsc_repo15dsc_repo_schema13DscRepoSchema22recognized_schema_urisB8_
FNDA:0,_RNvYNtNtNtCsli4Jnfrlqm4_7dsc_lib9configure10config_doc13ConfigurationNtNtNtCse9HBjRuE3ke_18dsc_lib_jsonschema8dsc_repo15dsc_repo_schema13DscRepoSchema24is_recognized_schema_uriB8_
FNDA:2,_RNvYNtNtNtCsli4Jnfrlqm4_7dsc_lib9configure10config_doc13ConfigurationNtNtNtCse9HBjRuE3ke_18dsc_lib_jsonschema8dsc_repo15dsc_repo_schema13DscRepoSchema32recognized_schema_uris_subschemaB8_
FNDA:14,_RNvYNtNtNtCsli4Jnfrlqm4_7dsc_lib5types16semantic_version15SemanticVersionNtNtNtCse9HBjRuE3ke_18dsc_lib_jsonschema8dsc_repo15dsc_repo_schema13DscRepoSchema21default_schema_id_uriB8_
FNDA:13,_RNvYNtNtNtCsli4Jnfrlqm4_7dsc_lib5types20semantic_version_req18SemanticVersionReqNtNtNtCse9HBjRuE3ke_18dsc_lib_jsonschema8dsc_repo15dsc_repo_schema13DscRepoSchema21default_schema_id_uriB8_
FNDA:13,_RNvYNtNtNtCs5ZHd1N2lPnJ_7dsc_lib5types20semantic_version_req18SemanticVersionReqNtNtNtCs1p6hG0j9t4b_18dsc_lib_jsonschema8dsc_repo15dsc_repo_schema13DscRepoSchema21default_schema_id_uriB8_
FNDA:0,_RNvYNtNtNtCs5ZHd1N2lPnJ_7dsc_lib12dscresources17resource_manifest16ResourceManifestNtNtNtCs1p6hG0j9t4b_18dsc_lib_jsonschema8dsc_repo15dsc_repo_schema13DscRepoSchema22recognized_schema_urisB8_
FNDA:0,_RNvYNtNtNtCs5ZHd1N2lPnJ_7dsc_lib12dscresources17resource_manifest16ResourceManifestNtNtNtCs1p6hG0j9t4b_18dsc_lib_jsonschema8dsc_repo15dsc_repo_schema13DscRepoSchema24is_recognized_schema_uriB8_
FNDA:3,_RNvYNtNtNtCs5ZHd1N2lPnJ_7dsc_lib12dscresources17resource_manifest16ResourceManifestNtNtNtCs1p6hG0j9t4b_18dsc_lib_jsonschema8dsc_repo15dsc_repo_schema13DscRepoSchema32recognized_schema_uris_subschemaB8_
FNDA:26,_RNvYNtNtNtCs5ZHd1N2lPnJ_7dsc_lib5types12date_version11DateVersionNtNtNtCs1p6hG0j9t4b_18dsc_lib_jsonschema8dsc_repo15dsc_repo_schema13DscRepoSchema21default_schema_id_uriB8_
FNDA:0,_RNvYNtNtNtCs5ZHd1N2lPnJ_7dsc_lib10extensions18extension_manifest17ExtensionManifestNtNtNtCs1p6hG0j9t4b_18dsc_lib_jsonschema8dsc_repo15dsc_repo_schema13DscRepoSchema22recognized_schema_urisB8_
FNDA:0,_RNvYNtNtNtCs5ZHd1N2lPnJ_7dsc_lib10extensions18extension_manifest17ExtensionManifestNtNtNtCs1p6hG0j9t4b_18dsc_lib_jsonschema8dsc_repo15dsc_repo_schema13DscRepoSchema24is_recognized_schema_uriB8_
FNDA:1,_RNvYNtNtNtCs5ZHd1N2lPnJ_7dsc_lib10extensions18extension_manifest17ExtensionManifestNtNtNtCs1p6hG0j9t4b_18dsc_lib_jsonschema8dsc_repo15dsc_repo_schema13DscRepoSchema32recognized_schema_uris_subschemaB8_
FNDA:9,_RNvYNtNtNtCs5ZHd1N2lPnJ_7dsc_lib5types14exit_codes_map12ExitCodesMapNtNtNtCs1p6hG0j9t4b_18dsc_lib_jsonschema8dsc_repo15dsc_repo_schema13DscRepoSchema21default_schema_id_uriB8_
FNDA:14,_RNvYNtNtNtCs5ZHd1N2lPnJ_7dsc_lib5types16semantic_version15SemanticVersionNtNtNtCs1p6hG0j9t4b_18dsc_lib_jsonschema8dsc_repo15dsc_repo_schema13DscRepoSchema21default_schema_id_uriB8_
FNDA:0,_RNvYNtNtNtCs5ZHd1N2lPnJ_7dsc_lib9configure10config_doc13ConfigurationNtNtNtCs1p6hG0j9t4b_18dsc_lib_jsonschema8dsc_repo15dsc_repo_schema13DscRepoSchema21default_schema_id_uriB8_
FNDA:0,_RNvYNtNtNtCs5ZHd1N2lPnJ_7dsc_lib9configure10config_doc13ConfigurationNtNtNtCs1p6hG0j9t4b_18dsc_lib_jsonschema8dsc_repo15dsc_repo_schema13DscRepoSchema22recognized_schema_urisB8_
FNDA:0,_RNvYNtNtNtCs5ZHd1N2lPnJ_7dsc_lib9configure10config_doc13ConfigurationNtNtNtCs1p6hG0j9t4b_18dsc_lib_jsonschema8dsc_repo15dsc_repo_schema13DscRepoSchema24is_recognized_schema_uriB8_
FNDA:2,_RNvYNtNtNtCs5ZHd1N2lPnJ_7dsc_lib9configure10config_doc13ConfigurationNtNtNtCs1p6hG0j9t4b_18dsc_lib_jsonschema8dsc_repo15dsc_repo_schema13DscRepoSchema32recognized_schema_uris_subschemaB8_
FNDA:0,_RNvYNtNtNtCs5ZHd1N2lPnJ_7dsc_lib12dscresources25adapted_resource_manifest26AdaptedDscResourceManifestNtNtNtCs1p6hG0j9t4b_18dsc_lib_jsonschema8dsc_repo15dsc_repo_schema13DscRepoSchema22recognized_schema_urisB8_
FNDA:0,_RNvYNtNtNtCs5ZHd1N2lPnJ_7dsc_lib12dscresources25adapted_resource_manifest26AdaptedDscResourceManifestNtNtNtCs1p6hG0j9t4b_18dsc_lib_jsonschema8dsc_repo15dsc_repo_schema13DscRepoSchema24is_recognized_schema_uriB8_
FNDA:1,_RNvYNtNtNtCs44ofPrmD4bY_7dsc_lib12dscresources17resource_manifest16ResourceManifestNtNtNtCs1p6hG0j9t4b_18dsc_lib_jsonschema8dsc_repo15dsc_repo_schema13DscRepoSchema21default_schema_id_uriB8_
FNDA:4,_RNvYNtNtNtCs44ofPrmD4bY_7dsc_lib12dscresources17resource_manifest16ResourceManifestNtNtNtCs1p6hG0j9t4b_18dsc_lib_jsonschema8dsc_repo15dsc_repo_schema13DscRepoSchema22recognized_schema_urisB8_
FNDA:2,_RNvYNtNtNtCs44ofPrmD4bY_7dsc_lib12dscresources17resource_manifest16ResourceManifestNtNtNtCs1p6hG0j9t4b_18dsc_lib_jsonschema8dsc_repo15dsc_repo_schema13DscRepoSchema24is_recognized_schema_uriB8_
FNDA:1,_RNvYNtNtNtCs44ofPrmD4bY_7dsc_lib10extensions18extension_manifest17ExtensionManifestNtNtNtCs1p6hG0j9t4b_18dsc_lib_jsonschema8dsc_repo15dsc_repo_schema13DscRepoSchema21default_schema_id_uriB8_
FNDA:4,_RNvYNtNtNtCs44ofPrmD4bY_7dsc_lib10extensions18extension_manifest17ExtensionManifestNtNtNtCs1p6hG0j9t4b_18dsc_lib_jsonschema8dsc_repo15dsc_repo_schema13DscRepoSchema22recognized_schema_urisB8_
FNDA:2,_RNvYNtNtNtCs44ofPrmD4bY_7dsc_lib10extensions18extension_manifest17ExtensionManifestNtNtNtCs1p6hG0j9t4b_18dsc_lib_jsonschema8dsc_repo15dsc_repo_schema13DscRepoSchema24is_recognized_schema_uriB8_
FNDA:3,_RNvYNtNtNtCs44ofPrmD4bY_7dsc_lib9configure10config_doc13ConfigurationNtNtNtCs1p6hG0j9t4b_18dsc_lib_jsonschema8dsc_repo15dsc_repo_schema13DscRepoSchema21default_schema_id_uriB8_
FNDA:4,_RNvYNtNtNtCs44ofPrmD4bY_7dsc_lib9configure10config_doc13ConfigurationNtNtNtCs1p6hG0j9t4b_18dsc_lib_jsonschema8dsc_repo15dsc_repo_schema13DscRepoSchema22recognized_schema_urisB8_
FNDA:2,_RNvYNtNtNtCs44ofPrmD4bY_7dsc_lib9configure10config_doc13ConfigurationNtNtNtCs1p6hG0j9t4b_18dsc_lib_jsonschema8dsc_repo15dsc_repo_schema13DscRepoSchema24is_recognized_schema_uriB8_
FNDA:1,_RNvYNtNtNtCsi1wDpkj0Hb3_7dsc_lib10extensions18extension_manifest17ExtensionManifestNtNtNtCse9HBjRuE3ke_18dsc_lib_jsonschema8dsc_repo15dsc_repo_schema13DscRepoSchema21default_schema_id_uriB8_
FNDA:4,_RNvYNtNtNtCsi1wDpkj0Hb3_7dsc_lib10extensions18extension_manifest17ExtensionManifestNtNtNtCse9HBjRuE3ke_18dsc_lib_jsonschema8dsc_repo15dsc_repo_schema13DscRepoSchema22recognized_schema_urisB8_
FNDA:2,_RNvYNtNtNtCsi1wDpkj0Hb3_7dsc_lib10extensions18extension_manifest17ExtensionManifestNtNtNtCse9HBjRuE3ke_18dsc_lib_jsonschema8dsc_repo15dsc_repo_schema13DscRepoSchema24is_recognized_schema_uriB8_
FNDA:3,_RNvYNtNtNtCsi1wDpkj0Hb3_7dsc_lib9configure10config_doc13ConfigurationNtNtNtCse9HBjRuE3ke_18dsc_lib_jsonschema8dsc_repo15dsc_repo_schema13DscRepoSchema21default_schema_id_uriB8_
FNDA:4,_RNvYNtNtNtCsi1wDpkj0Hb3_7dsc_lib9configure10config_doc13ConfigurationNtNtNtCse9HBjRuE3ke_18dsc_lib_jsonschema8dsc_repo15dsc_repo_schema13DscRepoSchema22recognized_schema_urisB8_
FNDA:2,_RNvYNtNtNtCsi1wDpkj0Hb3_7dsc_lib9configure10config_doc13ConfigurationNtNtNtCse9HBjRuE3ke_18dsc_lib_jsonschema8dsc_repo15dsc_repo_schema13DscRepoSchema24is_recognized_schema_uriB8_
FNDA:1,_RNvYNtNtNtCsi1wDpkj0Hb3_7dsc_lib12dscresources17resource_manifest16ResourceManifestNtNtNtCse9HBjRuE3ke_18dsc_lib_jsonschema8dsc_repo15dsc_repo_schema13DscRepoSchema21default_schema_id_uriB8_
FNDA:4,_RNvYNtNtNtCsi1wDpkj0Hb3_7dsc_lib12dscresources17resource_manifest16ResourceManifestNtNtNtCse9HBjRuE3ke_18dsc_lib_jsonschema8dsc_repo15dsc_repo_schema13DscRepoSchema22recognized_schema_urisB8_
FNDA:2,_RNvYNtNtNtCsi1wDpkj0Hb3_7dsc_lib12dscresources17resource_manifest16ResourceManifestNtNtNtCse9HBjRuE3ke_18dsc_lib_jsonschema8dsc_repo15dsc_repo_schema13DscRepoSchema24is_recognized_schema_uriB8_
FNDA:0,_RNvYpNtNtNtCs6DmBUIV3MEM_18dsc_lib_jsonschema8dsc_repo15dsc_repo_schema13DscRepoSchema15generate_schemaB9_
FNDA:0,_RNvYpNtNtNtCs6DmBUIV3MEM_18dsc_lib_jsonschema8dsc_repo15dsc_repo_schema13DscRepoSchema17get_schema_id_uriB9_
FNDA:0,_RNvYpNtNtNtCs6DmBUIV3MEM_18dsc_lib_jsonschema8dsc_repo15dsc_repo_schema13DscRepoSchema17set_schema_id_uriB9_
FNDA:0,_RNvYpNtNtNtCs6DmBUIV3MEM_18dsc_lib_jsonschema8dsc_repo15dsc_repo_schema13DscRepoSchema19validate_schema_uriB9_
FNDA:0,_RNvYpNtNtNtCs6DmBUIV3MEM_18dsc_lib_jsonschema8dsc_repo15dsc_repo_schema13DscRepoSchema22get_valid_schema_formsB9_
FNDA:0,_RNvYpNtNtNtCs6DmBUIV3MEM_18dsc_lib_jsonschema8dsc_repo15dsc_repo_schema13DscRepoSchema22recognized_schema_urisB9_
FNDA:0,_RNvYpNtNtNtCs6DmBUIV3MEM_18dsc_lib_jsonschema8dsc_repo15dsc_repo_schema13DscRepoSchema24get_schema_relative_pathB9_
FNDA:0,_RNvYpNtNtNtCs6DmBUIV3MEM_18dsc_lib_jsonschema8dsc_repo15dsc_repo_schema13DscRepoSchema24is_recognized_schema_uriB9_
FNDA:0,_RNvYpNtNtNtCs6DmBUIV3MEM_18dsc_lib_jsonschema8dsc_repo15dsc_repo_schema13DscRepoSchema25set_bundled_schema_id_uriB9_
FNDA:0,_RNvYpNtNtNtCs6DmBUIV3MEM_18dsc_lib_jsonschema8dsc_repo15dsc_repo_schema13DscRepoSchema26generate_exportable_schemaB9_
FNDA:0,_RNvYpNtNtNtCs6DmBUIV3MEM_18dsc_lib_jsonschema8dsc_repo15dsc_repo_schema13DscRepoSchema26set_enhanced_schema_id_uriB9_
FNDA:0,_RNvYpNtNtNtCs6DmBUIV3MEM_18dsc_lib_jsonschema8dsc_repo15dsc_repo_schema13DscRepoSchema27set_canonical_schema_id_uriB9_
FNDA:0,_RNvYpNtNtNtCs6DmBUIV3MEM_18dsc_lib_jsonschema8dsc_repo15dsc_repo_schema13DscRepoSchema28default_export_schema_id_uriB9_
FNDA:0,_RNvYpNtNtNtCs6DmBUIV3MEM_18dsc_lib_jsonschema8dsc_repo15dsc_repo_schema13DscRepoSchema30default_export_meta_schema_uriB9_
FNDA:0,_RNvYpNtNtNtCs6DmBUIV3MEM_18dsc_lib_jsonschema8dsc_repo15dsc_repo_schema13DscRepoSchema32recognized_schema_uris_subschemaB9_
FNDA:1,_RNvYNtNvNtNtCs6DmBUIV3MEM_18dsc_lib_jsonschema5tests8dsc_repos_28test_dsc_repo_schema_bundled20ExampleBundledSchemaNtNtNtBa_8dsc_repo15dsc_repo_schema13DscRepoSchema21default_schema_id_uriBa_
FNDA:1,_RNvYNtNvNtNtCs6DmBUIV3MEM_18dsc_lib_jsonschema5tests8dsc_repos_28test_dsc_repo_schema_bundled20ExampleBundledSchemaNtNtNtBa_8dsc_repo15dsc_repo_schema13DscRepoSchema25get_bundled_schema_id_uriBa_
FNDA:1,_RNvYNtNvNtNtCs6DmBUIV3MEM_18dsc_lib_jsonschema5tests8dsc_repos_28test_dsc_repo_schema_bundled20ExampleBundledSchemaNtNtNtBa_8dsc_repo15dsc_repo_schema13DscRepoSchema26get_enhanced_schema_id_uriBa_
FNDA:1,_RNvYNtNvNtNtCs6DmBUIV3MEM_18dsc_lib_jsonschema5tests8dsc_repos_28test_dsc_repo_schema_bundled20ExampleBundledSchemaNtNtNtBa_8dsc_repo15dsc_repo_schema13DscRepoSchema27get_canonical_schema_id_uriBa_
FNDA:1,_RNvYNtNvNtNtCs6DmBUIV3MEM_18dsc_lib_jsonschema5tests8dsc_repos_32test_dsc_repo_schema_not_bundled23ExampleNotBundledSchemaNtNtNtBa_8dsc_repo15dsc_repo_schema13DscRepoSchema21default_schema_id_uriBa_
FNDA:1,_RNvYNtNvNtNtCs6DmBUIV3MEM_18dsc_lib_jsonschema5tests8dsc_repos_32test_dsc_repo_schema_not_bundled23ExampleNotBundledSchemaNtNtNtBa_8dsc_repo15dsc_repo_schema13DscRepoSchema25get_bundled_schema_id_uriBa_
FNDA:1,_RNvYNtNvNtNtCs6DmBUIV3MEM_18dsc_lib_jsonschema5tests8dsc_repos_32test_dsc_repo_schema_not_bundled23ExampleNotBundledSchemaNtNtNtBa_8dsc_repo15dsc_repo_schema13DscRepoSchema26get_enhanced_schema_id_uriBa_
FNDA:1,_RNvYNtNvNtNtCs6DmBUIV3MEM_18dsc_lib_jsonschema5tests8dsc_repos_32test_dsc_repo_schema_not_bundled23ExampleNotBundledSchemaNtNtNtBa_8dsc_repo15dsc_repo_schema13DscRepoSchema27get_canonical_schema_id_uriBa_
FNDA:1,_RNvYNtNvNtNtCs92r3DgzGcjh_18dsc_lib_jsonschema5tests8dsc_repos_28test_dsc_repo_schema_bundled20ExampleBundledSchemaNtNtNtBa_8dsc_repo15dsc_repo_schema13DscRepoSchema21default_schema_id_uriBa_
FNDA:1,_RNvYNtNvNtNtCs92r3DgzGcjh_18dsc_lib_jsonschema5tests8dsc_repos_28test_dsc_repo_schema_bundled20ExampleBundledSchemaNtNtNtBa_8dsc_repo15dsc_repo_schema13DscRepoSchema25get_bundled_schema_id_uriBa_
FNDA:1,_RNvYNtNvNtNtCs92r3DgzGcjh_18dsc_lib_jsonschema5tests8dsc_repos_28test_dsc_repo_schema_bundled20ExampleBundledSchemaNtNtNtBa_8dsc_repo15dsc_repo_schema13DscRepoSchema26get_enhanced_schema_id_uriBa_
FNDA:1,_RNvYNtNvNtNtCs92r3DgzGcjh_18dsc_lib_jsonschema5tests8dsc_repos_28test_dsc_repo_schema_bundled20ExampleBundledSchemaNtNtNtBa_8dsc_repo15dsc_repo_schema13DscRepoSchema27get_canonical_schema_id_uriBa_
FNDA:1,_RNvYNtNvNtNtCs92r3DgzGcjh_18dsc_lib_jsonschema5tests8dsc_repos_32test_dsc_repo_schema_not_bundled23ExampleNotBundledSchemaNtNtNtBa_8dsc_repo15dsc_repo_schema13DscRepoSchema21default_schema_id_uriBa_
FNDA:1,_RNvYNtNvNtNtCs92r3DgzGcjh_18dsc_lib_jsonschema5tests8dsc_repos_32test_dsc_repo_schema_not_bundled23ExampleNotBundledSchemaNtNtNtBa_8dsc_repo15dsc_repo_schema13DscRepoSchema25get_bundled_schema_id_uriBa_
FNDA:1,_RNvYNtNvNtNtCs92r3DgzGcjh_18dsc_lib_jsonschema5tests8dsc_repos_32test_dsc_repo_schema_not_bundled23ExampleNotBundledSchemaNtNtNtBa_8dsc_repo15dsc_repo_schema13DscRepoSchema26get_enhanced_schema_id_uriBa_
FNDA:1,_RNvYNtNvNtNtCs92r3DgzGcjh_18dsc_lib_jsonschema5tests8dsc_repos_32test_dsc_repo_schema_not_bundled23ExampleNotBundledSchemaNtNtNtBa_8dsc_repo15dsc_repo_schema13DscRepoSchema27get_canonical_schema_id_uriBa_
FNDA:0,_RNvYpNtNtNtCs92r3DgzGcjh_18dsc_lib_jsonschema8dsc_repo15dsc_repo_schema13DscRepoSchema15generate_schemaB9_
FNDA:0,_RNvYpNtNtNtCs92r3DgzGcjh_18dsc_lib_jsonschema8dsc_repo15dsc_repo_schema13DscRepoSchema17get_schema_id_uriB9_
FNDA:0,_RNvYpNtNtNtCs92r3DgzGcjh_18dsc_lib_jsonschema8dsc_repo15dsc_repo_schema13DscRepoSchema17set_schema_id_uriB9_
FNDA:0,_RNvYpNtNtNtCs92r3DgzGcjh_18dsc_lib_jsonschema8dsc_repo15dsc_repo_schema13DscRepoSchema19validate_schema_uriB9_
FNDA:0,_RNvYpNtNtNtCs92r3DgzGcjh_18dsc_lib_jsonschema8dsc_repo15dsc_repo_schema13DscRepoSchema22get_valid_schema_formsB9_
FNDA:0,_RNvYpNtNtNtCs92r3DgzGcjh_18dsc_lib_jsonschema8dsc_repo15dsc_repo_schema13DscRepoSchema22recognized_schema_urisB9_
FNDA:0,_RNvYpNtNtNtCs92r3DgzGcjh_18dsc_lib_jsonschema8dsc_repo15dsc_repo_schema13DscRepoSchema24get_schema_relative_pathB9_
FNDA:0,_RNvYpNtNtNtCs92r3DgzGcjh_18dsc_lib_jsonschema8dsc_repo15dsc_repo_schema13DscRepoSchema24is_recognized_schema_uriB9_
FNDA:0,_RNvYpNtNtNtCs92r3DgzGcjh_18dsc_lib_jsonschema8dsc_repo15dsc_repo_schema13DscRepoSchema25set_bundled_schema_id_uriB9_
FNDA:0,_RNvYpNtNtNtCs92r3DgzGcjh_18dsc_lib_jsonschema8dsc_repo15dsc_repo_schema13DscRepoSchema26generate_exportable_schemaB9_
FNDA:0,_RNvYpNtNtNtCs92r3DgzGcjh_18dsc_lib_jsonschema8dsc_repo15dsc_repo_schema13DscRepoSchema26set_enhanced_schema_id_uriB9_
FNDA:0,_RNvYpNtNtNtCs92r3DgzGcjh_18dsc_lib_jsonschema8dsc_repo15dsc_repo_schema13DscRepoSchema27set_canonical_schema_id_uriB9_
FNDA:0,_RNvYpNtNtNtCs92r3DgzGcjh_18dsc_lib_jsonschema8dsc_repo15dsc_repo_schema13DscRepoSchema28default_export_schema_id_uriB9_
FNDA:0,_RNvYpNtNtNtCs92r3DgzGcjh_18dsc_lib_jsonschema8dsc_repo15dsc_repo_schema13DscRepoSchema30default_export_meta_schema_uriB9_
FNDA:0,_RNvYpNtNtNtCs92r3DgzGcjh_18dsc_lib_jsonschema8dsc_repo15dsc_repo_schema13DscRepoSchema32recognized_schema_uris_subschemaB9_
FNDA:1,_RNvYNtNtNtNtNtCs1x44INjIxA6_11integration8dsc_repo22derive_dsc_repo_schema8for_enum16without_bundling7ExampleNtNtNtCs1p6hG0j9t4b_18dsc_lib_jsonschema8dsc_repo15dsc_repo_schema13DscRepoSchema21default_schema_id_uriBc_
FNDA:1,_RNvYNtNtNtNtNtCs1x44INjIxA6_11integration8dsc_repo22derive_dsc_repo_schema8for_enum16without_bundling7ExampleNtNtNtCs1p6hG0j9t4b_18dsc_lib_jsonschema8dsc_repo15dsc_repo_schema13DscRepoSchema25get_bundled_schema_id_uriBc_
FNDA:1,_RNvYNtNtNtNtNtCs1x44INjIxA6_11integration8dsc_repo22derive_dsc_repo_schema8for_enum16without_bundling7ExampleNtNtNtCs1p6hG0j9t4b_18dsc_lib_jsonschema8dsc_repo15dsc_repo_schema13DscRepoSchema26get_enhanced_schema_id_uriBc_
FNDA:1,_RNvYNtNtNtNtNtCs1x44INjIxA6_11integration8dsc_repo22derive_dsc_repo_schema8for_enum16without_bundling7ExampleNtNtNtCs1p6hG0j9t4b_18dsc_lib_jsonschema8dsc_repo15dsc_repo_schema13DscRepoSchema27get_canonical_schema_id_uriBc_
FNDA:1,_RNvYNtNtNtNtNtNtCs1x44INjIxA6_11integration8dsc_repo22derive_dsc_repo_schema10for_struct13with_bundling20without_schema_field7ExampleNtNtNtCs1p6hG0j9t4b_18dsc_lib_jsonschema8dsc_repo15dsc_repo_schema13DscRepoSchema21default_schema_id_uriBe_
FNDA:1,_RNvYNtNtNtNtNtNtCs1x44INjIxA6_11integration8dsc_repo22derive_dsc_repo_schema10for_struct13with_bundling20without_schema_field7ExampleNtNtNtCs1p6hG0j9t4b_18dsc_lib_jsonschema8dsc_repo15dsc_repo_schema13DscRepoSchema25get_bundled_schema_id_uriBe_
FNDA:1,_RNvYNtNtNtNtNtNtCs1x44INjIxA6_11integration8dsc_repo22derive_dsc_repo_schema10for_struct13with_bundling20without_schema_field7ExampleNtNtNtCs1p6hG0j9t4b_18dsc_lib_jsonschema8dsc_repo15dsc_repo_schema13DscRepoSchema26get_enhanced_schema_id_uriBe_
FNDA:1,_RNvYNtNtNtNtNtNtCs1x44INjIxA6_11integration8dsc_repo22derive_dsc_repo_schema10for_struct13with_bundling20without_schema_field7ExampleNtNtNtCs1p6hG0j9t4b_18dsc_lib_jsonschema8dsc_repo15dsc_repo_schema13DscRepoSchema27get_canonical_schema_id_uriBe_
FNDA:3,_RNvYNtNtNtNtNtNtCs1x44INjIxA6_11integration8dsc_repo22derive_dsc_repo_schema10for_struct13with_bundling17with_schema_field7ExampleNtNtNtCs1p6hG0j9t4b_18dsc_lib_jsonschema8dsc_repo15dsc_repo_schema13DscRepoSchema21default_schema_id_uriBe_
FNDA:6,_RNvYNtNtNtNtNtNtCs1x44INjIxA6_11integration8dsc_repo22derive_dsc_repo_schema10for_struct13with_bundling17with_schema_field7ExampleNtNtNtCs1p6hG0j9t4b_18dsc_lib_jsonschema8dsc_repo15dsc_repo_schema13DscRepoSchema22recognized_schema_urisBe_
FNDA:4,_RNvYNtNtNtNtNtNtCs1x44INjIxA6_11integration8dsc_repo22derive_dsc_repo_schema10for_struct13with_bundling17with_schema_field7ExampleNtNtNtCs1p6hG0j9t4b_18dsc_lib_jsonschema8dsc_repo15dsc_repo_schema13DscRepoSchema24is_recognized_schema_uriBe_
FNDA:1,_RNvYNtNtNtNtNtNtCs1x44INjIxA6_11integration8dsc_repo22derive_dsc_repo_schema10for_struct13with_bundling17with_schema_field7ExampleNtNtNtCs1p6hG0j9t4b_18dsc_lib_jsonschema8dsc_repo15dsc_repo_schema13DscRepoSchema25get_bundled_schema_id_uriBe_
FNDA:1,_RNvYNtNtNtNtNtNtCs1x44INjIxA6_11integration8dsc_repo22derive_dsc_repo_schema10for_struct13with_bundling17with_schema_field7ExampleNtNtNtCs1p6hG0j9t4b_18dsc_lib_jsonschema8dsc_repo15dsc_repo_schema13DscRepoSchema26get_enhanced_schema_id_uriBe_
FNDA:1,_RNvYNtNtNtNtNtNtCs1x44INjIxA6_11integration8dsc_repo22derive_dsc_repo_schema10for_struct13with_bundling17with_schema_field7ExampleNtNtNtCs1p6hG0j9t4b_18dsc_lib_jsonschema8dsc_repo15dsc_repo_schema13DscRepoSchema27get_canonical_schema_id_uriBe_
FNDA:1,_RNvYNtNtNtNtNtNtCs1x44INjIxA6_11integration8dsc_repo22derive_dsc_repo_schema10for_struct13with_bundling17with_schema_field7ExampleNtNtNtCs1p6hG0j9t4b_18dsc_lib_jsonschema8dsc_repo15dsc_repo_schema13DscRepoSchema32recognized_schema_uris_subschemaBe_
FNDA:1,_RNvYNtNtNtNtNtNtCs1x44INjIxA6_11integration8dsc_repo22derive_dsc_repo_schema10for_struct16without_bundling20without_schema_field7ExampleNtNtNtCs1p6hG0j9t4b_18dsc_lib_jsonschema8dsc_repo15dsc_repo_schema13DscRepoSchema21default_schema_id_uriBe_
FNDA:1,_RNvYNtNtNtNtNtNtCs1x44INjIxA6_11integration8dsc_repo22derive_dsc_repo_schema10for_struct16without_bundling20without_schema_field7ExampleNtNtNtCs1p6hG0j9t4b_18dsc_lib_jsonschema8dsc_repo15dsc_repo_schema13DscRepoSchema25get_bundled_schema_id_uriBe_
FNDA:1,_RNvYNtNtNtNtNtNtCs1x44INjIxA6_11integration8dsc_repo22derive_dsc_repo_schema10for_struct16without_bundling20without_schema_field7ExampleNtNtNtCs1p6hG0j9t4b_18dsc_lib_jsonschema8dsc_repo15dsc_repo_schema13DscRepoSchema26get_enhanced_schema_id_uriBe_
FNDA:1,_RNvYNtNtNtNtNtNtCs1x44INjIxA6_11integration8dsc_repo22derive_dsc_repo_schema10for_struct16without_bundling20without_schema_field7ExampleNtNtNtCs1p6hG0j9t4b_18dsc_lib_jsonschema8dsc_repo15dsc_repo_schema13DscRepoSchema27get_canonical_schema_id_uriBe_
FNDA:3,_RNvYNtNtNtNtNtNtCs1x44INjIxA6_11integration8dsc_repo22derive_dsc_repo_schema10for_struct16without_bundling17with_schema_field7ExampleNtNtNtCs1p6hG0j9t4b_18dsc_lib_jsonschema8dsc_repo15dsc_repo_schema13DscRepoSchema21default_schema_id_uriBe_
FNDA:6,_RNvYNtNtNtNtNtNtCs1x44INjIxA6_11integration8dsc_repo22derive_dsc_repo_schema10for_struct16without_bundling17with_schema_field7ExampleNtNtNtCs1p6hG0j9t4b_18dsc_lib_jsonschema8dsc_repo15dsc_repo_schema13DscRepoSchema22recognized_schema_urisBe_
FNDA:4,_RNvYNtNtNtNtNtNtCs1x44INjIxA6_11integration8dsc_repo22derive_dsc_repo_schema10for_struct16without_bundling17with_schema_field7ExampleNtNtNtCs1p6hG0j9t4b_18dsc_lib_jsonschema8dsc_repo15dsc_repo_schema13DscRepoSchema24is_recognized_schema_uriBe_
FNDA:1,_RNvYNtNtNtNtNtNtCs1x44INjIxA6_11integration8dsc_repo22derive_dsc_repo_schema10for_struct16without_bundling17with_schema_field7ExampleNtNtNtCs1p6hG0j9t4b_18dsc_lib_jsonschema8dsc_repo15dsc_repo_schema13DscRepoSchema25get_bundled_schema_id_uriBe_
FNDA:1,_RNvYNtNtNtNtNtNtCs1x44INjIxA6_11integration8dsc_repo22derive_dsc_repo_schema10for_struct16without_bundling17with_schema_field7ExampleNtNtNtCs1p6hG0j9t4b_18dsc_lib_jsonschema8dsc_repo15dsc_repo_schema13DscRepoSchema26get_enhanced_schema_id_uriBe_
FNDA:1,_RNvYNtNtNtNtNtNtCs1x44INjIxA6_11integration8dsc_repo22derive_dsc_repo_schema10for_struct16without_bundling17with_schema_field7ExampleNtNtNtCs1p6hG0j9t4b_18dsc_lib_jsonschema8dsc_repo15dsc_repo_schema13DscRepoSchema27get_canonical_schema_id_uriBe_
FNDA:1,_RNvYNtNtNtNtNtNtCs1x44INjIxA6_11integration8dsc_repo22derive_dsc_repo_schema10for_struct16without_bundling17with_schema_field7ExampleNtNtNtCs1p6hG0j9t4b_18dsc_lib_jsonschema8dsc_repo15dsc_repo_schema13DscRepoSchema32recognized_schema_uris_subschemaBe_
FNDA:3,_RNvYNtNtNtNtNtNtCshNF1WHaY4M7_11integration8dsc_repo22derive_dsc_repo_schema10for_struct13with_bundling17with_schema_field7ExampleNtNtNtCse9HBjRuE3ke_18dsc_lib_jsonschema8dsc_repo15dsc_repo_schema13DscRepoSchema21default_schema_id_uriBe_
FNDA:6,_RNvYNtNtNtNtNtNtCshNF1WHaY4M7_11integration8dsc_repo22derive_dsc_repo_schema10for_struct13with_bundling17with_schema_field7ExampleNtNtNtCse9HBjRuE3ke_18dsc_lib_jsonschema8dsc_repo15dsc_repo_schema13DscRepoSchema22recognized_schema_urisBe_
FNDA:4,_RNvYNtNtNtNtNtNtCshNF1WHaY4M7_11integration8dsc_repo22derive_dsc_repo_schema10for_struct13with_bundling17with_schema_field7ExampleNtNtNtCse9HBjRuE3ke_18dsc_lib_jsonschema8dsc_repo15dsc_repo_schema13DscRepoSchema24is_recognized_schema_uriBe_
FNDA:1,_RNvYNtNtNtNtNtNtCshNF1WHaY4M7_11integration8dsc_repo22derive_dsc_repo_schema10for_struct13with_bundling17with_schema_field7ExampleNtNtNtCse9HBjRuE3ke_18dsc_lib_jsonschema8dsc_repo15dsc_repo_schema13DscRepoSchema25get_bundled_schema_id_uriBe_
FNDA:1,_RNvYNtNtNtNtNtNtCshNF1WHaY4M7_11integration8dsc_repo22derive_dsc_repo_schema10for_struct13with_bundling17with_schema_field7ExampleNtNtNtCse9HBjRuE3ke_18dsc_lib_jsonschema8dsc_repo15dsc_repo_schema13DscRepoSchema26get_enhanced_schema_id_uriBe_
FNDA:1,_RNvYNtNtNtNtNtNtCshNF1WHaY4M7_11integration8dsc_repo22derive_dsc_repo_schema10for_struct13with_bundling17with_schema_field7ExampleNtNtNtCse9HBjRuE3ke_18dsc_lib_jsonschema8dsc_repo15dsc_repo_schema13DscRepoSchema27get_canonical_schema_id_uriBe_
FNDA:1,_RNvYNtNtNtNtNtNtCshNF1WHaY4M7_11integration8dsc_repo22derive_dsc_repo_schema10for_struct13with_bundling17with_schema_field7ExampleNtNtNtCse9HBjRuE3ke_18dsc_lib_jsonschema8dsc_repo15dsc_repo_schema13DscRepoSchema32recognized_schema_uris_subschemaBe_
FNDA:1,_RNvYNtNtNtNtNtNtCshNF1WHaY4M7_11integration8dsc_repo22derive_dsc_repo_schema10for_struct16without_bundling20without_schema_field7ExampleNtNtNtCse9HBjRuE3ke_18dsc_lib_jsonschema8dsc_repo15dsc_repo_schema13DscRepoSchema21default_schema_id_uriBe_
FNDA:1,_RNvYNtNtNtNtNtNtCshNF1WHaY4M7_11integration8dsc_repo22derive_dsc_repo_schema10for_struct16without_bundling20without_schema_field7ExampleNtNtNtCse9HBjRuE3ke_18dsc_lib_jsonschema8dsc_repo15dsc_repo_schema13DscRepoSchema25get_bundled_schema_id_uriBe_
FNDA:1,_RNvYNtNtNtNtNtNtCshNF1WHaY4M7_11integration8dsc_repo22derive_dsc_repo_schema10for_struct16without_bundling20without_schema_field7ExampleNtNtNtCse9HBjRuE3ke_18dsc_lib_jsonschema8dsc_repo15dsc_repo_schema13DscRepoSchema26get_enhanced_schema_id_uriBe_
FNDA:1,_RNvYNtNtNtNtNtNtCshNF1WHaY4M7_11integration8dsc_repo22derive_dsc_repo_schema10for_struct16without_bundling20without_schema_field7ExampleNtNtNtCse9HBjRuE3ke_18dsc_lib_jsonschema8dsc_repo15dsc_repo_schema13DscRepoSchema27get_canonical_schema_id_uriBe_
FNDA:1,_RNvYNtNtNtNtNtCshNF1WHaY4M7_11integration8dsc_repo22derive_dsc_repo_schema8for_enum16without_bundling7ExampleNtNtNtCse9HBjRuE3ke_18dsc_lib_jsonschema8dsc_repo15dsc_repo_schema13DscRepoSchema21default_schema_id_uriBc_
FNDA:1,_RNvYNtNtNtNtNtCshNF1WHaY4M7_11integration8dsc_repo22derive_dsc_repo_schema8for_enum16without_bundling7ExampleNtNtNtCse9HBjRuE3ke_18dsc_lib_jsonschema8dsc_repo15dsc_repo_schema13DscRepoSchema25get_bundled_schema_id_uriBc_
FNDA:1,_RNvYNtNtNtNtNtCshNF1WHaY4M7_11integration8dsc_repo22derive_dsc_repo_schema8for_enum16without_bundling7ExampleNtNtNtCse9HBjRuE3ke_18dsc_lib_jsonschema8dsc_repo15dsc_repo_schema13DscRepoSchema26get_enhanced_schema_id_uriBc_
FNDA:1,_RNvYNtNtNtNtNtCshNF1WHaY4M7_11integration8dsc_repo22derive_dsc_repo_schema8for_enum16without_bundling7ExampleNtNtNtCse9HBjRuE3ke_18dsc_lib_jsonschema8dsc_repo15dsc_repo_schema13DscRepoSchema27get_canonical_schema_id_uriBc_
FNDA:3,_RNvYNtNtNtNtNtNtCshNF1WHaY4M7_11integration8dsc_repo22derive_dsc_repo_schema10for_struct16without_bundling17with_schema_field7ExampleNtNtNtCse9HBjRuE3ke_18dsc_lib_jsonschema8dsc_repo15dsc_repo_schema13DscRepoSchema21default_schema_id_uriBe_
FNDA:6,_RNvYNtNtNtNtNtNtCshNF1WHaY4M7_11integration8dsc_repo22derive_dsc_repo_schema10for_struct16without_bundling17with_schema_field7ExampleNtNtNtCse9HBjRuE3ke_18dsc_lib_jsonschema8dsc_repo15dsc_repo_schema13DscRepoSchema22recognized_schema_urisBe_
FNDA:4,_RNvYNtNtNtNtNtNtCshNF1WHaY4M7_11integration8dsc_repo22derive_dsc_repo_schema10for_struct16without_bundling17with_schema_field7ExampleNtNtNtCse9HBjRuE3ke_18dsc_lib_jsonschema8dsc_repo15dsc_repo_schema13DscRepoSchema24is_recognized_schema_uriBe_
FNDA:1,_RNvYNtNtNtNtNtNtCshNF1WHaY4M7_11integration8dsc_repo22derive_dsc_repo_schema10for_struct16without_bundling17with_schema_field7ExampleNtNtNtCse9HBjRuE3ke_18dsc_lib_jsonschema8dsc_repo15dsc_repo_schema13DscRepoSchema25get_bundled_schema_id_uriBe_
FNDA:1,_RNvYNtNtNtNtNtNtCshNF1WHaY4M7_11integration8dsc_repo22derive_dsc_repo_schema10for_struct16without_bundling17with_schema_field7ExampleNtNtNtCse9HBjRuE3ke_18dsc_lib_jsonschema8dsc_repo15dsc_repo_schema13DscRepoSchema26get_enhanced_schema_id_uriBe_
FNDA:1,_RNvYNtNtNtNtNtNtCshNF1WHaY4M7_11integration8dsc_repo22derive_dsc_repo_schema10for_struct16without_bundling17with_schema_field7ExampleNtNtNtCse9HBjRuE3ke_18dsc_lib_jsonschema8dsc_repo15dsc_repo_schema13DscRepoSchema27get_canonical_schema_id_uriBe_
FNDA:1,_RNvYNtNtNtNtNtNtCshNF1WHaY4M7_11integration8dsc_repo22derive_dsc_repo_schema10for_struct16without_bundling17with_schema_field7ExampleNtNtNtCse9HBjRuE3ke_18dsc_lib_jsonschema8dsc_repo15dsc_repo_schema13DscRepoSchema32recognized_schema_uris_subschemaBe_
FNDA:1,_RNvYNtNtNtNtNtNtCshNF1WHaY4M7_11integration8dsc_repo22derive_dsc_repo_schema10for_struct13with_bundling20without_schema_field7ExampleNtNtNtCse9HBjRuE3ke_18dsc_lib_jsonschema8dsc_repo15dsc_repo_schema13DscRepoSchema21default_schema_id_uriBe_
FNDA:1,_RNvYNtNtNtNtNtNtCshNF1WHaY4M7_11integration8dsc_repo22derive_dsc_repo_schema10for_struct13with_bundling20without_schema_field7ExampleNtNtNtCse9HBjRuE3ke_18dsc_lib_jsonschema8dsc_repo15dsc_repo_schema13DscRepoSchema25get_bundled_schema_id_uriBe_
FNDA:1,_RNvYNtNtNtNtNtNtCshNF1WHaY4M7_11integration8dsc_repo22derive_dsc_repo_schema10for_struct13with_bundling20without_schema_field7ExampleNtNtNtCse9HBjRuE3ke_18dsc_lib_jsonschema8dsc_repo15dsc_repo_schema13DscRepoSchema26get_enhanced_schema_id_uriBe_
FNDA:1,_RNvYNtNtNtNtNtNtCshNF1WHaY4M7_11integration8dsc_repo22derive_dsc_repo_schema10for_struct13with_bundling20without_schema_field7ExampleNtNtNtCse9HBjRuE3ke_18dsc_lib_jsonschema8dsc_repo15dsc_repo_schema13DscRepoSchema27get_canonical_schema_id_uriBe_
FNF:19
FNH:7
DA:70,156
DA:71,156
DA:72,156
DA:73,156
DA:76,156
DA:88,0
DA:89,0
DA:90,0
DA:91,0
DA:92,0
DA:94,0
DA:101,0
DA:102,0
DA:103,0
DA:108,0
DA:109,0
DA:110,0
DA:111,0
DA:112,0
DA:113,0
DA:117,0
DA:118,0
DA:119,0
DA:120,0
DA:121,0
DA:123,0
DA:126,0
DA:127,0
DA:128,0
DA:129,0
DA:131,0
DA:132,0
DA:133,0
DA:136,0
DA:137,0
DA:138,0
DA:139,0
DA:140,0
DA:141,0
DA:142,0
DA:143,0
DA:144,0
DA:145,0
DA:146,0
DA:149,0
DA:150,0
DA:154,0
DA:155,0
DA:156,0
DA:157,0
DA:158,0
DA:159,0
DA:160,0
DA:161,0
DA:162,0
DA:163,0
DA:164,0
DA:166,0
DA:169,0
DA:170,0
DA:171,0
DA:172,0
DA:173,0
DA:174,0
DA:175,0
DA:176,0
DA:180,0
DA:181,0
DA:182,0
DA:183,0
DA:184,0
DA:186,0
DA:188,0
DA:189,0
DA:190,0
DA:191,0
DA:192,0
DA:194,0
DA:195,0
DA:196,0
DA:198,0
DA:200,0
DA:202,0
DA:204,0
DA:205,0
DA:212,14
DA:213,14
DA:214,8
DA:215,6
DA:217,6
DA:218,6
DA:219,6
DA:220,6
DA:221,6
DA:222,6
DA:223,6
DA:224,14
DA:228,0
DA:229,0
DA:230,0
DA:231,0
DA:232,0
DA:237,14
DA:238,14
DA:239,14
DA:240,14
DA:241,14
DA:242,14
DA:243,14
DA:245,14
DA:249,0
DA:250,0
DA:251,0
DA:256,14
DA:257,14
DA:258,8
DA:259,6
DA:261,6
DA:262,6
DA:263,6
DA:264,6
DA:265,6
DA:266,6
DA:267,6
DA:268,14
DA:272,0
DA:273,0
DA:274,0
DA:275,0
DA:276,0
DA:284,48
DA:285,48
DA:286,48
DA:287,48
DA:290,48
DA:300,16
DA:301,16
DA:302,16
DA:303,16
DA:304,16
DA:307,16
DA:311,28
DA:312,28
DA:313,28
DA:331,0
DA:332,0
DA:333,0
DA:342,0
DA:343,0
DA:344,0
DA:346,0
DA:348,0
BRF:0
BRH:0
LF:152
LH:49
end_of_record
SF:/Users/steve/repos/DSC/lib/dsc-lib-jsonschema/src/dsc_repo/mod.rs
FN:123,_RNCNvNtCse9HBjRuE3ke_18dsc_lib_jsonschema8dsc_repo29get_recognized_uris_subschema0B5_
FN:200,_RNvNtCse9HBjRuE3ke_18dsc_lib_jsonschema8dsc_repo21get_schema_id_version
FN:172,_RNvNtCse9HBjRuE3ke_18dsc_lib_jsonschema8dsc_repo22get_default_schema_uri
FN:191,_RNvNtCse9HBjRuE3ke_18dsc_lib_jsonschema8dsc_repo23get_default_schema_form
FN:46,_RNvNtCse9HBjRuE3ke_18dsc_lib_jsonschema8dsc_repo25get_recognized_schema_uri
FN:76,_RNvNtCse9HBjRuE3ke_18dsc_lib_jsonschema8dsc_repo26get_recognized_schema_uris
FN:112,_RNvNtCse9HBjRuE3ke_18dsc_lib_jsonschema8dsc_repo29get_recognized_uris_subschema
FN:226,_RNvNtCse9HBjRuE3ke_18dsc_lib_jsonschema8dsc_repo33sync_bundled_resource_id_versions
FN:123,_RNCNvNtCs1p6hG0j9t4b_18dsc_lib_jsonschema8dsc_repo29get_recognized_uris_subschema0B5_
FN:200,_RNvNtCs1p6hG0j9t4b_18dsc_lib_jsonschema8dsc_repo21get_schema_id_version
FN:172,_RNvNtCs1p6hG0j9t4b_18dsc_lib_jsonschema8dsc_repo22get_default_schema_uri
FN:191,_RNvNtCs1p6hG0j9t4b_18dsc_lib_jsonschema8dsc_repo23get_default_schema_form
FN:46,_RNvNtCs1p6hG0j9t4b_18dsc_lib_jsonschema8dsc_repo25get_recognized_schema_uri
FN:76,_RNvNtCs1p6hG0j9t4b_18dsc_lib_jsonschema8dsc_repo26get_recognized_schema_uris
FN:112,_RNvNtCs1p6hG0j9t4b_18dsc_lib_jsonschema8dsc_repo29get_recognized_uris_subschema
FN:226,_RNvNtCs1p6hG0j9t4b_18dsc_lib_jsonschema8dsc_repo33sync_bundled_resource_id_versions
FN:123,_RNCNvNtCs8FPg1R8LBRe_18dsc_lib_jsonschema8dsc_repo29get_recognized_uris_subschema0B5_
FN:200,_RNvNtCs8FPg1R8LBRe_18dsc_lib_jsonschema8dsc_repo21get_schema_id_version
FN:172,_RNvNtCs8FPg1R8LBRe_18dsc_lib_jsonschema8dsc_repo22get_default_schema_uri
FN:191,_RNvNtCs8FPg1R8LBRe_18dsc_lib_jsonschema8dsc_repo23get_default_schema_form
FN:46,_RNvNtCs8FPg1R8LBRe_18dsc_lib_jsonschema8dsc_repo25get_recognized_schema_uri
FN:76,_RNvNtCs8FPg1R8LBRe_18dsc_lib_jsonschema8dsc_repo26get_recognized_schema_uris
FN:112,_RNvNtCs8FPg1R8LBRe_18dsc_lib_jsonschema8dsc_repo29get_recognized_uris_subschema
FN:226,_RNvNtCs8FPg1R8LBRe_18dsc_lib_jsonschema8dsc_repo33sync_bundled_resource_id_versions
FN:123,_RNCNvNtCs6DmBUIV3MEM_18dsc_lib_jsonschema8dsc_repo29get_recognized_uris_subschema0B5_
FN:200,_RNvNtCs6DmBUIV3MEM_18dsc_lib_jsonschema8dsc_repo21get_schema_id_version
FN:76,_RNvNtCs6DmBUIV3MEM_18dsc_lib_jsonschema8dsc_repo26get_recognized_schema_uris
FN:112,_RNvNtCs6DmBUIV3MEM_18dsc_lib_jsonschema8dsc_repo29get_recognized_uris_subschema
FN:226,_RNvNtCs6DmBUIV3MEM_18dsc_lib_jsonschema8dsc_repo33sync_bundled_resource_id_versions
FN:172,_RNvNtCs6DmBUIV3MEM_18dsc_lib_jsonschema8dsc_repo22get_default_schema_uri
FN:191,_RNvNtCs6DmBUIV3MEM_18dsc_lib_jsonschema8dsc_repo23get_default_schema_form
FN:46,_RNvNtCs6DmBUIV3MEM_18dsc_lib_jsonschema8dsc_repo25get_recognized_schema_uri
FN:172,_RNvNtCs92r3DgzGcjh_18dsc_lib_jsonschema8dsc_repo22get_default_schema_uri
FN:191,_RNvNtCs92r3DgzGcjh_18dsc_lib_jsonschema8dsc_repo23get_default_schema_form
FN:46,_RNvNtCs92r3DgzGcjh_18dsc_lib_jsonschema8dsc_repo25get_recognized_schema_uri
FN:123,_RNCNvNtCs92r3DgzGcjh_18dsc_lib_jsonschema8dsc_repo29get_recognized_uris_subschema0B5_
FN:200,_RNvNtCs92r3DgzGcjh_18dsc_lib_jsonschema8dsc_repo21get_schema_id_version
FN:76,_RNvNtCs92r3DgzGcjh_18dsc_lib_jsonschema8dsc_repo26get_recognized_schema_uris
FN:112,_RNvNtCs92r3DgzGcjh_18dsc_lib_jsonschema8dsc_repo29get_recognized_uris_subschema
FN:226,_RNvNtCs92r3DgzGcjh_18dsc_lib_jsonschema8dsc_repo33sync_bundled_resource_id_versions
FNDA:660,_RNCNvNtCse9HBjRuE3ke_18dsc_lib_jsonschema8dsc_repo29get_recognized_uris_subschema0B5_
FNDA:0,_RNvNtCse9HBjRuE3ke_18dsc_lib_jsonschema8dsc_repo21get_schema_id_version
FNDA:76,_RNvNtCse9HBjRuE3ke_18dsc_lib_jsonschema8dsc_repo22get_default_schema_uri
FNDA:76,_RNvNtCse9HBjRuE3ke_18dsc_lib_jsonschema8dsc_repo23get_default_schema_form
FNDA:2545,_RNvNtCse9HBjRuE3ke_18dsc_lib_jsonschema8dsc_repo25get_recognized_schema_uri
FNDA:32,_RNvNtCse9HBjRuE3ke_18dsc_lib_jsonschema8dsc_repo26get_recognized_schema_uris
FNDA:8,_RNvNtCse9HBjRuE3ke_18dsc_lib_jsonschema8dsc_repo29get_recognized_uris_subschema
FNDA:0,_RNvNtCse9HBjRuE3ke_18dsc_lib_jsonschema8dsc_repo33sync_bundled_resource_id_versions
FNDA:660,_RNCNvNtCs1p6hG0j9t4b_18dsc_lib_jsonschema8dsc_repo29get_recognized_uris_subschema0B5_
FNDA:0,_RNvNtCs1p6hG0j9t4b_18dsc_lib_jsonschema8dsc_repo21get_schema_id_version
FNDA:76,_RNvNtCs1p6hG0j9t4b_18dsc_lib_jsonschema8dsc_repo22get_default_schema_uri
FNDA:76,_RNvNtCs1p6hG0j9t4b_18dsc_lib_jsonschema8dsc_repo23get_default_schema_form
FNDA:2545,_RNvNtCs1p6hG0j9t4b_18dsc_lib_jsonschema8dsc_repo25get_recognized_schema_uri
FNDA:32,_RNvNtCs1p6hG0j9t4b_18dsc_lib_jsonschema8dsc_repo26get_recognized_schema_uris
FNDA:8,_RNvNtCs1p6hG0j9t4b_18dsc_lib_jsonschema8dsc_repo29get_recognized_uris_subschema
FNDA:0,_RNvNtCs1p6hG0j9t4b_18dsc_lib_jsonschema8dsc_repo33sync_bundled_resource_id_versions
FNDA:1800,_RNCNvNtCs8FPg1R8LBRe_18dsc_lib_jsonschema8dsc_repo29get_recognized_uris_subschema0B5_
FNDA:0,_RNvNtCs8FPg1R8LBRe_18dsc_lib_jsonschema8dsc_repo21get_schema_id_version
FNDA:1251,_RNvNtCs8FPg1R8LBRe_18dsc_lib_jsonschema8dsc_repo22get_default_schema_uri
FNDA:1251,_RNvNtCs8FPg1R8LBRe_18dsc_lib_jsonschema8dsc_repo23get_default_schema_form
FNDA:3051,_RNvNtCs8FPg1R8LBRe_18dsc_lib_jsonschema8dsc_repo25get_recognized_schema_uri
FNDA:20,_RNvNtCs8FPg1R8LBRe_18dsc_lib_jsonschema8dsc_repo26get_recognized_schema_uris
FNDA:20,_RNvNtCs8FPg1R8LBRe_18dsc_lib_jsonschema8dsc_repo29get_recognized_uris_subschema
FNDA:0,_RNvNtCs8FPg1R8LBRe_18dsc_lib_jsonschema8dsc_repo33sync_bundled_resource_id_versions
FNDA:0,_RNCNvNtCs6DmBUIV3MEM_18dsc_lib_jsonschema8dsc_repo29get_recognized_uris_subschema0B5_
FNDA:0,_RNvNtCs6DmBUIV3MEM_18dsc_lib_jsonschema8dsc_repo21get_schema_id_version
FNDA:0,_RNvNtCs6DmBUIV3MEM_18dsc_lib_jsonschema8dsc_repo26get_recognized_schema_uris
FNDA:0,_RNvNtCs6DmBUIV3MEM_18dsc_lib_jsonschema8dsc_repo29get_recognized_uris_subschema
FNDA:0,_RNvNtCs6DmBUIV3MEM_18dsc_lib_jsonschema8dsc_repo33sync_bundled_resource_id_versions
FNDA:4,_RNvNtCs6DmBUIV3MEM_18dsc_lib_jsonschema8dsc_repo22get_default_schema_uri
FNDA:4,_RNvNtCs6DmBUIV3MEM_18dsc_lib_jsonschema8dsc_repo23get_default_schema_form
FNDA:9,_RNvNtCs6DmBUIV3MEM_18dsc_lib_jsonschema8dsc_repo25get_recognized_schema_uri
FNDA:4,_RNvNtCs92r3DgzGcjh_18dsc_lib_jsonschema8dsc_repo22get_default_schema_uri
FNDA:4,_RNvNtCs92r3DgzGcjh_18dsc_lib_jsonschema8dsc_repo23get_default_schema_form
FNDA:9,_RNvNtCs92r3DgzGcjh_18dsc_lib_jsonschema8dsc_repo25get_recognized_schema_uri
FNDA:0,_RNCNvNtCs92r3DgzGcjh_18dsc_lib_jsonschema8dsc_repo29get_recognized_uris_subschema0B5_
FNDA:0,_RNvNtCs92r3DgzGcjh_18dsc_lib_jsonschema8dsc_repo21get_schema_id_version
FNDA:0,_RNvNtCs92r3DgzGcjh_18dsc_lib_jsonschema8dsc_repo26get_recognized_schema_uris
FNDA:0,_RNvNtCs92r3DgzGcjh_18dsc_lib_jsonschema8dsc_repo29get_recognized_uris_subschema
FNDA:0,_RNvNtCs92r3DgzGcjh_18dsc_lib_jsonschema8dsc_repo33sync_bundled_resource_id_versions
FNF:8
FNH:6
DA:46,8159
DA:47,8159
DA:48,8159
DA:49,8159
DA:50,8159
DA:51,8159
DA:52,8159
DA:53,8159
DA:55,8159
DA:56,8159
DA:58,8159
DA:76,84
DA:77,84
DA:78,84
DA:79,84
DA:80,84
DA:81,84
DA:82,84
DA:83,70
DA:85,14
DA:87,168
DA:88,448
DA:89,6720
DA:90,6720
DA:91,6720
DA:92,6720
DA:93,6720
DA:94,6720
DA:95,6720
DA:96,6720
DA:97,6720
DA:98,6720
DA:99,6720
DA:103,84
DA:104,84
DA:112,36
DA:113,36
DA:114,36
DA:115,36
DA:116,36
DA:117,36
DA:118,36
DA:119,36
DA:120,36
DA:121,36
DA:122,36
DA:123,3120
DA:124,36
DA:126,36
DA:127,36
DA:128,36
DA:129,36
DA:132,36
DA:133,36
DA:134,36
DA:135,36
DA:136,36
DA:137,36
DA:138,36
DA:139,36
DA:140,36
DA:141,36
DA:142,36
DA:143,36
DA:144,36
DA:145,36
DA:146,432
DA:147,432
DA:148,72
DA:149,360
DA:152,36
DA:153,36
DA:172,1411
DA:173,1411
DA:174,1411
DA:175,1411
DA:176,1411
DA:177,1411
DA:178,1411
DA:179,1411
DA:180,1411
DA:181,1411
DA:182,1411
DA:184,1411
DA:191,1411
DA:192,1411
DA:193,1139
DA:195,272
DA:197,1411
DA:200,0
DA:201,0
DA:204,0
DA:205,0
DA:206,0
DA:207,0
DA:209,0
DA:210,0
DA:211,0
DA:212,0
DA:213,0
DA:214,0
DA:226,0
DA:228,0
DA:229,0
DA:230,0
DA:232,0
DA:233,0
DA:234,0
DA:237,0
DA:241,0
DA:242,0
DA:243,0
DA:244,0
DA:245,0
DA:246,0
DA:247,0
DA:249,0
DA:250,0
DA:251,0
DA:254,0
DA:255,0
DA:256,0
DA:257,0
DA:259,0
DA:263,0
DA:264,0
BRF:0
BRH:0
LF:126
LH:89
end_of_record
SF:/Users/steve/repos/DSC/lib/dsc-lib-jsonschema/src/dsc_repo/schema_form.rs
FN:40,_RNvMNtNtCse9HBjRuE3ke_18dsc_lib_jsonschema8dsc_repo11schema_formNtB2_10SchemaForm12to_extension
FN:57,_RNvMNtNtCse9HBjRuE3ke_18dsc_lib_jsonschema8dsc_repo11schema_formNtB2_10SchemaForm16to_folder_prefix
FN:66,_RNvMNtNtCse9HBjRuE3ke_18dsc_lib_jsonschema8dsc_repo11schema_formNtB2_10SchemaForm3all
FN:40,_RNvMNtNtCs1p6hG0j9t4b_18dsc_lib_jsonschema8dsc_repo11schema_formNtB2_10SchemaForm12to_extension
FN:57,_RNvMNtNtCs1p6hG0j9t4b_18dsc_lib_jsonschema8dsc_repo11schema_formNtB2_10SchemaForm16to_folder_prefix
FN:66,_RNvMNtNtCs1p6hG0j9t4b_18dsc_lib_jsonschema8dsc_repo11schema_formNtB2_10SchemaForm3all
FN:40,_RNvMNtNtCs8FPg1R8LBRe_18dsc_lib_jsonschema8dsc_repo11schema_formNtB2_10SchemaForm12to_extension
FN:57,_RNvMNtNtCs8FPg1R8LBRe_18dsc_lib_jsonschema8dsc_repo11schema_formNtB2_10SchemaForm16to_folder_prefix
FN:66,_RNvMNtNtCs8FPg1R8LBRe_18dsc_lib_jsonschema8dsc_repo11schema_formNtB2_10SchemaForm3all
FN:66,_RNvMNtNtCs6DmBUIV3MEM_18dsc_lib_jsonschema8dsc_repo11schema_formNtB2_10SchemaForm3all
FN:40,_RNvMNtNtCs6DmBUIV3MEM_18dsc_lib_jsonschema8dsc_repo11schema_formNtB2_10SchemaForm12to_extension
FN:57,_RNvMNtNtCs6DmBUIV3MEM_18dsc_lib_jsonschema8dsc_repo11schema_formNtB2_10SchemaForm16to_folder_prefix
FN:66,_RNvMNtNtCs92r3DgzGcjh_18dsc_lib_jsonschema8dsc_repo11schema_formNtB2_10SchemaForm3all
FN:40,_RNvMNtNtCs92r3DgzGcjh_18dsc_lib_jsonschema8dsc_repo11schema_formNtB2_10SchemaForm12to_extension
FN:57,_RNvMNtNtCs92r3DgzGcjh_18dsc_lib_jsonschema8dsc_repo11schema_formNtB2_10SchemaForm16to_folder_prefix
FNDA:2545,_RNvMNtNtCse9HBjRuE3ke_18dsc_lib_jsonschema8dsc_repo11schema_formNtB2_10SchemaForm12to_extension
FNDA:2545,_RNvMNtNtCse9HBjRuE3ke_18dsc_lib_jsonschema8dsc_repo11schema_formNtB2_10SchemaForm16to_folder_prefix
FNDA:25,_RNvMNtNtCse9HBjRuE3ke_18dsc_lib_jsonschema8dsc_repo11schema_formNtB2_10SchemaForm3all
FNDA:2545,_RNvMNtNtCs1p6hG0j9t4b_18dsc_lib_jsonschema8dsc_repo11schema_formNtB2_10SchemaForm12to_extension
FNDA:2545,_RNvMNtNtCs1p6hG0j9t4b_18dsc_lib_jsonschema8dsc_repo11schema_formNtB2_10SchemaForm16to_folder_prefix
FNDA:25,_RNvMNtNtCs1p6hG0j9t4b_18dsc_lib_jsonschema8dsc_repo11schema_formNtB2_10SchemaForm3all
FNDA:3051,_RNvMNtNtCs8FPg1R8LBRe_18dsc_lib_jsonschema8dsc_repo11schema_formNtB2_10SchemaForm12to_extension
FNDA:3051,_RNvMNtNtCs8FPg1R8LBRe_18dsc_lib_jsonschema8dsc_repo11schema_formNtB2_10SchemaForm16to_folder_prefix
FNDA:20,_RNvMNtNtCs8FPg1R8LBRe_18dsc_lib_jsonschema8dsc_repo11schema_formNtB2_10SchemaForm3all
FNDA:0,_RNvMNtNtCs6DmBUIV3MEM_18dsc_lib_jsonschema8dsc_repo11schema_formNtB2_10SchemaForm3all
FNDA:9,_RNvMNtNtCs6DmBUIV3MEM_18dsc_lib_jsonschema8dsc_repo11schema_formNtB2_10SchemaForm12to_extension
FNDA:9,_RNvMNtNtCs6DmBUIV3MEM_18dsc_lib_jsonschema8dsc_repo11schema_formNtB2_10SchemaForm16to_folder_prefix
FNDA:0,_RNvMNtNtCs92r3DgzGcjh_18dsc_lib_jsonschema8dsc_repo11schema_formNtB2_10SchemaForm3all
FNDA:9,_RNvMNtNtCs92r3DgzGcjh_18dsc_lib_jsonschema8dsc_repo11schema_formNtB2_10SchemaForm12to_extension
FNDA:9,_RNvMNtNtCs92r3DgzGcjh_18dsc_lib_jsonschema8dsc_repo11schema_formNtB2_10SchemaForm16to_folder_prefix
FNF:3
FNH:3
DA:40,8159
DA:41,8159
DA:42,6053
DA:43,2106
DA:45,8159
DA:57,8159
DA:58,8159
DA:59,5353
DA:60,2806
DA:62,8159
DA:66,70
DA:67,70
DA:68,70
DA:69,70
DA:70,70
DA:72,70
BRF:0
BRH:0
LF:16
LH:16
end_of_record
SF:/Users/steve/repos/DSC/lib/dsc-lib-jsonschema/src/dsc_repo/schema_uri_prefix.rs
FN:30,_RNvMs_NtNtCse9HBjRuE3ke_18dsc_lib_jsonschema8dsc_repo17schema_uri_prefixNtB4_15SchemaUriPrefix3all
FN:19,_RNvXNtNtCse9HBjRuE3ke_18dsc_lib_jsonschema8dsc_repo17schema_uri_prefixNtB2_15SchemaUriPrefixNtNtCsitGFVNq7Ifu_4core3fmt7Display3fmt
FN:30,_RNvMs_NtNtCs1p6hG0j9t4b_18dsc_lib_jsonschema8dsc_repo17schema_uri_prefixNtB4_15SchemaUriPrefix3all
FN:19,_RNvXNtNtCs1p6hG0j9t4b_18dsc_lib_jsonschema8dsc_repo17schema_uri_prefixNtB2_15SchemaUriPrefixNtNtCsitGFVNq7Ifu_4core3fmt7Display3fmt
FN:30,_RNvMs_NtNtCs8FPg1R8LBRe_18dsc_lib_jsonschema8dsc_repo17schema_uri_prefixNtB4_15SchemaUriPrefix3all
FN:19,_RNvXNtNtCs8FPg1R8LBRe_18dsc_lib_jsonschema8dsc_repo17schema_uri_prefixNtB2_15SchemaUriPrefixNtNtCsitGFVNq7Ifu_4core3fmt7Display3fmt
FN:30,_RNvMs_NtNtCs6DmBUIV3MEM_18dsc_lib_jsonschema8dsc_repo17schema_uri_prefixNtB4_15SchemaUriPrefix3all
FN:19,_RNvXNtNtCs6DmBUIV3MEM_18dsc_lib_jsonschema8dsc_repo17schema_uri_prefixNtB2_15SchemaUriPrefixNtNtCsitGFVNq7Ifu_4core3fmt7Display3fmt
FN:30,_RNvMs_NtNtCs92r3DgzGcjh_18dsc_lib_jsonschema8dsc_repo17schema_uri_prefixNtB4_15SchemaUriPrefix3all
FN:19,_RNvXNtNtCs92r3DgzGcjh_18dsc_lib_jsonschema8dsc_repo17schema_uri_prefixNtB2_15SchemaUriPrefixNtNtCsitGFVNq7Ifu_4core3fmt7Display3fmt
FNDA:32,_RNvMs_NtNtCse9HBjRuE3ke_18dsc_lib_jsonschema8dsc_repo17schema_uri_prefixNtB4_15SchemaUriPrefix3all
FNDA:2545,_RNvXNtNtCse9HBjRuE3ke_18dsc_lib_jsonschema8dsc_repo17schema_uri_prefixNtB2_15SchemaUriPrefixNtNtCsitGFVNq7Ifu_4core3fmt7Display3fmt
FNDA:32,_RNvMs_NtNtCs1p6hG0j9t4b_18dsc_lib_jsonschema8dsc_repo17schema_uri_prefixNtB4_15SchemaUriPrefix3all
FNDA:2545,_RNvXNtNtCs1p6hG0j9t4b_18dsc_lib_jsonschema8dsc_repo17schema_uri_prefixNtB2_15SchemaUriPrefixNtNtCsitGFVNq7Ifu_4core3fmt7Display3fmt
FNDA:20,_RNvMs_NtNtCs8FPg1R8LBRe_18dsc_lib_jsonschema8dsc_repo17schema_uri_prefixNtB4_15SchemaUriPrefix3all
FNDA:3051,_RNvXNtNtCs8FPg1R8LBRe_18dsc_lib_jsonschema8dsc_repo17schema_uri_prefixNtB2_15SchemaUriPrefixNtNtCsitGFVNq7Ifu_4core3fmt7Display3fmt
FNDA:0,_RNvMs_NtNtCs6DmBUIV3MEM_18dsc_lib_jsonschema8dsc_repo17schema_uri_prefixNtB4_15SchemaUriPrefix3all
FNDA:9,_RNvXNtNtCs6DmBUIV3MEM_18dsc_lib_jsonschema8dsc_repo17schema_uri_prefixNtB2_15SchemaUriPrefixNtNtCsitGFVNq7Ifu_4core3fmt7Display3fmt
FNDA:0,_RNvMs_NtNtCs92r3DgzGcjh_18dsc_lib_jsonschema8dsc_repo17schema_uri_prefixNtB4_15SchemaUriPrefix3all
FNDA:9,_RNvXNtNtCs92r3DgzGcjh_18dsc_lib_jsonschema8dsc_repo17schema_uri_prefixNtB2_15SchemaUriPrefixNtNtCsitGFVNq7Ifu_4core3fmt7Display3fmt
FNF:2
FNH:2
DA:19,8159
DA:20,8159
DA:21,4799
DA:22,3360
DA:24,8159
DA:30,84
DA:31,84
DA:32,84
DA:33,84
DA:35,84
BRF:0
BRH:0
LF:10
LH:10
end_of_record
SF:/Users/steve/repos/DSC/lib/dsc-lib-jsonschema/src/schema_utility_extensions.rs
FN:2171,_RNCNvXNtCse9HBjRuE3ke_18dsc_lib_jsonschema25schema_utility_extensionsNtNtCsdG7205R6am3_8schemars6schema6SchemaNtB4_23SchemaUtilityExtensions18replace_references0B6_
FN:1990,_RNCNvXNtCse9HBjRuE3ke_18dsc_lib_jsonschema25schema_utility_extensionsNtNtCsdG7205R6am3_8schemars6schema6SchemaNtB4_23SchemaUtilityExtensions21rename_defs_subschema0B6_
FN:2078,_RNCNvXNtCse9HBjRuE3ke_18dsc_lib_jsonschema25schema_utility_extensionsNtNtCsdG7205R6am3_8schemars6schema6SchemaNtB4_23SchemaUtilityExtensions22get_property_subschema0B6_
FN:2079,_RNCNvXNtCse9HBjRuE3ke_18dsc_lib_jsonschema25schema_utility_extensionsNtNtCsdG7205R6am3_8schemars6schema6SchemaNtB4_23SchemaUtilityExtensions22get_property_subschemas_0B6_
FN:1838,_RNCNvXNtCse9HBjRuE3ke_18dsc_lib_jsonschema25schema_utility_extensionsNtNtCsdG7205R6am3_8schemars6schema6SchemaNtB4_23SchemaUtilityExtensions24get_keyword_as_subschema0B6_
FN:2083,_RNCNvXNtCse9HBjRuE3ke_18dsc_lib_jsonschema25schema_utility_extensionsNtNtCsdG7205R6am3_8schemars6schema6SchemaNtB4_23SchemaUtilityExtensions26get_property_subschema_mut0B6_
FN:2084,_RNCNvXNtCse9HBjRuE3ke_18dsc_lib_jsonschema25schema_utility_extensionsNtNtCsdG7205R6am3_8schemars6schema6SchemaNtB4_23SchemaUtilityExtensions26get_property_subschema_muts_0B6_
FN:1842,_RNCNvXNtCse9HBjRuE3ke_18dsc_lib_jsonschema25schema_utility_extensionsNtNtCsdG7205R6am3_8schemars6schema6SchemaNtB4_23SchemaUtilityExtensions28get_keyword_as_subschema_mut0B6_
FN:1981,_RNCNvXNtCse9HBjRuE3ke_18dsc_lib_jsonschema25schema_utility_extensionsNtNtCsdG7205R6am3_8schemars6schema6SchemaNtB4_23SchemaUtilityExtensions31remove_bundled_schema_resources0B6_
FN:1887,_RNCNvXNtCse9HBjRuE3ke_18dsc_lib_jsonschema25schema_utility_extensionsNtNtCsdG7205R6am3_8schemars6schema6SchemaNtB4_23SchemaUtilityExtensions33get_defs_subschema_from_reference0B6_
FN:2011,_RNCNvXNtCse9HBjRuE3ke_18dsc_lib_jsonschema25schema_utility_extensionsNtNtCsdG7205R6am3_8schemars6schema6SchemaNtB4_23SchemaUtilityExtensions35rename_defs_subschema_for_reference0B6_
FN:1909,_RNCNvXNtCse9HBjRuE3ke_18dsc_lib_jsonschema25schema_utility_extensionsNtNtCsdG7205R6am3_8schemars6schema6SchemaNtB4_23SchemaUtilityExtensions37get_defs_subschema_from_reference_mut0B6_
FN:2167,_RNCNvXNtCse9HBjRuE3ke_18dsc_lib_jsonschema25schema_utility_extensionsNtNtCsdG7205R6am3_8schemars6schema6SchemaNtB4_23SchemaUtilityExtensions41get_references_to_bundled_schema_resource0B6_
FN:2064,_RNCNvXNtCse9HBjRuE3ke_18dsc_lib_jsonschema25schema_utility_extensionsNtNtCsdG7205R6am3_8schemars6schema6SchemaNtB4_23SchemaUtilityExtensions6set_id0B6_
FN:1851,_RNvXNtCse9HBjRuE3ke_18dsc_lib_jsonschema25schema_utility_extensionsNtNtCsdG7205R6am3_8schemars6schema6SchemaNtB2_23SchemaUtilityExtensions12get_defs_mut
FN:2048,_RNvXNtCse9HBjRuE3ke_18dsc_lib_jsonschema25schema_utility_extensionsNtNtCsdG7205R6am3_8schemars6schema6SchemaNtB2_23SchemaUtilityExtensions13get_id_as_url
FN:2070,_RNvXNtCse9HBjRuE3ke_18dsc_lib_jsonschema25schema_utility_extensionsNtNtCsdG7205R6am3_8schemars6schema6SchemaNtB2_23SchemaUtilityExtensions14get_properties
FN:2086,_RNvXNtCse9HBjRuE3ke_18dsc_lib_jsonschema25schema_utility_extensionsNtNtCsdG7205R6am3_8schemars6schema6SchemaNtB2_23SchemaUtilityExtensions14get_references
FN:2055,_RNvXNtCse9HBjRuE3ke_18dsc_lib_jsonschema25schema_utility_extensionsNtNtCsdG7205R6am3_8schemars6schema6SchemaNtB2_23SchemaUtilityExtensions14has_id_keyword
FN:1803,_RNvXNtCse9HBjRuE3ke_18dsc_lib_jsonschema25schema_utility_extensionsNtNtCsdG7205R6am3_8schemars6schema6SchemaNtB2_23SchemaUtilityExtensions18get_keyword_as_f64
FN:1807,_RNvXNtCse9HBjRuE3ke_18dsc_lib_jsonschema25schema_utility_extensionsNtNtCsdG7205R6am3_8schemars6schema6SchemaNtB2_23SchemaUtilityExtensions18get_keyword_as_i64
FN:1827,_RNvXNtCse9HBjRuE3ke_18dsc_lib_jsonschema25schema_utility_extensionsNtNtCsdG7205R6am3_8schemars6schema6SchemaNtB2_23SchemaUtilityExtensions18get_keyword_as_str
FN:1844,_RNvXNtCse9HBjRuE3ke_18dsc_lib_jsonschema25schema_utility_extensionsNtNtCsdG7205R6am3_8schemars6schema6SchemaNtB2_23SchemaUtilityExtensions18get_keyword_as_u64
FN:2073,_RNvXNtCse9HBjRuE3ke_18dsc_lib_jsonschema25schema_utility_extensionsNtNtCsdG7205R6am3_8schemars6schema6SchemaNtB2_23SchemaUtilityExtensions18get_properties_mut
FN:2170,_RNvXNtCse9HBjRuE3ke_18dsc_lib_jsonschema25schema_utility_extensionsNtNtCsdG7205R6am3_8schemars6schema6SchemaNtB2_23SchemaUtilityExtensions18replace_references
FN:1799,_RNvXNtCse9HBjRuE3ke_18dsc_lib_jsonschema25schema_utility_extensionsNtNtCsdG7205R6am3_8schemars6schema6SchemaNtB2_23SchemaUtilityExtensions19get_keyword_as_bool
FN:1811,_RNvXNtCse9HBjRuE3ke_18dsc_lib_jsonschema25schema_utility_extensionsNtNtCsdG7205R6am3_8schemars6schema6SchemaNtB2_23SchemaUtilityExtensions19get_keyword_as_null
FN:1791,_RNvXNtCse9HBjRuE3ke_18dsc_lib_jsonschema25schema_utility_extensionsNtNtCsdG7205R6am3_8schemars6schema6SchemaNtB2_23SchemaUtilityExtensions20get_keyword_as_array
FN:1815,_RNvXNtCse9HBjRuE3ke_18dsc_lib_jsonschema25schema_utility_extensionsNtNtCsdG7205R6am3_8schemars6schema6SchemaNtB2_23SchemaUtilityExtensions21get_keyword_as_number
FN:1819,_RNvXNtCse9HBjRuE3ke_18dsc_lib_jsonschema25schema_utility_extensionsNtNtCsdG7205R6am3_8schemars6schema6SchemaNtB2_23SchemaUtilityExtensions21get_keyword_as_object
FN:1831,_RNvXNtCse9HBjRuE3ke_18dsc_lib_jsonschema25schema_utility_extensionsNtNtCsdG7205R6am3_8schemars6schema6SchemaNtB2_23SchemaUtilityExtensions21get_keyword_as_string
FN:1944,_RNvXNtCse9HBjRuE3ke_18dsc_lib_jsonschema25schema_utility_extensionsNtNtCsdG7205R6am3_8schemars6schema6SchemaNtB2_23SchemaUtilityExtensions21insert_defs_subschema
FN:1985,_RNvXNtCse9HBjRuE3ke_18dsc_lib_jsonschema25schema_utility_extensionsNtNtCsdG7205R6am3_8schemars6schema6SchemaNtB2_23SchemaUtilityExtensions21rename_defs_subschema
FN:2076,_RNvXNtCse9HBjRuE3ke_18dsc_lib_jsonschema25schema_utility_extensionsNtNtCsdG7205R6am3_8schemars6schema6SchemaNtB2_23SchemaUtilityExtensions22get_property_subschema
FN:1795,_RNvXNtCse9HBjRuE3ke_18dsc_lib_jsonschema25schema_utility_extensionsNtNtCsdG7205R6am3_8schemars6schema6SchemaNtB2_23SchemaUtilityExtensions24get_keyword_as_array_mut
FN:1836,_RNvXNtCse9HBjRuE3ke_18dsc_lib_jsonschema25schema_utility_extensionsNtNtCsdG7205R6am3_8schemars6schema6SchemaNtB2_23SchemaUtilityExtensions24get_keyword_as_subschema
FN:1823,_RNvXNtCse9HBjRuE3ke_18dsc_lib_jsonschema25schema_utility_extensionsNtNtCsdG7205R6am3_8schemars6schema6SchemaNtB2_23SchemaUtilityExtensions25get_keyword_as_object_mut
FN:1854,_RNvXNtCse9HBjRuE3ke_18dsc_lib_jsonschema25schema_utility_extensionsNtNtCsdG7205R6am3_8schemars6schema6SchemaNtB2_23SchemaUtilityExtensions26get_defs_subschema_from_id
FN:2081,_RNvXNtCse9HBjRuE3ke_18dsc_lib_jsonschema25schema_utility_extensionsNtNtCsdG7205R6am3_8schemars6schema6SchemaNtB2_23SchemaUtilityExtensions26get_property_subschema_mut
FN:2229,_RNvXNtCse9HBjRuE3ke_18dsc_lib_jsonschema25schema_utility_extensionsNtNtCsdG7205R6am3_8schemars6schema6SchemaNtB2_23SchemaUtilityExtensions26to_value_with_stable_order
FN:1840,_RNvXNtCse9HBjRuE3ke_18dsc_lib_jsonschema25schema_utility_extensionsNtNtCsdG7205R6am3_8schemars6schema6SchemaNtB2_23SchemaUtilityExtensions28get_keyword_as_subschema_mut
FN:1869,_RNvXNtCse9HBjRuE3ke_18dsc_lib_jsonschema25schema_utility_extensionsNtNtCsdG7205R6am3_8schemars6schema6SchemaNtB2_23SchemaUtilityExtensions30get_defs_subschema_from_id_mut
FN:2019,_RNvXNtCse9HBjRuE3ke_18dsc_lib_jsonschema25schema_utility_extensionsNtNtCsdG7205R6am3_8schemars6schema6SchemaNtB2_23SchemaUtilityExtensions31get_bundled_schema_resource_ids
FN:1965,_RNvXNtCse9HBjRuE3ke_18dsc_lib_jsonschema25schema_utility_extensionsNtNtCsdG7205R6am3_8schemars6schema6SchemaNtB2_23SchemaUtilityExtensions31remove_bundled_schema_resources
FN:1884,_RNvXNtCse9HBjRuE3ke_18dsc_lib_jsonschema25schema_utility_extensionsNtNtCsdG7205R6am3_8schemars6schema6SchemaNtB2_23SchemaUtilityExtensions33get_defs_subschema_from_reference
FN:2226,_RNvXNtCse9HBjRuE3ke_18dsc_lib_jsonschema25schema_utility_extensionsNtNtCsdG7205R6am3_8schemars6schema6SchemaNtB2_23SchemaUtilityExtensions33reference_is_for_bundled_resource
FN:1998,_RNvXNtCse9HBjRuE3ke_18dsc_lib_jsonschema25schema_utility_extensionsNtNtCsdG7205R6am3_8schemars6schema6SchemaNtB2_23SchemaUtilityExtensions35rename_defs_subschema_for_reference
FN:1928,_RNvXNtCse9HBjRuE3ke_18dsc_lib_jsonschema25schema_utility_extensionsNtNtCsdG7205R6am3_8schemars6schema6SchemaNtB2_23SchemaUtilityExtensions36get_bundled_schema_resource_defs_key
FN:1906,_RNvXNtCse9HBjRuE3ke_18dsc_lib_jsonschema25schema_utility_extensionsNtNtCsdG7205R6am3_8schemars6schema6SchemaNtB2_23SchemaUtilityExtensions37get_defs_subschema_from_reference_mut
FN:2147,_RNvXNtCse9HBjRuE3ke_18dsc_lib_jsonschema25schema_utility_extensionsNtNtCsdG7205R6am3_8schemars6schema6SchemaNtB2_23SchemaUtilityExtensions41get_references_to_bundled_schema_resource
FN:2240,_RNvXNtCse9HBjRuE3ke_18dsc_lib_jsonschema25schema_utility_extensionsNtNtCsdG7205R6am3_8schemars6schema6SchemaNtB2_23SchemaUtilityExtensions48canonicalize_refs_and_defs_for_bundled_resources
FN:2045,_RNvXNtCse9HBjRuE3ke_18dsc_lib_jsonschema25schema_utility_extensionsNtNtCsdG7205R6am3_8schemars6schema6SchemaNtB2_23SchemaUtilityExtensions6get_id
FN:2058,_RNvXNtCse9HBjRuE3ke_18dsc_lib_jsonschema25schema_utility_extensionsNtNtCsdG7205R6am3_8schemars6schema6SchemaNtB2_23SchemaUtilityExtensions6set_id
FN:1848,_RNvXNtCse9HBjRuE3ke_18dsc_lib_jsonschema25schema_utility_extensionsNtNtCsdG7205R6am3_8schemars6schema6SchemaNtB2_23SchemaUtilityExtensions8get_defs
FN:1851,_RNvXNtCs1p6hG0j9t4b_18dsc_lib_jsonschema25schema_utility_extensionsNtNtCsdG7205R6am3_8schemars6schema6SchemaNtB2_23SchemaUtilityExtensions12get_defs_mut
FN:2048,_RNvXNtCs1p6hG0j9t4b_18dsc_lib_jsonschema25schema_utility_extensionsNtNtCsdG7205R6am3_8schemars6schema6SchemaNtB2_23SchemaUtilityExtensions13get_id_as_url
FN:2070,_RNvXNtCs1p6hG0j9t4b_18dsc_lib_jsonschema25schema_utility_extensionsNtNtCsdG7205R6am3_8schemars6schema6SchemaNtB2_23SchemaUtilityExtensions14get_properties
FN:2086,_RNvXNtCs1p6hG0j9t4b_18dsc_lib_jsonschema25schema_utility_extensionsNtNtCsdG7205R6am3_8schemars6schema6SchemaNtB2_23SchemaUtilityExtensions14get_references
FN:2055,_RNvXNtCs1p6hG0j9t4b_18dsc_lib_jsonschema25schema_utility_extensionsNtNtCsdG7205R6am3_8schemars6schema6SchemaNtB2_23SchemaUtilityExtensions14has_id_keyword
FN:1803,_RNvXNtCs1p6hG0j9t4b_18dsc_lib_jsonschema25schema_utility_extensionsNtNtCsdG7205R6am3_8schemars6schema6SchemaNtB2_23SchemaUtilityExtensions18get_keyword_as_f64
FN:1807,_RNvXNtCs1p6hG0j9t4b_18dsc_lib_jsonschema25schema_utility_extensionsNtNtCsdG7205R6am3_8schemars6schema6SchemaNtB2_23SchemaUtilityExtensions18get_keyword_as_i64
FN:1827,_RNvXNtCs1p6hG0j9t4b_18dsc_lib_jsonschema25schema_utility_extensionsNtNtCsdG7205R6am3_8schemars6schema6SchemaNtB2_23SchemaUtilityExtensions18get_keyword_as_str
FN:1844,_RNvXNtCs1p6hG0j9t4b_18dsc_lib_jsonschema25schema_utility_extensionsNtNtCsdG7205R6am3_8schemars6schema6SchemaNtB2_23SchemaUtilityExtensions18get_keyword_as_u64
FN:2073,_RNvXNtCs1p6hG0j9t4b_18dsc_lib_jsonschema25schema_utility_extensionsNtNtCsdG7205R6am3_8schemars6schema6SchemaNtB2_23SchemaUtilityExtensions18get_properties_mut
FN:2170,_RNvXNtCs1p6hG0j9t4b_18dsc_lib_jsonschema25schema_utility_extensionsNtNtCsdG7205R6am3_8schemars6schema6SchemaNtB2_23SchemaUtilityExtensions18replace_references
FN:1799,_RNvXNtCs1p6hG0j9t4b_18dsc_lib_jsonschema25schema_utility_extensionsNtNtCsdG7205R6am3_8schemars6schema6SchemaNtB2_23SchemaUtilityExtensions19get_keyword_as_bool
FN:1811,_RNvXNtCs1p6hG0j9t4b_18dsc_lib_jsonschema25schema_utility_extensionsNtNtCsdG7205R6am3_8schemars6schema6SchemaNtB2_23SchemaUtilityExtensions19get_keyword_as_null
FN:1791,_RNvXNtCs1p6hG0j9t4b_18dsc_lib_jsonschema25schema_utility_extensionsNtNtCsdG7205R6am3_8schemars6schema6SchemaNtB2_23SchemaUtilityExtensions20get_keyword_as_array
FN:1815,_RNvXNtCs1p6hG0j9t4b_18dsc_lib_jsonschema25schema_utility_extensionsNtNtCsdG7205R6am3_8schemars6schema6SchemaNtB2_23SchemaUtilityExtensions21get_keyword_as_number
FN:1819,_RNvXNtCs1p6hG0j9t4b_18dsc_lib_jsonschema25schema_utility_extensionsNtNtCsdG7205R6am3_8schemars6schema6SchemaNtB2_23SchemaUtilityExtensions21get_keyword_as_object
FN:1831,_RNvXNtCs1p6hG0j9t4b_18dsc_lib_jsonschema25schema_utility_extensionsNtNtCsdG7205R6am3_8schemars6schema6SchemaNtB2_23SchemaUtilityExtensions21get_keyword_as_string
FN:1944,_RNvXNtCs1p6hG0j9t4b_18dsc_lib_jsonschema25schema_utility_extensionsNtNtCsdG7205R6am3_8schemars6schema6SchemaNtB2_23SchemaUtilityExtensions21insert_defs_subschema
FN:1985,_RNvXNtCs1p6hG0j9t4b_18dsc_lib_jsonschema25schema_utility_extensionsNtNtCsdG7205R6am3_8schemars6schema6SchemaNtB2_23SchemaUtilityExtensions21rename_defs_subschema
FN:2076,_RNvXNtCs1p6hG0j9t4b_18dsc_lib_jsonschema25schema_utility_extensionsNtNtCsdG7205R6am3_8schemars6schema6SchemaNtB2_23SchemaUtilityExtensions22get_property_subschema
FN:1795,_RNvXNtCs1p6hG0j9t4b_18dsc_lib_jsonschema25schema_utility_extensionsNtNtCsdG7205R6am3_8schemars6schema6SchemaNtB2_23SchemaUtilityExtensions24get_keyword_as_array_mut
FN:1836,_RNvXNtCs1p6hG0j9t4b_18dsc_lib_jsonschema25schema_utility_extensionsNtNtCsdG7205R6am3_8schemars6schema6SchemaNtB2_23SchemaUtilityExtensions24get_keyword_as_subschema
FN:1823,_RNvXNtCs1p6hG0j9t4b_18dsc_lib_jsonschema25schema_utility_extensionsNtNtCsdG7205R6am3_8schemars6schema6SchemaNtB2_23SchemaUtilityExtensions25get_keyword_as_object_mut
FN:1854,_RNvXNtCs1p6hG0j9t4b_18dsc_lib_jsonschema25schema_utility_extensionsNtNtCsdG7205R6am3_8schemars6schema6SchemaNtB2_23SchemaUtilityExtensions26get_defs_subschema_from_id
FN:2081,_RNvXNtCs1p6hG0j9t4b_18dsc_lib_jsonschema25schema_utility_extensionsNtNtCsdG7205R6am3_8schemars6schema6SchemaNtB2_23SchemaUtilityExtensions26get_property_subschema_mut
FN:2229,_RNvXNtCs1p6hG0j9t4b_18dsc_lib_jsonschema25schema_utility_extensionsNtNtCsdG7205R6am3_8schemars6schema6SchemaNtB2_23SchemaUtilityExtensions26to_value_with_stable_order
FN:1840,_RNvXNtCs1p6hG0j9t4b_18dsc_lib_jsonschema25schema_utility_extensionsNtNtCsdG7205R6am3_8schemars6schema6SchemaNtB2_23SchemaUtilityExtensions28get_keyword_as_subschema_mut
FN:1869,_RNvXNtCs1p6hG0j9t4b_18dsc_lib_jsonschema25schema_utility_extensionsNtNtCsdG7205R6am3_8schemars6schema6SchemaNtB2_23SchemaUtilityExtensions30get_defs_subschema_from_id_mut
FN:2019,_RNvXNtCs1p6hG0j9t4b_18dsc_lib_jsonschema25schema_utility_extensionsNtNtCsdG7205R6am3_8schemars6schema6SchemaNtB2_23SchemaUtilityExtensions31get_bundled_schema_resource_ids
FN:1965,_RNvXNtCs1p6hG0j9t4b_18dsc_lib_jsonschema25schema_utility_extensionsNtNtCsdG7205R6am3_8schemars6schema6SchemaNtB2_23SchemaUtilityExtensions31remove_bundled_schema_resources
FN:1884,_RNvXNtCs1p6hG0j9t4b_18dsc_lib_jsonschema25schema_utility_extensionsNtNtCsdG7205R6am3_8schemars6schema6SchemaNtB2_23SchemaUtilityExtensions33get_defs_subschema_from_reference
FN:2226,_RNvXNtCs1p6hG0j9t4b_18dsc_lib_jsonschema25schema_utility_extensionsNtNtCsdG7205R6am3_8schemars6schema6SchemaNtB2_23SchemaUtilityExtensions33reference_is_for_bundled_resource
FN:1998,_RNvXNtCs1p6hG0j9t4b_18dsc_lib_jsonschema25schema_utility_extensionsNtNtCsdG7205R6am3_8schemars6schema6SchemaNtB2_23SchemaUtilityExtensions35rename_defs_subschema_for_reference
FN:1928,_RNvXNtCs1p6hG0j9t4b_18dsc_lib_jsonschema25schema_utility_extensionsNtNtCsdG7205R6am3_8schemars6schema6SchemaNtB2_23SchemaUtilityExtensions36get_bundled_schema_resource_defs_key
FN:1906,_RNvXNtCs1p6hG0j9t4b_18dsc_lib_jsonschema25schema_utility_extensionsNtNtCsdG7205R6am3_8schemars6schema6SchemaNtB2_23SchemaUtilityExtensions37get_defs_subschema_from_reference_mut
FN:2147,_RNvXNtCs1p6hG0j9t4b_18dsc_lib_jsonschema25schema_utility_extensionsNtNtCsdG7205R6am3_8schemars6schema6SchemaNtB2_23SchemaUtilityExtensions41get_references_to_bundled_schema_resource
FN:2240,_RNvXNtCs1p6hG0j9t4b_18dsc_lib_jsonschema25schema_utility_extensionsNtNtCsdG7205R6am3_8schemars6schema6SchemaNtB2_23SchemaUtilityExtensions48canonicalize_refs_and_defs_for_bundled_resources
FN:2045,_RNvXNtCs1p6hG0j9t4b_18dsc_lib_jsonschema25schema_utility_extensionsNtNtCsdG7205R6am3_8schemars6schema6SchemaNtB2_23SchemaUtilityExtensions6get_id
FN:2058,_RNvXNtCs1p6hG0j9t4b_18dsc_lib_jsonschema25schema_utility_extensionsNtNtCsdG7205R6am3_8schemars6schema6SchemaNtB2_23SchemaUtilityExtensions6set_id
FN:1848,_RNvXNtCs1p6hG0j9t4b_18dsc_lib_jsonschema25schema_utility_extensionsNtNtCsdG7205R6am3_8schemars6schema6SchemaNtB2_23SchemaUtilityExtensions8get_defs
FN:2171,_RNCNvXNtCs1p6hG0j9t4b_18dsc_lib_jsonschema25schema_utility_extensionsNtNtCsdG7205R6am3_8schemars6schema6SchemaNtB4_23SchemaUtilityExtensions18replace_references0B6_
FN:1990,_RNCNvXNtCs1p6hG0j9t4b_18dsc_lib_jsonschema25schema_utility_extensionsNtNtCsdG7205R6am3_8schemars6schema6SchemaNtB4_23SchemaUtilityExtensions21rename_defs_subschema0B6_
FN:2078,_RNCNvXNtCs1p6hG0j9t4b_18dsc_lib_jsonschema25schema_utility_extensionsNtNtCsdG7205R6am3_8schemars6schema6SchemaNtB4_23SchemaUtilityExtensions22get_property_subschema0B6_
FN:2079,_RNCNvXNtCs1p6hG0j9t4b_18dsc_lib_jsonschema25schema_utility_extensionsNtNtCsdG7205R6am3_8schemars6schema6SchemaNtB4_23SchemaUtilityExtensions22get_property_subschemas_0B6_
FN:1838,_RNCNvXNtCs1p6hG0j9t4b_18dsc_lib_jsonschema25schema_utility_extensionsNtNtCsdG7205R6am3_8schemars6schema6SchemaNtB4_23SchemaUtilityExtensions24get_keyword_as_subschema0B6_
FN:2083,_RNCNvXNtCs1p6hG0j9t4b_18dsc_lib_jsonschema25schema_utility_extensionsNtNtCsdG7205R6am3_8schemars6schema6SchemaNtB4_23SchemaUtilityExtensions26get_property_subschema_mut0B6_
FN:2084,_RNCNvXNtCs1p6hG0j9t4b_18dsc_lib_jsonschema25schema_utility_extensionsNtNtCsdG7205R6am3_8schemars6schema6SchemaNtB4_23SchemaUtilityExtensions26get_property_subschema_muts_0B6_
FN:1842,_RNCNvXNtCs1p6hG0j9t4b_18dsc_lib_jsonschema25schema_utility_extensionsNtNtCsdG7205R6am3_8schemars6schema6SchemaNtB4_23SchemaUtilityExtensions28get_keyword_as_subschema_mut0B6_
FN:1981,_RNCNvXNtCs1p6hG0j9t4b_18dsc_lib_jsonschema25schema_utility_extensionsNtNtCsdG7205R6am3_8schemars6schema6SchemaNtB4_23SchemaUtilityExtensions31remove_bundled_schema_resources0B6_
FN:1887,_RNCNvXNtCs1p6hG0j9t4b_18dsc_lib_jsonschema25schema_utility_extensionsNtNtCsdG7205R6am3_8schemars6schema6SchemaNtB4_23SchemaUtilityExtensions33get_defs_subschema_from_reference0B6_
FN:2011,_RNCNvXNtCs1p6hG0j9t4b_18dsc_lib_jsonschema25schema_utility_extensionsNtNtCsdG7205R6am3_8schemars6schema6SchemaNtB4_23SchemaUtilityExtensions35rename_defs_subschema_for_reference0B6_
FN:1909,_RNCNvXNtCs1p6hG0j9t4b_18dsc_lib_jsonschema25schema_utility_extensionsNtNtCsdG7205R6am3_8schemars6schema6SchemaNtB4_23SchemaUtilityExtensions37get_defs_subschema_from_reference_mut0B6_
FN:2167,_RNCNvXNtCs1p6hG0j9t4b_18dsc_lib_jsonschema25schema_utility_extensionsNtNtCsdG7205R6am3_8schemars6schema6SchemaNtB4_23SchemaUtilityExtensions41get_references_to_bundled_schema_resource0B6_
FN:2064,_RNCNvXNtCs1p6hG0j9t4b_18dsc_lib_jsonschema25schema_utility_extensionsNtNtCsdG7205R6am3_8schemars6schema6SchemaNtB4_23SchemaUtilityExtensions6set_id0B6_
FN:2171,_RNCNvXNtCs8FPg1R8LBRe_18dsc_lib_jsonschema25schema_utility_extensionsNtNtCsdG7205R6am3_8schemars6schema6SchemaNtB4_23SchemaUtilityExtensions18replace_references0B6_
FN:1990,_RNCNvXNtCs8FPg1R8LBRe_18dsc_lib_jsonschema25schema_utility_extensionsNtNtCsdG7205R6am3_8schemars6schema6SchemaNtB4_23SchemaUtilityExtensions21rename_defs_subschema0B6_
FN:2078,_RNCNvXNtCs8FPg1R8LBRe_18dsc_lib_jsonschema25schema_utility_extensionsNtNtCsdG7205R6am3_8schemars6schema6SchemaNtB4_23SchemaUtilityExtensions22get_property_subschema0B6_
FN:2079,_RNCNvXNtCs8FPg1R8LBRe_18dsc_lib_jsonschema25schema_utility_extensionsNtNtCsdG7205R6am3_8schemars6schema6SchemaNtB4_23SchemaUtilityExtensions22get_property_subschemas_0B6_
FN:1838,_RNCNvXNtCs8FPg1R8LBRe_18dsc_lib_jsonschema25schema_utility_extensionsNtNtCsdG7205R6am3_8schemars6schema6SchemaNtB4_23SchemaUtilityExtensions24get_keyword_as_subschema0B6_
FN:2083,_RNCNvXNtCs8FPg1R8LBRe_18dsc_lib_jsonschema25schema_utility_extensionsNtNtCsdG7205R6am3_8schemars6schema6SchemaNtB4_23SchemaUtilityExtensions26get_property_subschema_mut0B6_
FN:2084,_RNCNvXNtCs8FPg1R8LBRe_18dsc_lib_jsonschema25schema_utility_extensionsNtNtCsdG7205R6am3_8schemars6schema6SchemaNtB4_23SchemaUtilityExtensions26get_property_subschema_muts_0B6_
FN:1842,_RNCNvXNtCs8FPg1R8LBRe_18dsc_lib_jsonschema25schema_utility_extensionsNtNtCsdG7205R6am3_8schemars6schema6SchemaNtB4_23SchemaUtilityExtensions28get_keyword_as_subschema_mut0B6_
FN:1981,_RNCNvXNtCs8FPg1R8LBRe_18dsc_lib_jsonschema25schema_utility_extensionsNtNtCsdG7205R6am3_8schemars6schema6SchemaNtB4_23SchemaUtilityExtensions31remove_bundled_schema_resources0B6_
FN:1887,_RNCNvXNtCs8FPg1R8LBRe_18dsc_lib_jsonschema25schema_utility_extensionsNtNtCsdG7205R6am3_8schemars6schema6SchemaNtB4_23SchemaUtilityExtensions33get_defs_subschema_from_reference0B6_
FN:2011,_RNCNvXNtCs8FPg1R8LBRe_18dsc_lib_jsonschema25schema_utility_extensionsNtNtCsdG7205R6am3_8schemars6schema6SchemaNtB4_23SchemaUtilityExtensions35rename_defs_subschema_for_reference0B6_
FN:1909,_RNCNvXNtCs8FPg1R8LBRe_18dsc_lib_jsonschema25schema_utility_extensionsNtNtCsdG7205R6am3_8schemars6schema6SchemaNtB4_23SchemaUtilityExtensions37get_defs_subschema_from_reference_mut0B6_
FN:2167,_RNCNvXNtCs8FPg1R8LBRe_18dsc_lib_jsonschema25schema_utility_extensionsNtNtCsdG7205R6am3_8schemars6schema6SchemaNtB4_23SchemaUtilityExtensions41get_references_to_bundled_schema_resource0B6_
FN:2064,_RNCNvXNtCs8FPg1R8LBRe_18dsc_lib_jsonschema25schema_utility_extensionsNtNtCsdG7205R6am3_8schemars6schema6SchemaNtB4_23SchemaUtilityExtensions6set_id0B6_
FN:1851,_RNvXNtCs8FPg1R8LBRe_18dsc_lib_jsonschema25schema_utility_extensionsNtNtCsdG7205R6am3_8schemars6schema6SchemaNtB2_23SchemaUtilityExtensions12get_defs_mut
FN:2048,_RNvXNtCs8FPg1R8LBRe_18dsc_lib_jsonschema25schema_utility_extensionsNtNtCsdG7205R6am3_8schemars6schema6SchemaNtB2_23SchemaUtilityExtensions13get_id_as_url
FN:2070,_RNvXNtCs8FPg1R8LBRe_18dsc_lib_jsonschema25schema_utility_extensionsNtNtCsdG7205R6am3_8schemars6schema6SchemaNtB2_23SchemaUtilityExtensions14get_properties
FN:2086,_RNvXNtCs8FPg1R8LBRe_18dsc_lib_jsonschema25schema_utility_extensionsNtNtCsdG7205R6am3_8schemars6schema6SchemaNtB2_23SchemaUtilityExtensions14get_references
FN:2055,_RNvXNtCs8FPg1R8LBRe_18dsc_lib_jsonschema25schema_utility_extensionsNtNtCsdG7205R6am3_8schemars6schema6SchemaNtB2_23SchemaUtilityExtensions14has_id_keyword
FN:1803,_RNvXNtCs8FPg1R8LBRe_18dsc_lib_jsonschema25schema_utility_extensionsNtNtCsdG7205R6am3_8schemars6schema6SchemaNtB2_23SchemaUtilityExtensions18get_keyword_as_f64
FN:1807,_RNvXNtCs8FPg1R8LBRe_18dsc_lib_jsonschema25schema_utility_extensionsNtNtCsdG7205R6am3_8schemars6schema6SchemaNtB2_23SchemaUtilityExtensions18get_keyword_as_i64
FN:1827,_RNvXNtCs8FPg1R8LBRe_18dsc_lib_jsonschema25schema_utility_extensionsNtNtCsdG7205R6am3_8schemars6schema6SchemaNtB2_23SchemaUtilityExtensions18get_keyword_as_str
FN:1844,_RNvXNtCs8FPg1R8LBRe_18dsc_lib_jsonschema25schema_utility_extensionsNtNtCsdG7205R6am3_8schemars6schema6SchemaNtB2_23SchemaUtilityExtensions18get_keyword_as_u64
FN:2073,_RNvXNtCs8FPg1R8LBRe_18dsc_lib_jsonschema25schema_utility_extensionsNtNtCsdG7205R6am3_8schemars6schema6SchemaNtB2_23SchemaUtilityExtensions18get_properties_mut
FN:2170,_RNvXNtCs8FPg1R8LBRe_18dsc_lib_jsonschema25schema_utility_extensionsNtNtCsdG7205R6am3_8schemars6schema6SchemaNtB2_23SchemaUtilityExtensions18replace_references
FN:1799,_RNvXNtCs8FPg1R8LBRe_18dsc_lib_jsonschema25schema_utility_extensionsNtNtCsdG7205R6am3_8schemars6schema6SchemaNtB2_23SchemaUtilityExtensions19get_keyword_as_bool
FN:1811,_RNvXNtCs8FPg1R8LBRe_18dsc_lib_jsonschema25schema_utility_extensionsNtNtCsdG7205R6am3_8schemars6schema6SchemaNtB2_23SchemaUtilityExtensions19get_keyword_as_null
FN:1791,_RNvXNtCs8FPg1R8LBRe_18dsc_lib_jsonschema25schema_utility_extensionsNtNtCsdG7205R6am3_8schemars6schema6SchemaNtB2_23SchemaUtilityExtensions20get_keyword_as_array
FN:1815,_RNvXNtCs8FPg1R8LBRe_18dsc_lib_jsonschema25schema_utility_extensionsNtNtCsdG7205R6am3_8schemars6schema6SchemaNtB2_23SchemaUtilityExtensions21get_keyword_as_number
FN:1819,_RNvXNtCs8FPg1R8LBRe_18dsc_lib_jsonschema25schema_utility_extensionsNtNtCsdG7205R6am3_8schemars6schema6SchemaNtB2_23SchemaUtilityExtensions21get_keyword_as_object
FN:1831,_RNvXNtCs8FPg1R8LBRe_18dsc_lib_jsonschema25schema_utility_extensionsNtNtCsdG7205R6am3_8schemars6schema6SchemaNtB2_23SchemaUtilityExtensions21get_keyword_as_string
FN:1944,_RNvXNtCs8FPg1R8LBRe_18dsc_lib_jsonschema25schema_utility_extensionsNtNtCsdG7205R6am3_8schemars6schema6SchemaNtB2_23SchemaUtilityExtensions21insert_defs_subschema
FN:1985,_RNvXNtCs8FPg1R8LBRe_18dsc_lib_jsonschema25schema_utility_extensionsNtNtCsdG7205R6am3_8schemars6schema6SchemaNtB2_23SchemaUtilityExtensions21rename_defs_subschema
FN:2076,_RNvXNtCs8FPg1R8LBRe_18dsc_lib_jsonschema25schema_utility_extensionsNtNtCsdG7205R6am3_8schemars6schema6SchemaNtB2_23SchemaUtilityExtensions22get_property_subschema
FN:1795,_RNvXNtCs8FPg1R8LBRe_18dsc_lib_jsonschema25schema_utility_extensionsNtNtCsdG7205R6am3_8schemars6schema6SchemaNtB2_23SchemaUtilityExtensions24get_keyword_as_array_mut
FN:1836,_RNvXNtCs8FPg1R8LBRe_18dsc_lib_jsonschema25schema_utility_extensionsNtNtCsdG7205R6am3_8schemars6schema6SchemaNtB2_23SchemaUtilityExtensions24get_keyword_as_subschema
FN:1823,_RNvXNtCs8FPg1R8LBRe_18dsc_lib_jsonschema25schema_utility_extensionsNtNtCsdG7205R6am3_8schemars6schema6SchemaNtB2_23SchemaUtilityExtensions25get_keyword_as_object_mut
FN:1854,_RNvXNtCs8FPg1R8LBRe_18dsc_lib_jsonschema25schema_utility_extensionsNtNtCsdG7205R6am3_8schemars6schema6SchemaNtB2_23SchemaUtilityExtensions26get_defs_subschema_from_id
FN:2081,_RNvXNtCs8FPg1R8LBRe_18dsc_lib_jsonschema25schema_utility_extensionsNtNtCsdG7205R6am3_8schemars6schema6SchemaNtB2_23SchemaUtilityExtensions26get_property_subschema_mut
FN:2229,_RNvXNtCs8FPg1R8LBRe_18dsc_lib_jsonschema25schema_utility_extensionsNtNtCsdG7205R6am3_8schemars6schema6SchemaNtB2_23SchemaUtilityExtensions26to_value_with_stable_order
FN:1840,_RNvXNtCs8FPg1R8LBRe_18dsc_lib_jsonschema25schema_utility_extensionsNtNtCsdG7205R6am3_8schemars6schema6SchemaNtB2_23SchemaUtilityExtensions28get_keyword_as_subschema_mut
FN:1869,_RNvXNtCs8FPg1R8LBRe_18dsc_lib_jsonschema25schema_utility_extensionsNtNtCsdG7205R6am3_8schemars6schema6SchemaNtB2_23SchemaUtilityExtensions30get_defs_subschema_from_id_mut
FN:2019,_RNvXNtCs8FPg1R8LBRe_18dsc_lib_jsonschema25schema_utility_extensionsNtNtCsdG7205R6am3_8schemars6schema6SchemaNtB2_23SchemaUtilityExtensions31get_bundled_schema_resource_ids
FN:1965,_RNvXNtCs8FPg1R8LBRe_18dsc_lib_jsonschema25schema_utility_extensionsNtNtCsdG7205R6am3_8schemars6schema6SchemaNtB2_23SchemaUtilityExtensions31remove_bundled_schema_resources
FN:1884,_RNvXNtCs8FPg1R8LBRe_18dsc_lib_jsonschema25schema_utility_extensionsNtNtCsdG7205R6am3_8schemars6schema6SchemaNtB2_23SchemaUtilityExtensions33get_defs_subschema_from_reference
FN:2226,_RNvXNtCs8FPg1R8LBRe_18dsc_lib_jsonschema25schema_utility_extensionsNtNtCsdG7205R6am3_8schemars6schema6SchemaNtB2_23SchemaUtilityExtensions33reference_is_for_bundled_resource
FN:1998,_RNvXNtCs8FPg1R8LBRe_18dsc_lib_jsonschema25schema_utility_extensionsNtNtCsdG7205R6am3_8schemars6schema6SchemaNtB2_23SchemaUtilityExtensions35rename_defs_subschema_for_reference
FN:1928,_RNvXNtCs8FPg1R8LBRe_18dsc_lib_jsonschema25schema_utility_extensionsNtNtCsdG7205R6am3_8schemars6schema6SchemaNtB2_23SchemaUtilityExtensions36get_bundled_schema_resource_defs_key
FN:1906,_RNvXNtCs8FPg1R8LBRe_18dsc_lib_jsonschema25schema_utility_extensionsNtNtCsdG7205R6am3_8schemars6schema6SchemaNtB2_23SchemaUtilityExtensions37get_defs_subschema_from_reference_mut
FN:2147,_RNvXNtCs8FPg1R8LBRe_18dsc_lib_jsonschema25schema_utility_extensionsNtNtCsdG7205R6am3_8schemars6schema6SchemaNtB2_23SchemaUtilityExtensions41get_references_to_bundled_schema_resource
FN:2240,_RNvXNtCs8FPg1R8LBRe_18dsc_lib_jsonschema25schema_utility_extensionsNtNtCsdG7205R6am3_8schemars6schema6SchemaNtB2_23SchemaUtilityExtensions48canonicalize_refs_and_defs_for_bundled_resources
FN:2045,_RNvXNtCs8FPg1R8LBRe_18dsc_lib_jsonschema25schema_utility_extensionsNtNtCsdG7205R6am3_8schemars6schema6SchemaNtB2_23SchemaUtilityExtensions6get_id
FN:2058,_RNvXNtCs8FPg1R8LBRe_18dsc_lib_jsonschema25schema_utility_extensionsNtNtCsdG7205R6am3_8schemars6schema6SchemaNtB2_23SchemaUtilityExtensions6set_id
FN:1848,_RNvXNtCs8FPg1R8LBRe_18dsc_lib_jsonschema25schema_utility_extensionsNtNtCsdG7205R6am3_8schemars6schema6SchemaNtB2_23SchemaUtilityExtensions8get_defs
FN:1844,_RNvXNtCs6DmBUIV3MEM_18dsc_lib_jsonschema25schema_utility_extensionsNtNtCsdG7205R6am3_8schemars6schema6SchemaNtB2_23SchemaUtilityExtensions18get_keyword_as_u64
FN:1944,_RNvXNtCs6DmBUIV3MEM_18dsc_lib_jsonschema25schema_utility_extensionsNtNtCsdG7205R6am3_8schemars6schema6SchemaNtB2_23SchemaUtilityExtensions21insert_defs_subschema
FN:2226,_RNvXNtCs6DmBUIV3MEM_18dsc_lib_jsonschema25schema_utility_extensionsNtNtCsdG7205R6am3_8schemars6schema6SchemaNtB2_23SchemaUtilityExtensions33reference_is_for_bundled_resource
FN:1851,_RNvXNtCs6DmBUIV3MEM_18dsc_lib_jsonschema25schema_utility_extensionsNtNtCsdG7205R6am3_8schemars6schema6SchemaNtB2_23SchemaUtilityExtensions12get_defs_mut
FN:2048,_RNvXNtCs6DmBUIV3MEM_18dsc_lib_jsonschema25schema_utility_extensionsNtNtCsdG7205R6am3_8schemars6schema6SchemaNtB2_23SchemaUtilityExtensions13get_id_as_url
FN:2070,_RNvXNtCs6DmBUIV3MEM_18dsc_lib_jsonschema25schema_utility_extensionsNtNtCsdG7205R6am3_8schemars6schema6SchemaNtB2_23SchemaUtilityExtensions14get_properties
FN:2086,_RNvXNtCs6DmBUIV3MEM_18dsc_lib_jsonschema25schema_utility_extensionsNtNtCsdG7205R6am3_8schemars6schema6SchemaNtB2_23SchemaUtilityExtensions14get_references
FN:2055,_RNvXNtCs6DmBUIV3MEM_18dsc_lib_jsonschema25schema_utility_extensionsNtNtCsdG7205R6am3_8schemars6schema6SchemaNtB2_23SchemaUtilityExtensions14has_id_keyword
FN:1803,_RNvXNtCs6DmBUIV3MEM_18dsc_lib_jsonschema25schema_utility_extensionsNtNtCsdG7205R6am3_8schemars6schema6SchemaNtB2_23SchemaUtilityExtensions18get_keyword_as_f64
FN:1807,_RNvXNtCs6DmBUIV3MEM_18dsc_lib_jsonschema25schema_utility_extensionsNtNtCsdG7205R6am3_8schemars6schema6SchemaNtB2_23SchemaUtilityExtensions18get_keyword_as_i64
FN:1827,_RNvXNtCs6DmBUIV3MEM_18dsc_lib_jsonschema25schema_utility_extensionsNtNtCsdG7205R6am3_8schemars6schema6SchemaNtB2_23SchemaUtilityExtensions18get_keyword_as_str
FN:2073,_RNvXNtCs6DmBUIV3MEM_18dsc_lib_jsonschema25schema_utility_extensionsNtNtCsdG7205R6am3_8schemars6schema6SchemaNtB2_23SchemaUtilityExtensions18get_properties_mut
FN:2170,_RNvXNtCs6DmBUIV3MEM_18dsc_lib_jsonschema25schema_utility_extensionsNtNtCsdG7205R6am3_8schemars6schema6SchemaNtB2_23SchemaUtilityExtensions18replace_references
FN:1799,_RNvXNtCs6DmBUIV3MEM_18dsc_lib_jsonschema25schema_utility_extensionsNtNtCsdG7205R6am3_8schemars6schema6SchemaNtB2_23SchemaUtilityExtensions19get_keyword_as_bool
FN:1811,_RNvXNtCs6DmBUIV3MEM_18dsc_lib_jsonschema25schema_utility_extensionsNtNtCsdG7205R6am3_8schemars6schema6SchemaNtB2_23SchemaUtilityExtensions19get_keyword_as_null
FN:1791,_RNvXNtCs6DmBUIV3MEM_18dsc_lib_jsonschema25schema_utility_extensionsNtNtCsdG7205R6am3_8schemars6schema6SchemaNtB2_23SchemaUtilityExtensions20get_keyword_as_array
FN:1815,_RNvXNtCs6DmBUIV3MEM_18dsc_lib_jsonschema25schema_utility_extensionsNtNtCsdG7205R6am3_8schemars6schema6SchemaNtB2_23SchemaUtilityExtensions21get_keyword_as_number
FN:1819,_RNvXNtCs6DmBUIV3MEM_18dsc_lib_jsonschema25schema_utility_extensionsNtNtCsdG7205R6am3_8schemars6schema6SchemaNtB2_23SchemaUtilityExtensions21get_keyword_as_object
FN:1831,_RNvXNtCs6DmBUIV3MEM_18dsc_lib_jsonschema25schema_utility_extensionsNtNtCsdG7205R6am3_8schemars6schema6SchemaNtB2_23SchemaUtilityExtensions21get_keyword_as_string
FN:1985,_RNvXNtCs6DmBUIV3MEM_18dsc_lib_jsonschema25schema_utility_extensionsNtNtCsdG7205R6am3_8schemars6schema6SchemaNtB2_23SchemaUtilityExtensions21rename_defs_subschema
FN:2076,_RNvXNtCs6DmBUIV3MEM_18dsc_lib_jsonschema25schema_utility_extensionsNtNtCsdG7205R6am3_8schemars6schema6SchemaNtB2_23SchemaUtilityExtensions22get_property_subschema
FN:1795,_RNvXNtCs6DmBUIV3MEM_18dsc_lib_jsonschema25schema_utility_extensionsNtNtCsdG7205R6am3_8schemars6schema6SchemaNtB2_23SchemaUtilityExtensions24get_keyword_as_array_mut
FN:1836,_RNvXNtCs6DmBUIV3MEM_18dsc_lib_jsonschema25schema_utility_extensionsNtNtCsdG7205R6am3_8schemars6schema6SchemaNtB2_23SchemaUtilityExtensions24get_keyword_as_subschema
FN:1823,_RNvXNtCs6DmBUIV3MEM_18dsc_lib_jsonschema25schema_utility_extensionsNtNtCsdG7205R6am3_8schemars6schema6SchemaNtB2_23SchemaUtilityExtensions25get_keyword_as_object_mut
FN:1854,_RNvXNtCs6DmBUIV3MEM_18dsc_lib_jsonschema25schema_utility_extensionsNtNtCsdG7205R6am3_8schemars6schema6SchemaNtB2_23SchemaUtilityExtensions26get_defs_subschema_from_id
FN:2081,_RNvXNtCs6DmBUIV3MEM_18dsc_lib_jsonschema25schema_utility_extensionsNtNtCsdG7205R6am3_8schemars6schema6SchemaNtB2_23SchemaUtilityExtensions26get_property_subschema_mut
FN:2229,_RNvXNtCs6DmBUIV3MEM_18dsc_lib_jsonschema25schema_utility_extensionsNtNtCsdG7205R6am3_8schemars6schema6SchemaNtB2_23SchemaUtilityExtensions26to_value_with_stable_order
FN:1840,_RNvXNtCs6DmBUIV3MEM_18dsc_lib_jsonschema25schema_utility_extensionsNtNtCsdG7205R6am3_8schemars6schema6SchemaNtB2_23SchemaUtilityExtensions28get_keyword_as_subschema_mut
FN:1869,_RNvXNtCs6DmBUIV3MEM_18dsc_lib_jsonschema25schema_utility_extensionsNtNtCsdG7205R6am3_8schemars6schema6SchemaNtB2_23SchemaUtilityExtensions30get_defs_subschema_from_id_mut
FN:2019,_RNvXNtCs6DmBUIV3MEM_18dsc_lib_jsonschema25schema_utility_extensionsNtNtCsdG7205R6am3_8schemars6schema6SchemaNtB2_23SchemaUtilityExtensions31get_bundled_schema_resource_ids
FN:1965,_RNvXNtCs6DmBUIV3MEM_18dsc_lib_jsonschema25schema_utility_extensionsNtNtCsdG7205R6am3_8schemars6schema6SchemaNtB2_23SchemaUtilityExtensions31remove_bundled_schema_resources
FN:1884,_RNvXNtCs6DmBUIV3MEM_18dsc_lib_jsonschema25schema_utility_extensionsNtNtCsdG7205R6am3_8schemars6schema6SchemaNtB2_23SchemaUtilityExtensions33get_defs_subschema_from_reference
FN:1998,_RNvXNtCs6DmBUIV3MEM_18dsc_lib_jsonschema25schema_utility_extensionsNtNtCsdG7205R6am3_8schemars6schema6SchemaNtB2_23SchemaUtilityExtensions35rename_defs_subschema_for_reference
FN:1928,_RNvXNtCs6DmBUIV3MEM_18dsc_lib_jsonschema25schema_utility_extensionsNtNtCsdG7205R6am3_8schemars6schema6SchemaNtB2_23SchemaUtilityExtensions36get_bundled_schema_resource_defs_key
FN:1906,_RNvXNtCs6DmBUIV3MEM_18dsc_lib_jsonschema25schema_utility_extensionsNtNtCsdG7205R6am3_8schemars6schema6SchemaNtB2_23SchemaUtilityExtensions37get_defs_subschema_from_reference_mut
FN:2147,_RNvXNtCs6DmBUIV3MEM_18dsc_lib_jsonschema25schema_utility_extensionsNtNtCsdG7205R6am3_8schemars6schema6SchemaNtB2_23SchemaUtilityExtensions41get_references_to_bundled_schema_resource
FN:2240,_RNvXNtCs6DmBUIV3MEM_18dsc_lib_jsonschema25schema_utility_extensionsNtNtCsdG7205R6am3_8schemars6schema6SchemaNtB2_23SchemaUtilityExtensions48canonicalize_refs_and_defs_for_bundled_resources
FN:2045,_RNvXNtCs6DmBUIV3MEM_18dsc_lib_jsonschema25schema_utility_extensionsNtNtCsdG7205R6am3_8schemars6schema6SchemaNtB2_23SchemaUtilityExtensions6get_id
FN:2058,_RNvXNtCs6DmBUIV3MEM_18dsc_lib_jsonschema25schema_utility_extensionsNtNtCsdG7205R6am3_8schemars6schema6SchemaNtB2_23SchemaUtilityExtensions6set_id
FN:1848,_RNvXNtCs6DmBUIV3MEM_18dsc_lib_jsonschema25schema_utility_extensionsNtNtCsdG7205R6am3_8schemars6schema6SchemaNtB2_23SchemaUtilityExtensions8get_defs
FN:2171,_RNCNvXNtCs6DmBUIV3MEM_18dsc_lib_jsonschema25schema_utility_extensionsNtNtCsdG7205R6am3_8schemars6schema6SchemaNtB4_23SchemaUtilityExtensions18replace_references0B6_
FN:1990,_RNCNvXNtCs6DmBUIV3MEM_18dsc_lib_jsonschema25schema_utility_extensionsNtNtCsdG7205R6am3_8schemars6schema6SchemaNtB4_23SchemaUtilityExtensions21rename_defs_subschema0B6_
FN:2078,_RNCNvXNtCs6DmBUIV3MEM_18dsc_lib_jsonschema25schema_utility_extensionsNtNtCsdG7205R6am3_8schemars6schema6SchemaNtB4_23SchemaUtilityExtensions22get_property_subschema0B6_
FN:2079,_RNCNvXNtCs6DmBUIV3MEM_18dsc_lib_jsonschema25schema_utility_extensionsNtNtCsdG7205R6am3_8schemars6schema6SchemaNtB4_23SchemaUtilityExtensions22get_property_subschemas_0B6_
FN:1838,_RNCNvXNtCs6DmBUIV3MEM_18dsc_lib_jsonschema25schema_utility_extensionsNtNtCsdG7205R6am3_8schemars6schema6SchemaNtB4_23SchemaUtilityExtensions24get_keyword_as_subschema0B6_
FN:2083,_RNCNvXNtCs6DmBUIV3MEM_18dsc_lib_jsonschema25schema_utility_extensionsNtNtCsdG7205R6am3_8schemars6schema6SchemaNtB4_23SchemaUtilityExtensions26get_property_subschema_mut0B6_
FN:2084,_RNCNvXNtCs6DmBUIV3MEM_18dsc_lib_jsonschema25schema_utility_extensionsNtNtCsdG7205R6am3_8schemars6schema6SchemaNtB4_23SchemaUtilityExtensions26get_property_subschema_muts_0B6_
FN:1842,_RNCNvXNtCs6DmBUIV3MEM_18dsc_lib_jsonschema25schema_utility_extensionsNtNtCsdG7205R6am3_8schemars6schema6SchemaNtB4_23SchemaUtilityExtensions28get_keyword_as_subschema_mut0B6_
FN:1981,_RNCNvXNtCs6DmBUIV3MEM_18dsc_lib_jsonschema25schema_utility_extensionsNtNtCsdG7205R6am3_8schemars6schema6SchemaNtB4_23SchemaUtilityExtensions31remove_bundled_schema_resources0B6_
FN:1887,_RNCNvXNtCs6DmBUIV3MEM_18dsc_lib_jsonschema25schema_utility_extensionsNtNtCsdG7205R6am3_8schemars6schema6SchemaNtB4_23SchemaUtilityExtensions33get_defs_subschema_from_reference0B6_
FN:2011,_RNCNvXNtCs6DmBUIV3MEM_18dsc_lib_jsonschema25schema_utility_extensionsNtNtCsdG7205R6am3_8schemars6schema6SchemaNtB4_23SchemaUtilityExtensions35rename_defs_subschema_for_reference0B6_
FN:1909,_RNCNvXNtCs6DmBUIV3MEM_18dsc_lib_jsonschema25schema_utility_extensionsNtNtCsdG7205R6am3_8schemars6schema6SchemaNtB4_23SchemaUtilityExtensions37get_defs_subschema_from_reference_mut0B6_
FN:2167,_RNCNvXNtCs6DmBUIV3MEM_18dsc_lib_jsonschema25schema_utility_extensionsNtNtCsdG7205R6am3_8schemars6schema6SchemaNtB4_23SchemaUtilityExtensions41get_references_to_bundled_schema_resource0B6_
FN:2064,_RNCNvXNtCs6DmBUIV3MEM_18dsc_lib_jsonschema25schema_utility_extensionsNtNtCsdG7205R6am3_8schemars6schema6SchemaNtB4_23SchemaUtilityExtensions6set_id0B6_
FN:1844,_RNvXNtCs92r3DgzGcjh_18dsc_lib_jsonschema25schema_utility_extensionsNtNtCsdG7205R6am3_8schemars6schema6SchemaNtB2_23SchemaUtilityExtensions18get_keyword_as_u64
FN:1944,_RNvXNtCs92r3DgzGcjh_18dsc_lib_jsonschema25schema_utility_extensionsNtNtCsdG7205R6am3_8schemars6schema6SchemaNtB2_23SchemaUtilityExtensions21insert_defs_subschema
FN:2226,_RNvXNtCs92r3DgzGcjh_18dsc_lib_jsonschema25schema_utility_extensionsNtNtCsdG7205R6am3_8schemars6schema6SchemaNtB2_23SchemaUtilityExtensions33reference_is_for_bundled_resource
FN:1851,_RNvXNtCs92r3DgzGcjh_18dsc_lib_jsonschema25schema_utility_extensionsNtNtCsdG7205R6am3_8schemars6schema6SchemaNtB2_23SchemaUtilityExtensions12get_defs_mut
FN:2048,_RNvXNtCs92r3DgzGcjh_18dsc_lib_jsonschema25schema_utility_extensionsNtNtCsdG7205R6am3_8schemars6schema6SchemaNtB2_23SchemaUtilityExtensions13get_id_as_url
FN:2070,_RNvXNtCs92r3DgzGcjh_18dsc_lib_jsonschema25schema_utility_extensionsNtNtCsdG7205R6am3_8schemars6schema6SchemaNtB2_23SchemaUtilityExtensions14get_properties
FN:2086,_RNvXNtCs92r3DgzGcjh_18dsc_lib_jsonschema25schema_utility_extensionsNtNtCsdG7205R6am3_8schemars6schema6SchemaNtB2_23SchemaUtilityExtensions14get_references
FN:2055,_RNvXNtCs92r3DgzGcjh_18dsc_lib_jsonschema25schema_utility_extensionsNtNtCsdG7205R6am3_8schemars6schema6SchemaNtB2_23SchemaUtilityExtensions14has_id_keyword
FN:1803,_RNvXNtCs92r3DgzGcjh_18dsc_lib_jsonschema25schema_utility_extensionsNtNtCsdG7205R6am3_8schemars6schema6SchemaNtB2_23SchemaUtilityExtensions18get_keyword_as_f64
FN:1807,_RNvXNtCs92r3DgzGcjh_18dsc_lib_jsonschema25schema_utility_extensionsNtNtCsdG7205R6am3_8schemars6schema6SchemaNtB2_23SchemaUtilityExtensions18get_keyword_as_i64
FN:1827,_RNvXNtCs92r3DgzGcjh_18dsc_lib_jsonschema25schema_utility_extensionsNtNtCsdG7205R6am3_8schemars6schema6SchemaNtB2_23SchemaUtilityExtensions18get_keyword_as_str
FN:2073,_RNvXNtCs92r3DgzGcjh_18dsc_lib_jsonschema25schema_utility_extensionsNtNtCsdG7205R6am3_8schemars6schema6SchemaNtB2_23SchemaUtilityExtensions18get_properties_mut
FN:2170,_RNvXNtCs92r3DgzGcjh_18dsc_lib_jsonschema25schema_utility_extensionsNtNtCsdG7205R6am3_8schemars6schema6SchemaNtB2_23SchemaUtilityExtensions18replace_references
FN:1799,_RNvXNtCs92r3DgzGcjh_18dsc_lib_jsonschema25schema_utility_extensionsNtNtCsdG7205R6am3_8schemars6schema6SchemaNtB2_23SchemaUtilityExtensions19get_keyword_as_bool
FN:1811,_RNvXNtCs92r3DgzGcjh_18dsc_lib_jsonschema25schema_utility_extensionsNtNtCsdG7205R6am3_8schemars6schema6SchemaNtB2_23SchemaUtilityExtensions19get_keyword_as_null
FN:1791,_RNvXNtCs92r3DgzGcjh_18dsc_lib_jsonschema25schema_utility_extensionsNtNtCsdG7205R6am3_8schemars6schema6SchemaNtB2_23SchemaUtilityExtensions20get_keyword_as_array
FN:1815,_RNvXNtCs92r3DgzGcjh_18dsc_lib_jsonschema25schema_utility_extensionsNtNtCsdG7205R6am3_8schemars6schema6SchemaNtB2_23SchemaUtilityExtensions21get_keyword_as_number
FN:1819,_RNvXNtCs92r3DgzGcjh_18dsc_lib_jsonschema25schema_utility_extensionsNtNtCsdG7205R6am3_8schemars6schema6SchemaNtB2_23SchemaUtilityExtensions21get_keyword_as_object
FN:1831,_RNvXNtCs92r3DgzGcjh_18dsc_lib_jsonschema25schema_utility_extensionsNtNtCsdG7205R6am3_8schemars6schema6SchemaNtB2_23SchemaUtilityExtensions21get_keyword_as_string
FN:1985,_RNvXNtCs92r3DgzGcjh_18dsc_lib_jsonschema25schema_utility_extensionsNtNtCsdG7205R6am3_8schemars6schema6SchemaNtB2_23SchemaUtilityExtensions21rename_defs_subschema
FN:2076,_RNvXNtCs92r3DgzGcjh_18dsc_lib_jsonschema25schema_utility_extensionsNtNtCsdG7205R6am3_8schemars6schema6SchemaNtB2_23SchemaUtilityExtensions22get_property_subschema
FN:1795,_RNvXNtCs92r3DgzGcjh_18dsc_lib_jsonschema25schema_utility_extensionsNtNtCsdG7205R6am3_8schemars6schema6SchemaNtB2_23SchemaUtilityExtensions24get_keyword_as_array_mut
FN:1836,_RNvXNtCs92r3DgzGcjh_18dsc_lib_jsonschema25schema_utility_extensionsNtNtCsdG7205R6am3_8schemars6schema6SchemaNtB2_23SchemaUtilityExtensions24get_keyword_as_subschema
FN:1823,_RNvXNtCs92r3DgzGcjh_18dsc_lib_jsonschema25schema_utility_extensionsNtNtCsdG7205R6am3_8schemars6schema6SchemaNtB2_23SchemaUtilityExtensions25get_keyword_as_object_mut
FN:1854,_RNvXNtCs92r3DgzGcjh_18dsc_lib_jsonschema25schema_utility_extensionsNtNtCsdG7205R6am3_8schemars6schema6SchemaNtB2_23SchemaUtilityExtensions26get_defs_subschema_from_id
FN:2081,_RNvXNtCs92r3DgzGcjh_18dsc_lib_jsonschema25schema_utility_extensionsNtNtCsdG7205R6am3_8schemars6schema6SchemaNtB2_23SchemaUtilityExtensions26get_property_subschema_mut
FN:2229,_RNvXNtCs92r3DgzGcjh_18dsc_lib_jsonschema25schema_utility_extensionsNtNtCsdG7205R6am3_8schemars6schema6SchemaNtB2_23SchemaUtilityExtensions26to_value_with_stable_order
FN:1840,_RNvXNtCs92r3DgzGcjh_18dsc_lib_jsonschema25schema_utility_extensionsNtNtCsdG7205R6am3_8schemars6schema6SchemaNtB2_23SchemaUtilityExtensions28get_keyword_as_subschema_mut
FN:1869,_RNvXNtCs92r3DgzGcjh_18dsc_lib_jsonschema25schema_utility_extensionsNtNtCsdG7205R6am3_8schemars6schema6SchemaNtB2_23SchemaUtilityExtensions30get_defs_subschema_from_id_mut
FN:2019,_RNvXNtCs92r3DgzGcjh_18dsc_lib_jsonschema25schema_utility_extensionsNtNtCsdG7205R6am3_8schemars6schema6SchemaNtB2_23SchemaUtilityExtensions31get_bundled_schema_resource_ids
FN:1965,_RNvXNtCs92r3DgzGcjh_18dsc_lib_jsonschema25schema_utility_extensionsNtNtCsdG7205R6am3_8schemars6schema6SchemaNtB2_23SchemaUtilityExtensions31remove_bundled_schema_resources
FN:1884,_RNvXNtCs92r3DgzGcjh_18dsc_lib_jsonschema25schema_utility_extensionsNtNtCsdG7205R6am3_8schemars6schema6SchemaNtB2_23SchemaUtilityExtensions33get_defs_subschema_from_reference
FN:1998,_RNvXNtCs92r3DgzGcjh_18dsc_lib_jsonschema25schema_utility_extensionsNtNtCsdG7205R6am3_8schemars6schema6SchemaNtB2_23SchemaUtilityExtensions35rename_defs_subschema_for_reference
FN:1928,_RNvXNtCs92r3DgzGcjh_18dsc_lib_jsonschema25schema_utility_extensionsNtNtCsdG7205R6am3_8schemars6schema6SchemaNtB2_23SchemaUtilityExtensions36get_bundled_schema_resource_defs_key
FN:1906,_RNvXNtCs92r3DgzGcjh_18dsc_lib_jsonschema25schema_utility_extensionsNtNtCsdG7205R6am3_8schemars6schema6SchemaNtB2_23SchemaUtilityExtensions37get_defs_subschema_from_reference_mut
FN:2147,_RNvXNtCs92r3DgzGcjh_18dsc_lib_jsonschema25schema_utility_extensionsNtNtCsdG7205R6am3_8schemars6schema6SchemaNtB2_23SchemaUtilityExtensions41get_references_to_bundled_schema_resource
FN:2240,_RNvXNtCs92r3DgzGcjh_18dsc_lib_jsonschema25schema_utility_extensionsNtNtCsdG7205R6am3_8schemars6schema6SchemaNtB2_23SchemaUtilityExtensions48canonicalize_refs_and_defs_for_bundled_resources
FN:2045,_RNvXNtCs92r3DgzGcjh_18dsc_lib_jsonschema25schema_utility_extensionsNtNtCsdG7205R6am3_8schemars6schema6SchemaNtB2_23SchemaUtilityExtensions6get_id
FN:2058,_RNvXNtCs92r3DgzGcjh_18dsc_lib_jsonschema25schema_utility_extensionsNtNtCsdG7205R6am3_8schemars6schema6SchemaNtB2_23SchemaUtilityExtensions6set_id
FN:1848,_RNvXNtCs92r3DgzGcjh_18dsc_lib_jsonschema25schema_utility_extensionsNtNtCsdG7205R6am3_8schemars6schema6SchemaNtB2_23SchemaUtilityExtensions8get_defs
FN:2171,_RNCNvXNtCs92r3DgzGcjh_18dsc_lib_jsonschema25schema_utility_extensionsNtNtCsdG7205R6am3_8schemars6schema6SchemaNtB4_23SchemaUtilityExtensions18replace_references0B6_
FN:1990,_RNCNvXNtCs92r3DgzGcjh_18dsc_lib_jsonschema25schema_utility_extensionsNtNtCsdG7205R6am3_8schemars6schema6SchemaNtB4_23SchemaUtilityExtensions21rename_defs_subschema0B6_
FN:2078,_RNCNvXNtCs92r3DgzGcjh_18dsc_lib_jsonschema25schema_utility_extensionsNtNtCsdG7205R6am3_8schemars6schema6SchemaNtB4_23SchemaUtilityExtensions22get_property_subschema0B6_
FN:2079,_RNCNvXNtCs92r3DgzGcjh_18dsc_lib_jsonschema25schema_utility_extensionsNtNtCsdG7205R6am3_8schemars6schema6SchemaNtB4_23SchemaUtilityExtensions22get_property_subschemas_0B6_
FN:1838,_RNCNvXNtCs92r3DgzGcjh_18dsc_lib_jsonschema25schema_utility_extensionsNtNtCsdG7205R6am3_8schemars6schema6SchemaNtB4_23SchemaUtilityExtensions24get_keyword_as_subschema0B6_
FN:2083,_RNCNvXNtCs92r3DgzGcjh_18dsc_lib_jsonschema25schema_utility_extensionsNtNtCsdG7205R6am3_8schemars6schema6SchemaNtB4_23SchemaUtilityExtensions26get_property_subschema_mut0B6_
FN:2084,_RNCNvXNtCs92r3DgzGcjh_18dsc_lib_jsonschema25schema_utility_extensionsNtNtCsdG7205R6am3_8schemars6schema6SchemaNtB4_23SchemaUtilityExtensions26get_property_subschema_muts_0B6_
FN:1842,_RNCNvXNtCs92r3DgzGcjh_18dsc_lib_jsonschema25schema_utility_extensionsNtNtCsdG7205R6am3_8schemars6schema6SchemaNtB4_23SchemaUtilityExtensions28get_keyword_as_subschema_mut0B6_
FN:1981,_RNCNvXNtCs92r3DgzGcjh_18dsc_lib_jsonschema25schema_utility_extensionsNtNtCsdG7205R6am3_8schemars6schema6SchemaNtB4_23SchemaUtilityExtensions31remove_bundled_schema_resources0B6_
FN:1887,_RNCNvXNtCs92r3DgzGcjh_18dsc_lib_jsonschema25schema_utility_extensionsNtNtCsdG7205R6am3_8schemars6schema6SchemaNtB4_23SchemaUtilityExtensions33get_defs_subschema_from_reference0B6_
FN:2011,_RNCNvXNtCs92r3DgzGcjh_18dsc_lib_jsonschema25schema_utility_extensionsNtNtCsdG7205R6am3_8schemars6schema6SchemaNtB4_23SchemaUtilityExtensions35rename_defs_subschema_for_reference0B6_
FN:1909,_RNCNvXNtCs92r3DgzGcjh_18dsc_lib_jsonschema25schema_utility_extensionsNtNtCsdG7205R6am3_8schemars6schema6SchemaNtB4_23SchemaUtilityExtensions37get_defs_subschema_from_reference_mut0B6_
FN:2167,_RNCNvXNtCs92r3DgzGcjh_18dsc_lib_jsonschema25schema_utility_extensionsNtNtCsdG7205R6am3_8schemars6schema6SchemaNtB4_23SchemaUtilityExtensions41get_references_to_bundled_schema_resource0B6_
FN:2064,_RNCNvXNtCs92r3DgzGcjh_18dsc_lib_jsonschema25schema_utility_extensionsNtNtCsdG7205R6am3_8schemars6schema6SchemaNtB4_23SchemaUtilityExtensions6set_id0B6_
FNDA:9,_RNCNvXNtCse9HBjRuE3ke_18dsc_lib_jsonschema25schema_utility_extensionsNtNtCsdG7205R6am3_8schemars6schema6SchemaNtB4_23SchemaUtilityExtensions18replace_references0B6_
FNDA:0,_RNCNvXNtCse9HBjRuE3ke_18dsc_lib_jsonschema25schema_utility_extensionsNtNtCsdG7205R6am3_8schemars6schema6SchemaNtB4_23SchemaUtilityExtensions21rename_defs_subschema0B6_
FNDA:12,_RNCNvXNtCse9HBjRuE3ke_18dsc_lib_jsonschema25schema_utility_extensionsNtNtCsdG7205R6am3_8schemars6schema6SchemaNtB4_23SchemaUtilityExtensions22get_property_subschema0B6_
FNDA:12,_RNCNvXNtCse9HBjRuE3ke_18dsc_lib_jsonschema25schema_utility_extensionsNtNtCsdG7205R6am3_8schemars6schema6SchemaNtB4_23SchemaUtilityExtensions22get_property_subschemas_0B6_
FNDA:1,_RNCNvXNtCse9HBjRuE3ke_18dsc_lib_jsonschema25schema_utility_extensionsNtNtCsdG7205R6am3_8schemars6schema6SchemaNtB4_23SchemaUtilityExtensions24get_keyword_as_subschema0B6_
FNDA:0,_RNCNvXNtCse9HBjRuE3ke_18dsc_lib_jsonschema25schema_utility_extensionsNtNtCsdG7205R6am3_8schemars6schema6SchemaNtB4_23SchemaUtilityExtensions26get_property_subschema_mut0B6_
FNDA:0,_RNCNvXNtCse9HBjRuE3ke_18dsc_lib_jsonschema25schema_utility_extensionsNtNtCsdG7205R6am3_8schemars6schema6SchemaNtB4_23SchemaUtilityExtensions26get_property_subschema_muts_0B6_
FNDA:0,_RNCNvXNtCse9HBjRuE3ke_18dsc_lib_jsonschema25schema_utility_extensionsNtNtCsdG7205R6am3_8schemars6schema6SchemaNtB4_23SchemaUtilityExtensions28get_keyword_as_subschema_mut0B6_
FNDA:3,_RNCNvXNtCse9HBjRuE3ke_18dsc_lib_jsonschema25schema_utility_extensionsNtNtCsdG7205R6am3_8schemars6schema6SchemaNtB4_23SchemaUtilityExtensions31remove_bundled_schema_resources0B6_
FNDA:3,_RNCNvXNtCse9HBjRuE3ke_18dsc_lib_jsonschema25schema_utility_extensionsNtNtCsdG7205R6am3_8schemars6schema6SchemaNtB4_23SchemaUtilityExtensions33get_defs_subschema_from_reference0B6_
FNDA:9,_RNCNvXNtCse9HBjRuE3ke_18dsc_lib_jsonschema25schema_utility_extensionsNtNtCsdG7205R6am3_8schemars6schema6SchemaNtB4_23SchemaUtilityExtensions35rename_defs_subschema_for_reference0B6_
FNDA:0,_RNCNvXNtCse9HBjRuE3ke_18dsc_lib_jsonschema25schema_utility_extensionsNtNtCsdG7205R6am3_8schemars6schema6SchemaNtB4_23SchemaUtilityExtensions37get_defs_subschema_from_reference_mut0B6_
FNDA:9,_RNCNvXNtCse9HBjRuE3ke_18dsc_lib_jsonschema25schema_utility_extensionsNtNtCsdG7205R6am3_8schemars6schema6SchemaNtB4_23SchemaUtilityExtensions41get_references_to_bundled_schema_resource0B6_
FNDA:0,_RNCNvXNtCse9HBjRuE3ke_18dsc_lib_jsonschema25schema_utility_extensionsNtNtCsdG7205R6am3_8schemars6schema6SchemaNtB4_23SchemaUtilityExtensions6set_id0B6_
FNDA:10,_RNvXNtCse9HBjRuE3ke_18dsc_lib_jsonschema25schema_utility_extensionsNtNtCsdG7205R6am3_8schemars6schema6SchemaNtB2_23SchemaUtilityExtensions12get_defs_mut
FNDA:3,_RNvXNtCse9HBjRuE3ke_18dsc_lib_jsonschema25schema_utility_extensionsNtNtCsdG7205R6am3_8schemars6schema6SchemaNtB2_23SchemaUtilityExtensions13get_id_as_url
FNDA:12,_RNvXNtCse9HBjRuE3ke_18dsc_lib_jsonschema25schema_utility_extensionsNtNtCsdG7205R6am3_8schemars6schema6SchemaNtB2_23SchemaUtilityExtensions14get_properties
FNDA:21,_RNvXNtCse9HBjRuE3ke_18dsc_lib_jsonschema25schema_utility_extensionsNtNtCsdG7205R6am3_8schemars6schema6SchemaNtB2_23SchemaUtilityExtensions14get_references
FNDA:0,_RNvXNtCse9HBjRuE3ke_18dsc_lib_jsonschema25schema_utility_extensionsNtNtCsdG7205R6am3_8schemars6schema6SchemaNtB2_23SchemaUtilityExtensions14has_id_keyword
FNDA:0,_RNvXNtCse9HBjRuE3ke_18dsc_lib_jsonschema25schema_utility_extensionsNtNtCsdG7205R6am3_8schemars6schema6SchemaNtB2_23SchemaUtilityExtensions18get_keyword_as_f64
FNDA:0,_RNvXNtCse9HBjRuE3ke_18dsc_lib_jsonschema25schema_utility_extensionsNtNtCsdG7205R6am3_8schemars6schema6SchemaNtB2_23SchemaUtilityExtensions18get_keyword_as_i64
FNDA:156,_RNvXNtCse9HBjRuE3ke_18dsc_lib_jsonschema25schema_utility_extensionsNtNtCsdG7205R6am3_8schemars6schema6SchemaNtB2_23SchemaUtilityExtensions18get_keyword_as_str
FNDA:0,_RNvXNtCse9HBjRuE3ke_18dsc_lib_jsonschema25schema_utility_extensionsNtNtCsdG7205R6am3_8schemars6schema6SchemaNtB2_23SchemaUtilityExtensions18get_keyword_as_u64
FNDA:0,_RNvXNtCse9HBjRuE3ke_18dsc_lib_jsonschema25schema_utility_extensionsNtNtCsdG7205R6am3_8schemars6schema6SchemaNtB2_23SchemaUtilityExtensions18get_properties_mut
FNDA:21,_RNvXNtCse9HBjRuE3ke_18dsc_lib_jsonschema25schema_utility_extensionsNtNtCsdG7205R6am3_8schemars6schema6SchemaNtB2_23SchemaUtilityExtensions18replace_references
FNDA:0,_RNvXNtCse9HBjRuE3ke_18dsc_lib_jsonschema25schema_utility_extensionsNtNtCsdG7205R6am3_8schemars6schema6SchemaNtB2_23SchemaUtilityExtensions19get_keyword_as_bool
FNDA:0,_RNvXNtCse9HBjRuE3ke_18dsc_lib_jsonschema25schema_utility_extensionsNtNtCsdG7205R6am3_8schemars6schema6SchemaNtB2_23SchemaUtilityExtensions19get_keyword_as_null
FNDA:8,_RNvXNtCse9HBjRuE3ke_18dsc_lib_jsonschema25schema_utility_extensionsNtNtCsdG7205R6am3_8schemars6schema6SchemaNtB2_23SchemaUtilityExtensions20get_keyword_as_array
FNDA:0,_RNvXNtCse9HBjRuE3ke_18dsc_lib_jsonschema25schema_utility_extensionsNtNtCsdG7205R6am3_8schemars6schema6SchemaNtB2_23SchemaUtilityExtensions21get_keyword_as_number
FNDA:38,_RNvXNtCse9HBjRuE3ke_18dsc_lib_jsonschema25schema_utility_extensionsNtNtCsdG7205R6am3_8schemars6schema6SchemaNtB2_23SchemaUtilityExtensions21get_keyword_as_object
FNDA:40,_RNvXNtCse9HBjRuE3ke_18dsc_lib_jsonschema25schema_utility_extensionsNtNtCsdG7205R6am3_8schemars6schema6SchemaNtB2_23SchemaUtilityExtensions21get_keyword_as_string
FNDA:0,_RNvXNtCse9HBjRuE3ke_18dsc_lib_jsonschema25schema_utility_extensionsNtNtCsdG7205R6am3_8schemars6schema6SchemaNtB2_23SchemaUtilityExtensions21insert_defs_subschema
FNDA:0,_RNvXNtCse9HBjRuE3ke_18dsc_lib_jsonschema25schema_utility_extensionsNtNtCsdG7205R6am3_8schemars6schema6SchemaNtB2_23SchemaUtilityExtensions21rename_defs_subschema
FNDA:12,_RNvXNtCse9HBjRuE3ke_18dsc_lib_jsonschema25schema_utility_extensionsNtNtCsdG7205R6am3_8schemars6schema6SchemaNtB2_23SchemaUtilityExtensions22get_property_subschema
FNDA:0,_RNvXNtCse9HBjRuE3ke_18dsc_lib_jsonschema25schema_utility_extensionsNtNtCsdG7205R6am3_8schemars6schema6SchemaNtB2_23SchemaUtilityExtensions24get_keyword_as_array_mut
FNDA:1,_RNvXNtCse9HBjRuE3ke_18dsc_lib_jsonschema25schema_utility_extensionsNtNtCsdG7205R6am3_8schemars6schema6SchemaNtB2_23SchemaUtilityExtensions24get_keyword_as_subschema
FNDA:10,_RNvXNtCse9HBjRuE3ke_18dsc_lib_jsonschema25schema_utility_extensionsNtNtCsdG7205R6am3_8schemars6schema6SchemaNtB2_23SchemaUtilityExtensions25get_keyword_as_object_mut
FNDA:0,_RNvXNtCse9HBjRuE3ke_18dsc_lib_jsonschema25schema_utility_extensionsNtNtCsdG7205R6am3_8schemars6schema6SchemaNtB2_23SchemaUtilityExtensions26get_defs_subschema_from_id
FNDA:0,_RNvXNtCse9HBjRuE3ke_18dsc_lib_jsonschema25schema_utility_extensionsNtNtCsdG7205R6am3_8schemars6schema6SchemaNtB2_23SchemaUtilityExtensions26get_property_subschema_mut
FNDA:0,_RNvXNtCse9HBjRuE3ke_18dsc_lib_jsonschema25schema_utility_extensionsNtNtCsdG7205R6am3_8schemars6schema6SchemaNtB2_23SchemaUtilityExtensions26to_value_with_stable_order
FNDA:0,_RNvXNtCse9HBjRuE3ke_18dsc_lib_jsonschema25schema_utility_extensionsNtNtCsdG7205R6am3_8schemars6schema6SchemaNtB2_23SchemaUtilityExtensions28get_keyword_as_subschema_mut
FNDA:0,_RNvXNtCse9HBjRuE3ke_18dsc_lib_jsonschema25schema_utility_extensionsNtNtCsdG7205R6am3_8schemars6schema6SchemaNtB2_23SchemaUtilityExtensions30get_defs_subschema_from_id_mut
FNDA:15,_RNvXNtCse9HBjRuE3ke_18dsc_lib_jsonschema25schema_utility_extensionsNtNtCsdG7205R6am3_8schemars6schema6SchemaNtB2_23SchemaUtilityExtensions31get_bundled_schema_resource_ids
FNDA:4,_RNvXNtCse9HBjRuE3ke_18dsc_lib_jsonschema25schema_utility_extensionsNtNtCsdG7205R6am3_8schemars6schema6SchemaNtB2_23SchemaUtilityExtensions31remove_bundled_schema_resources
FNDA:3,_RNvXNtCse9HBjRuE3ke_18dsc_lib_jsonschema25schema_utility_extensionsNtNtCsdG7205R6am3_8schemars6schema6SchemaNtB2_23SchemaUtilityExtensions33get_defs_subschema_from_reference
FNDA:0,_RNvXNtCse9HBjRuE3ke_18dsc_lib_jsonschema25schema_utility_extensionsNtNtCsdG7205R6am3_8schemars6schema6SchemaNtB2_23SchemaUtilityExtensions33reference_is_for_bundled_resource
FNDA:3,_RNvXNtCse9HBjRuE3ke_18dsc_lib_jsonschema25schema_utility_extensionsNtNtCsdG7205R6am3_8schemars6schema6SchemaNtB2_23SchemaUtilityExtensions35rename_defs_subschema_for_reference
FNDA:11,_RNvXNtCse9HBjRuE3ke_18dsc_lib_jsonschema25schema_utility_extensionsNtNtCsdG7205R6am3_8schemars6schema6SchemaNtB2_23SchemaUtilityExtensions36get_bundled_schema_resource_defs_key
FNDA:0,_RNvXNtCse9HBjRuE3ke_18dsc_lib_jsonschema25schema_utility_extensionsNtNtCsdG7205R6am3_8schemars6schema6SchemaNtB2_23SchemaUtilityExtensions37get_defs_subschema_from_reference_mut
FNDA:3,_RNvXNtCse9HBjRuE3ke_18dsc_lib_jsonschema25schema_utility_extensionsNtNtCsdG7205R6am3_8schemars6schema6SchemaNtB2_23SchemaUtilityExtensions41get_references_to_bundled_schema_resource
FNDA:2,_RNvXNtCse9HBjRuE3ke_18dsc_lib_jsonschema25schema_utility_extensionsNtNtCsdG7205R6am3_8schemars6schema6SchemaNtB2_23SchemaUtilityExtensions48canonicalize_refs_and_defs_for_bundled_resources
FNDA:36,_RNvXNtCse9HBjRuE3ke_18dsc_lib_jsonschema25schema_utility_extensionsNtNtCsdG7205R6am3_8schemars6schema6SchemaNtB2_23SchemaUtilityExtensions6get_id
FNDA:0,_RNvXNtCse9HBjRuE3ke_18dsc_lib_jsonschema25schema_utility_extensionsNtNtCsdG7205R6am3_8schemars6schema6SchemaNtB2_23SchemaUtilityExtensions6set_id
FNDA:26,_RNvXNtCse9HBjRuE3ke_18dsc_lib_jsonschema25schema_utility_extensionsNtNtCsdG7205R6am3_8schemars6schema6SchemaNtB2_23SchemaUtilityExtensions8get_defs
FNDA:10,_RNvXNtCs1p6hG0j9t4b_18dsc_lib_jsonschema25schema_utility_extensionsNtNtCsdG7205R6am3_8schemars6schema6SchemaNtB2_23SchemaUtilityExtensions12get_defs_mut
FNDA:3,_RNvXNtCs1p6hG0j9t4b_18dsc_lib_jsonschema25schema_utility_extensionsNtNtCsdG7205R6am3_8schemars6schema6SchemaNtB2_23SchemaUtilityExtensions13get_id_as_url
FNDA:12,_RNvXNtCs1p6hG0j9t4b_18dsc_lib_jsonschema25schema_utility_extensionsNtNtCsdG7205R6am3_8schemars6schema6SchemaNtB2_23SchemaUtilityExtensions14get_properties
FNDA:21,_RNvXNtCs1p6hG0j9t4b_18dsc_lib_jsonschema25schema_utility_extensionsNtNtCsdG7205R6am3_8schemars6schema6SchemaNtB2_23SchemaUtilityExtensions14get_references
FNDA:0,_RNvXNtCs1p6hG0j9t4b_18dsc_lib_jsonschema25schema_utility_extensionsNtNtCsdG7205R6am3_8schemars6schema6SchemaNtB2_23SchemaUtilityExtensions14has_id_keyword
FNDA:0,_RNvXNtCs1p6hG0j9t4b_18dsc_lib_jsonschema25schema_utility_extensionsNtNtCsdG7205R6am3_8schemars6schema6SchemaNtB2_23SchemaUtilityExtensions18get_keyword_as_f64
FNDA:0,_RNvXNtCs1p6hG0j9t4b_18dsc_lib_jsonschema25schema_utility_extensionsNtNtCsdG7205R6am3_8schemars6schema6SchemaNtB2_23SchemaUtilityExtensions18get_keyword_as_i64
FNDA:156,_RNvXNtCs1p6hG0j9t4b_18dsc_lib_jsonschema25schema_utility_extensionsNtNtCsdG7205R6am3_8schemars6schema6SchemaNtB2_23SchemaUtilityExtensions18get_keyword_as_str
FNDA:0,_RNvXNtCs1p6hG0j9t4b_18dsc_lib_jsonschema25schema_utility_extensionsNtNtCsdG7205R6am3_8schemars6schema6SchemaNtB2_23SchemaUtilityExtensions18get_keyword_as_u64
FNDA:0,_RNvXNtCs1p6hG0j9t4b_18dsc_lib_jsonschema25schema_utility_extensionsNtNtCsdG7205R6am3_8schemars6schema6SchemaNtB2_23SchemaUtilityExtensions18get_properties_mut
FNDA:21,_RNvXNtCs1p6hG0j9t4b_18dsc_lib_jsonschema25schema_utility_extensionsNtNtCsdG7205R6am3_8schemars6schema6SchemaNtB2_23SchemaUtilityExtensions18replace_references
FNDA:0,_RNvXNtCs1p6hG0j9t4b_18dsc_lib_jsonschema25schema_utility_extensionsNtNtCsdG7205R6am3_8schemars6schema6SchemaNtB2_23SchemaUtilityExtensions19get_keyword_as_bool
FNDA:0,_RNvXNtCs1p6hG0j9t4b_18dsc_lib_jsonschema25schema_utility_extensionsNtNtCsdG7205R6am3_8schemars6schema6SchemaNtB2_23SchemaUtilityExtensions19get_keyword_as_null
FNDA:8,_RNvXNtCs1p6hG0j9t4b_18dsc_lib_jsonschema25schema_utility_extensionsNtNtCsdG7205R6am3_8schemars6schema6SchemaNtB2_23SchemaUtilityExtensions20get_keyword_as_array
FNDA:0,_RNvXNtCs1p6hG0j9t4b_18dsc_lib_jsonschema25schema_utility_extensionsNtNtCsdG7205R6am3_8schemars6schema6SchemaNtB2_23SchemaUtilityExtensions21get_keyword_as_number
FNDA:38,_RNvXNtCs1p6hG0j9t4b_18dsc_lib_jsonschema25schema_utility_extensionsNtNtCsdG7205R6am3_8schemars6schema6SchemaNtB2_23SchemaUtilityExtensions21get_keyword_as_object
FNDA:40,_RNvXNtCs1p6hG0j9t4b_18dsc_lib_jsonschema25schema_utility_extensionsNtNtCsdG7205R6am3_8schemars6schema6SchemaNtB2_23SchemaUtilityExtensions21get_keyword_as_string
FNDA:0,_RNvXNtCs1p6hG0j9t4b_18dsc_lib_jsonschema25schema_utility_extensionsNtNtCsdG7205R6am3_8schemars6schema6SchemaNtB2_23SchemaUtilityExtensions21insert_defs_subschema
FNDA:0,_RNvXNtCs1p6hG0j9t4b_18dsc_lib_jsonschema25schema_utility_extensionsNtNtCsdG7205R6am3_8schemars6schema6SchemaNtB2_23SchemaUtilityExtensions21rename_defs_subschema
FNDA:12,_RNvXNtCs1p6hG0j9t4b_18dsc_lib_jsonschema25schema_utility_extensionsNtNtCsdG7205R6am3_8schemars6schema6SchemaNtB2_23SchemaUtilityExtensions22get_property_subschema
FNDA:0,_RNvXNtCs1p6hG0j9t4b_18dsc_lib_jsonschema25schema_utility_extensionsNtNtCsdG7205R6am3_8schemars6schema6SchemaNtB2_23SchemaUtilityExtensions24get_keyword_as_array_mut
FNDA:1,_RNvXNtCs1p6hG0j9t4b_18dsc_lib_jsonschema25schema_utility_extensionsNtNtCsdG7205R6am3_8schemars6schema6SchemaNtB2_23SchemaUtilityExtensions24get_keyword_as_subschema
FNDA:10,_RNvXNtCs1p6hG0j9t4b_18dsc_lib_jsonschema25schema_utility_extensionsNtNtCsdG7205R6am3_8schemars6schema6SchemaNtB2_23SchemaUtilityExtensions25get_keyword_as_object_mut
FNDA:0,_RNvXNtCs1p6hG0j9t4b_18dsc_lib_jsonschema25schema_utility_extensionsNtNtCsdG7205R6am3_8schemars6schema6SchemaNtB2_23SchemaUtilityExtensions26get_defs_subschema_from_id
FNDA:0,_RNvXNtCs1p6hG0j9t4b_18dsc_lib_jsonschema25schema_utility_extensionsNtNtCsdG7205R6am3_8schemars6schema6SchemaNtB2_23SchemaUtilityExtensions26get_property_subschema_mut
FNDA:0,_RNvXNtCs1p6hG0j9t4b_18dsc_lib_jsonschema25schema_utility_extensionsNtNtCsdG7205R6am3_8schemars6schema6SchemaNtB2_23SchemaUtilityExtensions26to_value_with_stable_order
FNDA:0,_RNvXNtCs1p6hG0j9t4b_18dsc_lib_jsonschema25schema_utility_extensionsNtNtCsdG7205R6am3_8schemars6schema6SchemaNtB2_23SchemaUtilityExtensions28get_keyword_as_subschema_mut
FNDA:0,_RNvXNtCs1p6hG0j9t4b_18dsc_lib_jsonschema25schema_utility_extensionsNtNtCsdG7205R6am3_8schemars6schema6SchemaNtB2_23SchemaUtilityExtensions30get_defs_subschema_from_id_mut
FNDA:15,_RNvXNtCs1p6hG0j9t4b_18dsc_lib_jsonschema25schema_utility_extensionsNtNtCsdG7205R6am3_8schemars6schema6SchemaNtB2_23SchemaUtilityExtensions31get_bundled_schema_resource_ids
FNDA:4,_RNvXNtCs1p6hG0j9t4b_18dsc_lib_jsonschema25schema_utility_extensionsNtNtCsdG7205R6am3_8schemars6schema6SchemaNtB2_23SchemaUtilityExtensions31remove_bundled_schema_resources
FNDA:3,_RNvXNtCs1p6hG0j9t4b_18dsc_lib_jsonschema25schema_utility_extensionsNtNtCsdG7205R6am3_8schemars6schema6SchemaNtB2_23SchemaUtilityExtensions33get_defs_subschema_from_reference
FNDA:0,_RNvXNtCs1p6hG0j9t4b_18dsc_lib_jsonschema25schema_utility_extensionsNtNtCsdG7205R6am3_8schemars6schema6SchemaNtB2_23SchemaUtilityExtensions33reference_is_for_bundled_resource
FNDA:3,_RNvXNtCs1p6hG0j9t4b_18dsc_lib_jsonschema25schema_utility_extensionsNtNtCsdG7205R6am3_8schemars6schema6SchemaNtB2_23SchemaUtilityExtensions35rename_defs_subschema_for_reference
FNDA:11,_RNvXNtCs1p6hG0j9t4b_18dsc_lib_jsonschema25schema_utility_extensionsNtNtCsdG7205R6am3_8schemars6schema6SchemaNtB2_23SchemaUtilityExtensions36get_bundled_schema_resource_defs_key
FNDA:0,_RNvXNtCs1p6hG0j9t4b_18dsc_lib_jsonschema25schema_utility_extensionsNtNtCsdG7205R6am3_8schemars6schema6SchemaNtB2_23SchemaUtilityExtensions37get_defs_subschema_from_reference_mut
FNDA:3,_RNvXNtCs1p6hG0j9t4b_18dsc_lib_jsonschema25schema_utility_extensionsNtNtCsdG7205R6am3_8schemars6schema6SchemaNtB2_23SchemaUtilityExtensions41get_references_to_bundled_schema_resource
FNDA:2,_RNvXNtCs1p6hG0j9t4b_18dsc_lib_jsonschema25schema_utility_extensionsNtNtCsdG7205R6am3_8schemars6schema6SchemaNtB2_23SchemaUtilityExtensions48canonicalize_refs_and_defs_for_bundled_resources
FNDA:36,_RNvXNtCs1p6hG0j9t4b_18dsc_lib_jsonschema25schema_utility_extensionsNtNtCsdG7205R6am3_8schemars6schema6SchemaNtB2_23SchemaUtilityExtensions6get_id
FNDA:0,_RNvXNtCs1p6hG0j9t4b_18dsc_lib_jsonschema25schema_utility_extensionsNtNtCsdG7205R6am3_8schemars6schema6SchemaNtB2_23SchemaUtilityExtensions6set_id
FNDA:26,_RNvXNtCs1p6hG0j9t4b_18dsc_lib_jsonschema25schema_utility_extensionsNtNtCsdG7205R6am3_8schemars6schema6SchemaNtB2_23SchemaUtilityExtensions8get_defs
FNDA:9,_RNCNvXNtCs1p6hG0j9t4b_18dsc_lib_jsonschema25schema_utility_extensionsNtNtCsdG7205R6am3_8schemars6schema6SchemaNtB4_23SchemaUtilityExtensions18replace_references0B6_
FNDA:0,_RNCNvXNtCs1p6hG0j9t4b_18dsc_lib_jsonschema25schema_utility_extensionsNtNtCsdG7205R6am3_8schemars6schema6SchemaNtB4_23SchemaUtilityExtensions21rename_defs_subschema0B6_
FNDA:12,_RNCNvXNtCs1p6hG0j9t4b_18dsc_lib_jsonschema25schema_utility_extensionsNtNtCsdG7205R6am3_8schemars6schema6SchemaNtB4_23SchemaUtilityExtensions22get_property_subschema0B6_
FNDA:12,_RNCNvXNtCs1p6hG0j9t4b_18dsc_lib_jsonschema25schema_utility_extensionsNtNtCsdG7205R6am3_8schemars6schema6SchemaNtB4_23SchemaUtilityExtensions22get_property_subschemas_0B6_
FNDA:1,_RNCNvXNtCs1p6hG0j9t4b_18dsc_lib_jsonschema25schema_utility_extensionsNtNtCsdG7205R6am3_8schemars6schema6SchemaNtB4_23SchemaUtilityExtensions24get_keyword_as_subschema0B6_
FNDA:0,_RNCNvXNtCs1p6hG0j9t4b_18dsc_lib_jsonschema25schema_utility_extensionsNtNtCsdG7205R6am3_8schemars6schema6SchemaNtB4_23SchemaUtilityExtensions26get_property_subschema_mut0B6_
FNDA:0,_RNCNvXNtCs1p6hG0j9t4b_18dsc_lib_jsonschema25schema_utility_extensionsNtNtCsdG7205R6am3_8schemars6schema6SchemaNtB4_23SchemaUtilityExtensions26get_property_subschema_muts_0B6_
FNDA:0,_RNCNvXNtCs1p6hG0j9t4b_18dsc_lib_jsonschema25schema_utility_extensionsNtNtCsdG7205R6am3_8schemars6schema6SchemaNtB4_23SchemaUtilityExtensions28get_keyword_as_subschema_mut0B6_
FNDA:3,_RNCNvXNtCs1p6hG0j9t4b_18dsc_lib_jsonschema25schema_utility_extensionsNtNtCsdG7205R6am3_8schemars6schema6SchemaNtB4_23SchemaUtilityExtensions31remove_bundled_schema_resources0B6_
FNDA:3,_RNCNvXNtCs1p6hG0j9t4b_18dsc_lib_jsonschema25schema_utility_extensionsNtNtCsdG7205R6am3_8schemars6schema6SchemaNtB4_23SchemaUtilityExtensions33get_defs_subschema_from_reference0B6_
FNDA:9,_RNCNvXNtCs1p6hG0j9t4b_18dsc_lib_jsonschema25schema_utility_extensionsNtNtCsdG7205R6am3_8schemars6schema6SchemaNtB4_23SchemaUtilityExtensions35rename_defs_subschema_for_reference0B6_
FNDA:0,_RNCNvXNtCs1p6hG0j9t4b_18dsc_lib_jsonschema25schema_utility_extensionsNtNtCsdG7205R6am3_8schemars6schema6SchemaNtB4_23SchemaUtilityExtensions37get_defs_subschema_from_reference_mut0B6_
FNDA:9,_RNCNvXNtCs1p6hG0j9t4b_18dsc_lib_jsonschema25schema_utility_extensionsNtNtCsdG7205R6am3_8schemars6schema6SchemaNtB4_23SchemaUtilityExtensions41get_references_to_bundled_schema_resource0B6_
FNDA:0,_RNCNvXNtCs1p6hG0j9t4b_18dsc_lib_jsonschema25schema_utility_extensionsNtNtCsdG7205R6am3_8schemars6schema6SchemaNtB4_23SchemaUtilityExtensions6set_id0B6_
FNDA:0,_RNCNvXNtCs8FPg1R8LBRe_18dsc_lib_jsonschema25schema_utility_extensionsNtNtCsdG7205R6am3_8schemars6schema6SchemaNtB4_23SchemaUtilityExtensions18replace_references0B6_
FNDA:0,_RNCNvXNtCs8FPg1R8LBRe_18dsc_lib_jsonschema25schema_utility_extensionsNtNtCsdG7205R6am3_8schemars6schema6SchemaNtB4_23SchemaUtilityExtensions21rename_defs_subschema0B6_
FNDA:0,_RNCNvXNtCs8FPg1R8LBRe_18dsc_lib_jsonschema25schema_utility_extensionsNtNtCsdG7205R6am3_8schemars6schema6SchemaNtB4_23SchemaUtilityExtensions22get_property_subschema0B6_
FNDA:0,_RNCNvXNtCs8FPg1R8LBRe_18dsc_lib_jsonschema25schema_utility_extensionsNtNtCsdG7205R6am3_8schemars6schema6SchemaNtB4_23SchemaUtilityExtensions22get_property_subschemas_0B6_
FNDA:0,_RNCNvXNtCs8FPg1R8LBRe_18dsc_lib_jsonschema25schema_utility_extensionsNtNtCsdG7205R6am3_8schemars6schema6SchemaNtB4_23SchemaUtilityExtensions24get_keyword_as_subschema0B6_
FNDA:0,_RNCNvXNtCs8FPg1R8LBRe_18dsc_lib_jsonschema25schema_utility_extensionsNtNtCsdG7205R6am3_8schemars6schema6SchemaNtB4_23SchemaUtilityExtensions26get_property_subschema_mut0B6_
FNDA:0,_RNCNvXNtCs8FPg1R8LBRe_18dsc_lib_jsonschema25schema_utility_extensionsNtNtCsdG7205R6am3_8schemars6schema6SchemaNtB4_23SchemaUtilityExtensions26get_property_subschema_muts_0B6_
FNDA:0,_RNCNvXNtCs8FPg1R8LBRe_18dsc_lib_jsonschema25schema_utility_extensionsNtNtCsdG7205R6am3_8schemars6schema6SchemaNtB4_23SchemaUtilityExtensions28get_keyword_as_subschema_mut0B6_
FNDA:0,_RNCNvXNtCs8FPg1R8LBRe_18dsc_lib_jsonschema25schema_utility_extensionsNtNtCsdG7205R6am3_8schemars6schema6SchemaNtB4_23SchemaUtilityExtensions31remove_bundled_schema_resources0B6_
FNDA:0,_RNCNvXNtCs8FPg1R8LBRe_18dsc_lib_jsonschema25schema_utility_extensionsNtNtCsdG7205R6am3_8schemars6schema6SchemaNtB4_23SchemaUtilityExtensions33get_defs_subschema_from_reference0B6_
FNDA:0,_RNCNvXNtCs8FPg1R8LBRe_18dsc_lib_jsonschema25schema_utility_extensionsNtNtCsdG7205R6am3_8schemars6schema6SchemaNtB4_23SchemaUtilityExtensions35rename_defs_subschema_for_reference0B6_
FNDA:0,_RNCNvXNtCs8FPg1R8LBRe_18dsc_lib_jsonschema25schema_utility_extensionsNtNtCsdG7205R6am3_8schemars6schema6SchemaNtB4_23SchemaUtilityExtensions37get_defs_subschema_from_reference_mut0B6_
FNDA:0,_RNCNvXNtCs8FPg1R8LBRe_18dsc_lib_jsonschema25schema_utility_extensionsNtNtCsdG7205R6am3_8schemars6schema6SchemaNtB4_23SchemaUtilityExtensions41get_references_to_bundled_schema_resource0B6_
FNDA:0,_RNCNvXNtCs8FPg1R8LBRe_18dsc_lib_jsonschema25schema_utility_extensionsNtNtCsdG7205R6am3_8schemars6schema6SchemaNtB4_23SchemaUtilityExtensions6set_id0B6_
FNDA:0,_RNvXNtCs8FPg1R8LBRe_18dsc_lib_jsonschema25schema_utility_extensionsNtNtCsdG7205R6am3_8schemars6schema6SchemaNtB2_23SchemaUtilityExtensions12get_defs_mut
FNDA:0,_RNvXNtCs8FPg1R8LBRe_18dsc_lib_jsonschema25schema_utility_extensionsNtNtCsdG7205R6am3_8schemars6schema6SchemaNtB2_23SchemaUtilityExtensions13get_id_as_url
FNDA:0,_RNvXNtCs8FPg1R8LBRe_18dsc_lib_jsonschema25schema_utility_extensionsNtNtCsdG7205R6am3_8schemars6schema6SchemaNtB2_23SchemaUtilityExtensions14get_properties
FNDA:0,_RNvXNtCs8FPg1R8LBRe_18dsc_lib_jsonschema25schema_utility_extensionsNtNtCsdG7205R6am3_8schemars6schema6SchemaNtB2_23SchemaUtilityExtensions14get_references
FNDA:0,_RNvXNtCs8FPg1R8LBRe_18dsc_lib_jsonschema25schema_utility_extensionsNtNtCsdG7205R6am3_8schemars6schema6SchemaNtB2_23SchemaUtilityExtensions14has_id_keyword
FNDA:0,_RNvXNtCs8FPg1R8LBRe_18dsc_lib_jsonschema25schema_utility_extensionsNtNtCsdG7205R6am3_8schemars6schema6SchemaNtB2_23SchemaUtilityExtensions18get_keyword_as_f64
FNDA:0,_RNvXNtCs8FPg1R8LBRe_18dsc_lib_jsonschema25schema_utility_extensionsNtNtCsdG7205R6am3_8schemars6schema6SchemaNtB2_23SchemaUtilityExtensions18get_keyword_as_i64
FNDA:0,_RNvXNtCs8FPg1R8LBRe_18dsc_lib_jsonschema25schema_utility_extensionsNtNtCsdG7205R6am3_8schemars6schema6SchemaNtB2_23SchemaUtilityExtensions18get_keyword_as_str
FNDA:0,_RNvXNtCs8FPg1R8LBRe_18dsc_lib_jsonschema25schema_utility_extensionsNtNtCsdG7205R6am3_8schemars6schema6SchemaNtB2_23SchemaUtilityExtensions18get_keyword_as_u64
FNDA:0,_RNvXNtCs8FPg1R8LBRe_18dsc_lib_jsonschema25schema_utility_extensionsNtNtCsdG7205R6am3_8schemars6schema6SchemaNtB2_23SchemaUtilityExtensions18get_properties_mut
FNDA:0,_RNvXNtCs8FPg1R8LBRe_18dsc_lib_jsonschema25schema_utility_extensionsNtNtCsdG7205R6am3_8schemars6schema6SchemaNtB2_23SchemaUtilityExtensions18replace_references
FNDA:0,_RNvXNtCs8FPg1R8LBRe_18dsc_lib_jsonschema25schema_utility_extensionsNtNtCsdG7205R6am3_8schemars6schema6SchemaNtB2_23SchemaUtilityExtensions19get_keyword_as_bool
FNDA:0,_RNvXNtCs8FPg1R8LBRe_18dsc_lib_jsonschema25schema_utility_extensionsNtNtCsdG7205R6am3_8schemars6schema6SchemaNtB2_23SchemaUtilityExtensions19get_keyword_as_null
FNDA:0,_RNvXNtCs8FPg1R8LBRe_18dsc_lib_jsonschema25schema_utility_extensionsNtNtCsdG7205R6am3_8schemars6schema6SchemaNtB2_23SchemaUtilityExtensions20get_keyword_as_array
FNDA:0,_RNvXNtCs8FPg1R8LBRe_18dsc_lib_jsonschema25schema_utility_extensionsNtNtCsdG7205R6am3_8schemars6schema6SchemaNtB2_23SchemaUtilityExtensions21get_keyword_as_number
FNDA:0,_RNvXNtCs8FPg1R8LBRe_18dsc_lib_jsonschema25schema_utility_extensionsNtNtCsdG7205R6am3_8schemars6schema6SchemaNtB2_23SchemaUtilityExtensions21get_keyword_as_object
FNDA:0,_RNvXNtCs8FPg1R8LBRe_18dsc_lib_jsonschema25schema_utility_extensionsNtNtCsdG7205R6am3_8schemars6schema6SchemaNtB2_23SchemaUtilityExtensions21get_keyword_as_string
FNDA:0,_RNvXNtCs8FPg1R8LBRe_18dsc_lib_jsonschema25schema_utility_extensionsNtNtCsdG7205R6am3_8schemars6schema6SchemaNtB2_23SchemaUtilityExtensions21insert_defs_subschema
FNDA:0,_RNvXNtCs8FPg1R8LBRe_18dsc_lib_jsonschema25schema_utility_extensionsNtNtCsdG7205R6am3_8schemars6schema6SchemaNtB2_23SchemaUtilityExtensions21rename_defs_subschema
FNDA:0,_RNvXNtCs8FPg1R8LBRe_18dsc_lib_jsonschema25schema_utility_extensionsNtNtCsdG7205R6am3_8schemars6schema6SchemaNtB2_23SchemaUtilityExtensions22get_property_subschema
FNDA:0,_RNvXNtCs8FPg1R8LBRe_18dsc_lib_jsonschema25schema_utility_extensionsNtNtCsdG7205R6am3_8schemars6schema6SchemaNtB2_23SchemaUtilityExtensions24get_keyword_as_array_mut
FNDA:0,_RNvXNtCs8FPg1R8LBRe_18dsc_lib_jsonschema25schema_utility_extensionsNtNtCsdG7205R6am3_8schemars6schema6SchemaNtB2_23SchemaUtilityExtensions24get_keyword_as_subschema
FNDA:0,_RNvXNtCs8FPg1R8LBRe_18dsc_lib_jsonschema25schema_utility_extensionsNtNtCsdG7205R6am3_8schemars6schema6SchemaNtB2_23SchemaUtilityExtensions25get_keyword_as_object_mut
FNDA:0,_RNvXNtCs8FPg1R8LBRe_18dsc_lib_jsonschema25schema_utility_extensionsNtNtCsdG7205R6am3_8schemars6schema6SchemaNtB2_23SchemaUtilityExtensions26get_defs_subschema_from_id
FNDA:0,_RNvXNtCs8FPg1R8LBRe_18dsc_lib_jsonschema25schema_utility_extensionsNtNtCsdG7205R6am3_8schemars6schema6SchemaNtB2_23SchemaUtilityExtensions26get_property_subschema_mut
FNDA:0,_RNvXNtCs8FPg1R8LBRe_18dsc_lib_jsonschema25schema_utility_extensionsNtNtCsdG7205R6am3_8schemars6schema6SchemaNtB2_23SchemaUtilityExtensions26to_value_with_stable_order
FNDA:0,_RNvXNtCs8FPg1R8LBRe_18dsc_lib_jsonschema25schema_utility_extensionsNtNtCsdG7205R6am3_8schemars6schema6SchemaNtB2_23SchemaUtilityExtensions28get_keyword_as_subschema_mut
FNDA:0,_RNvXNtCs8FPg1R8LBRe_18dsc_lib_jsonschema25schema_utility_extensionsNtNtCsdG7205R6am3_8schemars6schema6SchemaNtB2_23SchemaUtilityExtensions30get_defs_subschema_from_id_mut
FNDA:0,_RNvXNtCs8FPg1R8LBRe_18dsc_lib_jsonschema25schema_utility_extensionsNtNtCsdG7205R6am3_8schemars6schema6SchemaNtB2_23SchemaUtilityExtensions31get_bundled_schema_resource_ids
FNDA:0,_RNvXNtCs8FPg1R8LBRe_18dsc_lib_jsonschema25schema_utility_extensionsNtNtCsdG7205R6am3_8schemars6schema6SchemaNtB2_23SchemaUtilityExtensions31remove_bundled_schema_resources
FNDA:0,_RNvXNtCs8FPg1R8LBRe_18dsc_lib_jsonschema25schema_utility_extensionsNtNtCsdG7205R6am3_8schemars6schema6SchemaNtB2_23SchemaUtilityExtensions33get_defs_subschema_from_reference
FNDA:0,_RNvXNtCs8FPg1R8LBRe_18dsc_lib_jsonschema25schema_utility_extensionsNtNtCsdG7205R6am3_8schemars6schema6SchemaNtB2_23SchemaUtilityExtensions33reference_is_for_bundled_resource
FNDA:0,_RNvXNtCs8FPg1R8LBRe_18dsc_lib_jsonschema25schema_utility_extensionsNtNtCsdG7205R6am3_8schemars6schema6SchemaNtB2_23SchemaUtilityExtensions35rename_defs_subschema_for_reference
FNDA:0,_RNvXNtCs8FPg1R8LBRe_18dsc_lib_jsonschema25schema_utility_extensionsNtNtCsdG7205R6am3_8schemars6schema6SchemaNtB2_23SchemaUtilityExtensions36get_bundled_schema_resource_defs_key
FNDA:0,_RNvXNtCs8FPg1R8LBRe_18dsc_lib_jsonschema25schema_utility_extensionsNtNtCsdG7205R6am3_8schemars6schema6SchemaNtB2_23SchemaUtilityExtensions37get_defs_subschema_from_reference_mut
FNDA:0,_RNvXNtCs8FPg1R8LBRe_18dsc_lib_jsonschema25schema_utility_extensionsNtNtCsdG7205R6am3_8schemars6schema6SchemaNtB2_23SchemaUtilityExtensions41get_references_to_bundled_schema_resource
FNDA:0,_RNvXNtCs8FPg1R8LBRe_18dsc_lib_jsonschema25schema_utility_extensionsNtNtCsdG7205R6am3_8schemars6schema6SchemaNtB2_23SchemaUtilityExtensions48canonicalize_refs_and_defs_for_bundled_resources
FNDA:0,_RNvXNtCs8FPg1R8LBRe_18dsc_lib_jsonschema25schema_utility_extensionsNtNtCsdG7205R6am3_8schemars6schema6SchemaNtB2_23SchemaUtilityExtensions6get_id
FNDA:0,_RNvXNtCs8FPg1R8LBRe_18dsc_lib_jsonschema25schema_utility_extensionsNtNtCsdG7205R6am3_8schemars6schema6SchemaNtB2_23SchemaUtilityExtensions6set_id
FNDA:0,_RNvXNtCs8FPg1R8LBRe_18dsc_lib_jsonschema25schema_utility_extensionsNtNtCsdG7205R6am3_8schemars6schema6SchemaNtB2_23SchemaUtilityExtensions8get_defs
FNDA:0,_RNvXNtCs6DmBUIV3MEM_18dsc_lib_jsonschema25schema_utility_extensionsNtNtCsdG7205R6am3_8schemars6schema6SchemaNtB2_23SchemaUtilityExtensions18get_keyword_as_u64
FNDA:0,_RNvXNtCs6DmBUIV3MEM_18dsc_lib_jsonschema25schema_utility_extensionsNtNtCsdG7205R6am3_8schemars6schema6SchemaNtB2_23SchemaUtilityExtensions21insert_defs_subschema
FNDA:0,_RNvXNtCs6DmBUIV3MEM_18dsc_lib_jsonschema25schema_utility_extensionsNtNtCsdG7205R6am3_8schemars6schema6SchemaNtB2_23SchemaUtilityExtensions33reference_is_for_bundled_resource
FNDA:24,_RNvXNtCs6DmBUIV3MEM_18dsc_lib_jsonschema25schema_utility_extensionsNtNtCsdG7205R6am3_8schemars6schema6SchemaNtB2_23SchemaUtilityExtensions12get_defs_mut
FNDA:14,_RNvXNtCs6DmBUIV3MEM_18dsc_lib_jsonschema25schema_utility_extensionsNtNtCsdG7205R6am3_8schemars6schema6SchemaNtB2_23SchemaUtilityExtensions13get_id_as_url
FNDA:8,_RNvXNtCs6DmBUIV3MEM_18dsc_lib_jsonschema25schema_utility_extensionsNtNtCsdG7205R6am3_8schemars6schema6SchemaNtB2_23SchemaUtilityExtensions14get_properties
FNDA:40,_RNvXNtCs6DmBUIV3MEM_18dsc_lib_jsonschema25schema_utility_extensionsNtNtCsdG7205R6am3_8schemars6schema6SchemaNtB2_23SchemaUtilityExtensions14get_references
FNDA:2,_RNvXNtCs6DmBUIV3MEM_18dsc_lib_jsonschema25schema_utility_extensionsNtNtCsdG7205R6am3_8schemars6schema6SchemaNtB2_23SchemaUtilityExtensions14has_id_keyword
FNDA:3,_RNvXNtCs6DmBUIV3MEM_18dsc_lib_jsonschema25schema_utility_extensionsNtNtCsdG7205R6am3_8schemars6schema6SchemaNtB2_23SchemaUtilityExtensions18get_keyword_as_f64
FNDA:3,_RNvXNtCs6DmBUIV3MEM_18dsc_lib_jsonschema25schema_utility_extensionsNtNtCsdG7205R6am3_8schemars6schema6SchemaNtB2_23SchemaUtilityExtensions18get_keyword_as_i64
FNDA:166,_RNvXNtCs6DmBUIV3MEM_18dsc_lib_jsonschema25schema_utility_extensionsNtNtCsdG7205R6am3_8schemars6schema6SchemaNtB2_23SchemaUtilityExtensions18get_keyword_as_str
FNDA:8,_RNvXNtCs6DmBUIV3MEM_18dsc_lib_jsonschema25schema_utility_extensionsNtNtCsdG7205R6am3_8schemars6schema6SchemaNtB2_23SchemaUtilityExtensions18get_properties_mut
FNDA:35,_RNvXNtCs6DmBUIV3MEM_18dsc_lib_jsonschema25schema_utility_extensionsNtNtCsdG7205R6am3_8schemars6schema6SchemaNtB2_23SchemaUtilityExtensions18replace_references
FNDA:15,_RNvXNtCs6DmBUIV3MEM_18dsc_lib_jsonschema25schema_utility_extensionsNtNtCsdG7205R6am3_8schemars6schema6SchemaNtB2_23SchemaUtilityExtensions19get_keyword_as_bool
FNDA:3,_RNvXNtCs6DmBUIV3MEM_18dsc_lib_jsonschema25schema_utility_extensionsNtNtCsdG7205R6am3_8schemars6schema6SchemaNtB2_23SchemaUtilityExtensions19get_keyword_as_null
FNDA:15,_RNvXNtCs6DmBUIV3MEM_18dsc_lib_jsonschema25schema_utility_extensionsNtNtCsdG7205R6am3_8schemars6schema6SchemaNtB2_23SchemaUtilityExtensions20get_keyword_as_array
FNDA:3,_RNvXNtCs6DmBUIV3MEM_18dsc_lib_jsonschema25schema_utility_extensionsNtNtCsdG7205R6am3_8schemars6schema6SchemaNtB2_23SchemaUtilityExtensions21get_keyword_as_number
FNDA:64,_RNvXNtCs6DmBUIV3MEM_18dsc_lib_jsonschema25schema_utility_extensionsNtNtCsdG7205R6am3_8schemars6schema6SchemaNtB2_23SchemaUtilityExtensions21get_keyword_as_object
FNDA:3,_RNvXNtCs6DmBUIV3MEM_18dsc_lib_jsonschema25schema_utility_extensionsNtNtCsdG7205R6am3_8schemars6schema6SchemaNtB2_23SchemaUtilityExtensions21get_keyword_as_string
FNDA:2,_RNvXNtCs6DmBUIV3MEM_18dsc_lib_jsonschema25schema_utility_extensionsNtNtCsdG7205R6am3_8schemars6schema6SchemaNtB2_23SchemaUtilityExtensions21rename_defs_subschema
FNDA:5,_RNvXNtCs6DmBUIV3MEM_18dsc_lib_jsonschema25schema_utility_extensionsNtNtCsdG7205R6am3_8schemars6schema6SchemaNtB2_23SchemaUtilityExtensions22get_property_subschema
FNDA:3,_RNvXNtCs6DmBUIV3MEM_18dsc_lib_jsonschema25schema_utility_extensionsNtNtCsdG7205R6am3_8schemars6schema6SchemaNtB2_23SchemaUtilityExtensions24get_keyword_as_array_mut
FNDA:3,_RNvXNtCs6DmBUIV3MEM_18dsc_lib_jsonschema25schema_utility_extensionsNtNtCsdG7205R6am3_8schemars6schema6SchemaNtB2_23SchemaUtilityExtensions24get_keyword_as_subschema
FNDA:35,_RNvXNtCs6DmBUIV3MEM_18dsc_lib_jsonschema25schema_utility_extensionsNtNtCsdG7205R6am3_8schemars6schema6SchemaNtB2_23SchemaUtilityExtensions25get_keyword_as_object_mut
FNDA:8,_RNvXNtCs6DmBUIV3MEM_18dsc_lib_jsonschema25schema_utility_extensionsNtNtCsdG7205R6am3_8schemars6schema6SchemaNtB2_23SchemaUtilityExtensions26get_defs_subschema_from_id
FNDA:5,_RNvXNtCs6DmBUIV3MEM_18dsc_lib_jsonschema25schema_utility_extensionsNtNtCsdG7205R6am3_8schemars6schema6SchemaNtB2_23SchemaUtilityExtensions26get_property_subschema_mut
FNDA:1,_RNvXNtCs6DmBUIV3MEM_18dsc_lib_jsonschema25schema_utility_extensionsNtNtCsdG7205R6am3_8schemars6schema6SchemaNtB2_23SchemaUtilityExtensions26to_value_with_stable_order
FNDA:3,_RNvXNtCs6DmBUIV3MEM_18dsc_lib_jsonschema25schema_utility_extensionsNtNtCsdG7205R6am3_8schemars6schema6SchemaNtB2_23SchemaUtilityExtensions28get_keyword_as_subschema_mut
FNDA:6,_RNvXNtCs6DmBUIV3MEM_18dsc_lib_jsonschema25schema_utility_extensionsNtNtCsdG7205R6am3_8schemars6schema6SchemaNtB2_23SchemaUtilityExtensions30get_defs_subschema_from_id_mut
FNDA:21,_RNvXNtCs6DmBUIV3MEM_18dsc_lib_jsonschema25schema_utility_extensionsNtNtCsdG7205R6am3_8schemars6schema6SchemaNtB2_23SchemaUtilityExtensions31get_bundled_schema_resource_ids
FNDA:4,_RNvXNtCs6DmBUIV3MEM_18dsc_lib_jsonschema25schema_utility_extensionsNtNtCsdG7205R6am3_8schemars6schema6SchemaNtB2_23SchemaUtilityExtensions31remove_bundled_schema_resources
FNDA:15,_RNvXNtCs6DmBUIV3MEM_18dsc_lib_jsonschema25schema_utility_extensionsNtNtCsdG7205R6am3_8schemars6schema6SchemaNtB2_23SchemaUtilityExtensions33get_defs_subschema_from_reference
FNDA:8,_RNvXNtCs6DmBUIV3MEM_18dsc_lib_jsonschema25schema_utility_extensionsNtNtCsdG7205R6am3_8schemars6schema6SchemaNtB2_23SchemaUtilityExtensions35rename_defs_subschema_for_reference
FNDA:21,_RNvXNtCs6DmBUIV3MEM_18dsc_lib_jsonschema25schema_utility_extensionsNtNtCsdG7205R6am3_8schemars6schema6SchemaNtB2_23SchemaUtilityExtensions36get_bundled_schema_resource_defs_key
FNDA:7,_RNvXNtCs6DmBUIV3MEM_18dsc_lib_jsonschema25schema_utility_extensionsNtNtCsdG7205R6am3_8schemars6schema6SchemaNtB2_23SchemaUtilityExtensions37get_defs_subschema_from_reference_mut
FNDA:7,_RNvXNtCs6DmBUIV3MEM_18dsc_lib_jsonschema25schema_utility_extensionsNtNtCsdG7205R6am3_8schemars6schema6SchemaNtB2_23SchemaUtilityExtensions41get_references_to_bundled_schema_resource
FNDA:2,_RNvXNtCs6DmBUIV3MEM_18dsc_lib_jsonschema25schema_utility_extensionsNtNtCsdG7205R6am3_8schemars6schema6SchemaNtB2_23SchemaUtilityExtensions48canonicalize_refs_and_defs_for_bundled_resources
FNDA:70,_RNvXNtCs6DmBUIV3MEM_18dsc_lib_jsonschema25schema_utility_extensionsNtNtCsdG7205R6am3_8schemars6schema6SchemaNtB2_23SchemaUtilityExtensions6get_id
FNDA:2,_RNvXNtCs6DmBUIV3MEM_18dsc_lib_jsonschema25schema_utility_extensionsNtNtCsdG7205R6am3_8schemars6schema6SchemaNtB2_23SchemaUtilityExtensions6set_id
FNDA:53,_RNvXNtCs6DmBUIV3MEM_18dsc_lib_jsonschema25schema_utility_extensionsNtNtCsdG7205R6am3_8schemars6schema6SchemaNtB2_23SchemaUtilityExtensions8get_defs
FNDA:15,_RNCNvXNtCs6DmBUIV3MEM_18dsc_lib_jsonschema25schema_utility_extensionsNtNtCsdG7205R6am3_8schemars6schema6SchemaNtB4_23SchemaUtilityExtensions18replace_references0B6_
FNDA:6,_RNCNvXNtCs6DmBUIV3MEM_18dsc_lib_jsonschema25schema_utility_extensionsNtNtCsdG7205R6am3_8schemars6schema6SchemaNtB4_23SchemaUtilityExtensions21rename_defs_subschema0B6_
FNDA:3,_RNCNvXNtCs6DmBUIV3MEM_18dsc_lib_jsonschema25schema_utility_extensionsNtNtCsdG7205R6am3_8schemars6schema6SchemaNtB4_23SchemaUtilityExtensions22get_property_subschema0B6_
FNDA:2,_RNCNvXNtCs6DmBUIV3MEM_18dsc_lib_jsonschema25schema_utility_extensionsNtNtCsdG7205R6am3_8schemars6schema6SchemaNtB4_23SchemaUtilityExtensions22get_property_subschemas_0B6_
FNDA:2,_RNCNvXNtCs6DmBUIV3MEM_18dsc_lib_jsonschema25schema_utility_extensionsNtNtCsdG7205R6am3_8schemars6schema6SchemaNtB4_23SchemaUtilityExtensions24get_keyword_as_subschema0B6_
FNDA:3,_RNCNvXNtCs6DmBUIV3MEM_18dsc_lib_jsonschema25schema_utility_extensionsNtNtCsdG7205R6am3_8schemars6schema6SchemaNtB4_23SchemaUtilityExtensions26get_property_subschema_mut0B6_
FNDA:2,_RNCNvXNtCs6DmBUIV3MEM_18dsc_lib_jsonschema25schema_utility_extensionsNtNtCsdG7205R6am3_8schemars6schema6SchemaNtB4_23SchemaUtilityExtensions26get_property_subschema_muts_0B6_
FNDA:2,_RNCNvXNtCs6DmBUIV3MEM_18dsc_lib_jsonschema25schema_utility_extensionsNtNtCsdG7205R6am3_8schemars6schema6SchemaNtB4_23SchemaUtilityExtensions28get_keyword_as_subschema_mut0B6_
FNDA:3,_RNCNvXNtCs6DmBUIV3MEM_18dsc_lib_jsonschema25schema_utility_extensionsNtNtCsdG7205R6am3_8schemars6schema6SchemaNtB4_23SchemaUtilityExtensions31remove_bundled_schema_resources0B6_
FNDA:6,_RNCNvXNtCs6DmBUIV3MEM_18dsc_lib_jsonschema25schema_utility_extensionsNtNtCsdG7205R6am3_8schemars6schema6SchemaNtB4_23SchemaUtilityExtensions33get_defs_subschema_from_reference0B6_
FNDA:12,_RNCNvXNtCs6DmBUIV3MEM_18dsc_lib_jsonschema25schema_utility_extensionsNtNtCsdG7205R6am3_8schemars6schema6SchemaNtB4_23SchemaUtilityExtensions35rename_defs_subschema_for_reference0B6_
FNDA:2,_RNCNvXNtCs6DmBUIV3MEM_18dsc_lib_jsonschema25schema_utility_extensionsNtNtCsdG7205R6am3_8schemars6schema6SchemaNtB4_23SchemaUtilityExtensions37get_defs_subschema_from_reference_mut0B6_
FNDA:18,_RNCNvXNtCs6DmBUIV3MEM_18dsc_lib_jsonschema25schema_utility_extensionsNtNtCsdG7205R6am3_8schemars6schema6SchemaNtB4_23SchemaUtilityExtensions41get_references_to_bundled_schema_resource0B6_
FNDA:1,_RNCNvXNtCs6DmBUIV3MEM_18dsc_lib_jsonschema25schema_utility_extensionsNtNtCsdG7205R6am3_8schemars6schema6SchemaNtB4_23SchemaUtilityExtensions6set_id0B6_
FNDA:0,_RNvXNtCs92r3DgzGcjh_18dsc_lib_jsonschema25schema_utility_extensionsNtNtCsdG7205R6am3_8schemars6schema6SchemaNtB2_23SchemaUtilityExtensions18get_keyword_as_u64
FNDA:0,_RNvXNtCs92r3DgzGcjh_18dsc_lib_jsonschema25schema_utility_extensionsNtNtCsdG7205R6am3_8schemars6schema6SchemaNtB2_23SchemaUtilityExtensions21insert_defs_subschema
FNDA:0,_RNvXNtCs92r3DgzGcjh_18dsc_lib_jsonschema25schema_utility_extensionsNtNtCsdG7205R6am3_8schemars6schema6SchemaNtB2_23SchemaUtilityExtensions33reference_is_for_bundled_resource
FNDA:24,_RNvXNtCs92r3DgzGcjh_18dsc_lib_jsonschema25schema_utility_extensionsNtNtCsdG7205R6am3_8schemars6schema6SchemaNtB2_23SchemaUtilityExtensions12get_defs_mut
FNDA:14,_RNvXNtCs92r3DgzGcjh_18dsc_lib_jsonschema25schema_utility_extensionsNtNtCsdG7205R6am3_8schemars6schema6SchemaNtB2_23SchemaUtilityExtensions13get_id_as_url
FNDA:8,_RNvXNtCs92r3DgzGcjh_18dsc_lib_jsonschema25schema_utility_extensionsNtNtCsdG7205R6am3_8schemars6schema6SchemaNtB2_23SchemaUtilityExtensions14get_properties
FNDA:40,_RNvXNtCs92r3DgzGcjh_18dsc_lib_jsonschema25schema_utility_extensionsNtNtCsdG7205R6am3_8schemars6schema6SchemaNtB2_23SchemaUtilityExtensions14get_references
FNDA:2,_RNvXNtCs92r3DgzGcjh_18dsc_lib_jsonschema25schema_utility_extensionsNtNtCsdG7205R6am3_8schemars6schema6SchemaNtB2_23SchemaUtilityExtensions14has_id_keyword
FNDA:3,_RNvXNtCs92r3DgzGcjh_18dsc_lib_jsonschema25schema_utility_extensionsNtNtCsdG7205R6am3_8schemars6schema6SchemaNtB2_23SchemaUtilityExtensions18get_keyword_as_f64
FNDA:3,_RNvXNtCs92r3DgzGcjh_18dsc_lib_jsonschema25schema_utility_extensionsNtNtCsdG7205R6am3_8schemars6schema6SchemaNtB2_23SchemaUtilityExtensions18get_keyword_as_i64
FNDA:166,_RNvXNtCs92r3DgzGcjh_18dsc_lib_jsonschema25schema_utility_extensionsNtNtCsdG7205R6am3_8schemars6schema6SchemaNtB2_23SchemaUtilityExtensions18get_keyword_as_str
FNDA:8,_RNvXNtCs92r3DgzGcjh_18dsc_lib_jsonschema25schema_utility_extensionsNtNtCsdG7205R6am3_8schemars6schema6SchemaNtB2_23SchemaUtilityExtensions18get_properties_mut
FNDA:35,_RNvXNtCs92r3DgzGcjh_18dsc_lib_jsonschema25schema_utility_extensionsNtNtCsdG7205R6am3_8schemars6schema6SchemaNtB2_23SchemaUtilityExtensions18replace_references
FNDA:15,_RNvXNtCs92r3DgzGcjh_18dsc_lib_jsonschema25schema_utility_extensionsNtNtCsdG7205R6am3_8schemars6schema6SchemaNtB2_23SchemaUtilityExtensions19get_keyword_as_bool
FNDA:3,_RNvXNtCs92r3DgzGcjh_18dsc_lib_jsonschema25schema_utility_extensionsNtNtCsdG7205R6am3_8schemars6schema6SchemaNtB2_23SchemaUtilityExtensions19get_keyword_as_null
FNDA:15,_RNvXNtCs92r3DgzGcjh_18dsc_lib_jsonschema25schema_utility_extensionsNtNtCsdG7205R6am3_8schemars6schema6SchemaNtB2_23SchemaUtilityExtensions20get_keyword_as_array
FNDA:3,_RNvXNtCs92r3DgzGcjh_18dsc_lib_jsonschema25schema_utility_extensionsNtNtCsdG7205R6am3_8schemars6schema6SchemaNtB2_23SchemaUtilityExtensions21get_keyword_as_number
FNDA:64,_RNvXNtCs92r3DgzGcjh_18dsc_lib_jsonschema25schema_utility_extensionsNtNtCsdG7205R6am3_8schemars6schema6SchemaNtB2_23SchemaUtilityExtensions21get_keyword_as_object
FNDA:3,_RNvXNtCs92r3DgzGcjh_18dsc_lib_jsonschema25schema_utility_extensionsNtNtCsdG7205R6am3_8schemars6schema6SchemaNtB2_23SchemaUtilityExtensions21get_keyword_as_string
FNDA:2,_RNvXNtCs92r3DgzGcjh_18dsc_lib_jsonschema25schema_utility_extensionsNtNtCsdG7205R6am3_8schemars6schema6SchemaNtB2_23SchemaUtilityExtensions21rename_defs_subschema
FNDA:5,_RNvXNtCs92r3DgzGcjh_18dsc_lib_jsonschema25schema_utility_extensionsNtNtCsdG7205R6am3_8schemars6schema6SchemaNtB2_23SchemaUtilityExtensions22get_property_subschema
FNDA:3,_RNvXNtCs92r3DgzGcjh_18dsc_lib_jsonschema25schema_utility_extensionsNtNtCsdG7205R6am3_8schemars6schema6SchemaNtB2_23SchemaUtilityExtensions24get_keyword_as_array_mut
FNDA:3,_RNvXNtCs92r3DgzGcjh_18dsc_lib_jsonschema25schema_utility_extensionsNtNtCsdG7205R6am3_8schemars6schema6SchemaNtB2_23SchemaUtilityExtensions24get_keyword_as_subschema
FNDA:35,_RNvXNtCs92r3DgzGcjh_18dsc_lib_jsonschema25schema_utility_extensionsNtNtCsdG7205R6am3_8schemars6schema6SchemaNtB2_23SchemaUtilityExtensions25get_keyword_as_object_mut
FNDA:8,_RNvXNtCs92r3DgzGcjh_18dsc_lib_jsonschema25schema_utility_extensionsNtNtCsdG7205R6am3_8schemars6schema6SchemaNtB2_23SchemaUtilityExtensions26get_defs_subschema_from_id
FNDA:5,_RNvXNtCs92r3DgzGcjh_18dsc_lib_jsonschema25schema_utility_extensionsNtNtCsdG7205R6am3_8schemars6schema6SchemaNtB2_23SchemaUtilityExtensions26get_property_subschema_mut
FNDA:1,_RNvXNtCs92r3DgzGcjh_18dsc_lib_jsonschema25schema_utility_extensionsNtNtCsdG7205R6am3_8schemars6schema6SchemaNtB2_23SchemaUtilityExtensions26to_value_with_stable_order
FNDA:3,_RNvXNtCs92r3DgzGcjh_18dsc_lib_jsonschema25schema_utility_extensionsNtNtCsdG7205R6am3_8schemars6schema6SchemaNtB2_23SchemaUtilityExtensions28get_keyword_as_subschema_mut
FNDA:6,_RNvXNtCs92r3DgzGcjh_18dsc_lib_jsonschema25schema_utility_extensionsNtNtCsdG7205R6am3_8schemars6schema6SchemaNtB2_23SchemaUtilityExtensions30get_defs_subschema_from_id_mut
FNDA:21,_RNvXNtCs92r3DgzGcjh_18dsc_lib_jsonschema25schema_utility_extensionsNtNtCsdG7205R6am3_8schemars6schema6SchemaNtB2_23SchemaUtilityExtensions31get_bundled_schema_resource_ids
FNDA:4,_RNvXNtCs92r3DgzGcjh_18dsc_lib_jsonschema25schema_utility_extensionsNtNtCsdG7205R6am3_8schemars6schema6SchemaNtB2_23SchemaUtilityExtensions31remove_bundled_schema_resources
FNDA:15,_RNvXNtCs92r3DgzGcjh_18dsc_lib_jsonschema25schema_utility_extensionsNtNtCsdG7205R6am3_8schemars6schema6SchemaNtB2_23SchemaUtilityExtensions33get_defs_subschema_from_reference
FNDA:8,_RNvXNtCs92r3DgzGcjh_18dsc_lib_jsonschema25schema_utility_extensionsNtNtCsdG7205R6am3_8schemars6schema6SchemaNtB2_23SchemaUtilityExtensions35rename_defs_subschema_for_reference
FNDA:21,_RNvXNtCs92r3DgzGcjh_18dsc_lib_jsonschema25schema_utility_extensionsNtNtCsdG7205R6am3_8schemars6schema6SchemaNtB2_23SchemaUtilityExtensions36get_bundled_schema_resource_defs_key
FNDA:7,_RNvXNtCs92r3DgzGcjh_18dsc_lib_jsonschema25schema_utility_extensionsNtNtCsdG7205R6am3_8schemars6schema6SchemaNtB2_23SchemaUtilityExtensions37get_defs_subschema_from_reference_mut
FNDA:7,_RNvXNtCs92r3DgzGcjh_18dsc_lib_jsonschema25schema_utility_extensionsNtNtCsdG7205R6am3_8schemars6schema6SchemaNtB2_23SchemaUtilityExtensions41get_references_to_bundled_schema_resource
FNDA:2,_RNvXNtCs92r3DgzGcjh_18dsc_lib_jsonschema25schema_utility_extensionsNtNtCsdG7205R6am3_8schemars6schema6SchemaNtB2_23SchemaUtilityExtensions48canonicalize_refs_and_defs_for_bundled_resources
FNDA:70,_RNvXNtCs92r3DgzGcjh_18dsc_lib_jsonschema25schema_utility_extensionsNtNtCsdG7205R6am3_8schemars6schema6SchemaNtB2_23SchemaUtilityExtensions6get_id
FNDA:2,_RNvXNtCs92r3DgzGcjh_18dsc_lib_jsonschema25schema_utility_extensionsNtNtCsdG7205R6am3_8schemars6schema6SchemaNtB2_23SchemaUtilityExtensions6set_id
FNDA:53,_RNvXNtCs92r3DgzGcjh_18dsc_lib_jsonschema25schema_utility_extensionsNtNtCsdG7205R6am3_8schemars6schema6SchemaNtB2_23SchemaUtilityExtensions8get_defs
FNDA:15,_RNCNvXNtCs92r3DgzGcjh_18dsc_lib_jsonschema25schema_utility_extensionsNtNtCsdG7205R6am3_8schemars6schema6SchemaNtB4_23SchemaUtilityExtensions18replace_references0B6_
FNDA:6,_RNCNvXNtCs92r3DgzGcjh_18dsc_lib_jsonschema25schema_utility_extensionsNtNtCsdG7205R6am3_8schemars6schema6SchemaNtB4_23SchemaUtilityExtensions21rename_defs_subschema0B6_
FNDA:3,_RNCNvXNtCs92r3DgzGcjh_18dsc_lib_jsonschema25schema_utility_extensionsNtNtCsdG7205R6am3_8schemars6schema6SchemaNtB4_23SchemaUtilityExtensions22get_property_subschema0B6_
FNDA:2,_RNCNvXNtCs92r3DgzGcjh_18dsc_lib_jsonschema25schema_utility_extensionsNtNtCsdG7205R6am3_8schemars6schema6SchemaNtB4_23SchemaUtilityExtensions22get_property_subschemas_0B6_
FNDA:2,_RNCNvXNtCs92r3DgzGcjh_18dsc_lib_jsonschema25schema_utility_extensionsNtNtCsdG7205R6am3_8schemars6schema6SchemaNtB4_23SchemaUtilityExtensions24get_keyword_as_subschema0B6_
FNDA:3,_RNCNvXNtCs92r3DgzGcjh_18dsc_lib_jsonschema25schema_utility_extensionsNtNtCsdG7205R6am3_8schemars6schema6SchemaNtB4_23SchemaUtilityExtensions26get_property_subschema_mut0B6_
FNDA:2,_RNCNvXNtCs92r3DgzGcjh_18dsc_lib_jsonschema25schema_utility_extensionsNtNtCsdG7205R6am3_8schemars6schema6SchemaNtB4_23SchemaUtilityExtensions26get_property_subschema_muts_0B6_
FNDA:2,_RNCNvXNtCs92r3DgzGcjh_18dsc_lib_jsonschema25schema_utility_extensionsNtNtCsdG7205R6am3_8schemars6schema6SchemaNtB4_23SchemaUtilityExtensions28get_keyword_as_subschema_mut0B6_
FNDA:3,_RNCNvXNtCs92r3DgzGcjh_18dsc_lib_jsonschema25schema_utility_extensionsNtNtCsdG7205R6am3_8schemars6schema6SchemaNtB4_23SchemaUtilityExtensions31remove_bundled_schema_resources0B6_
FNDA:6,_RNCNvXNtCs92r3DgzGcjh_18dsc_lib_jsonschema25schema_utility_extensionsNtNtCsdG7205R6am3_8schemars6schema6SchemaNtB4_23SchemaUtilityExtensions33get_defs_subschema_from_reference0B6_
FNDA:12,_RNCNvXNtCs92r3DgzGcjh_18dsc_lib_jsonschema25schema_utility_extensionsNtNtCsdG7205R6am3_8schemars6schema6SchemaNtB4_23SchemaUtilityExtensions35rename_defs_subschema_for_reference0B6_
FNDA:2,_RNCNvXNtCs92r3DgzGcjh_18dsc_lib_jsonschema25schema_utility_extensionsNtNtCsdG7205R6am3_8schemars6schema6SchemaNtB4_23SchemaUtilityExtensions37get_defs_subschema_from_reference_mut0B6_
FNDA:18,_RNCNvXNtCs92r3DgzGcjh_18dsc_lib_jsonschema25schema_utility_extensionsNtNtCsdG7205R6am3_8schemars6schema6SchemaNtB4_23SchemaUtilityExtensions41get_references_to_bundled_schema_resource0B6_
FNDA:1,_RNCNvXNtCs92r3DgzGcjh_18dsc_lib_jsonschema25schema_utility_extensionsNtNtCsdG7205R6am3_8schemars6schema6SchemaNtB4_23SchemaUtilityExtensions6set_id0B6_
FNF:54
FNH:51
DA:1791,46
DA:1792,46
DA:1793,46
DA:1794,46
DA:1795,6
DA:1796,6
DA:1797,6
DA:1798,6
DA:1799,30
DA:1800,30
DA:1801,30
DA:1802,30
DA:1803,6
DA:1804,6
DA:1805,6
DA:1806,6
DA:1807,6
DA:1808,6
DA:1809,6
DA:1810,6
DA:1811,6
DA:1812,6
DA:1813,6
DA:1814,6
DA:1815,6
DA:1816,6
DA:1817,6
DA:1818,6
DA:1819,204
DA:1820,204
DA:1821,204
DA:1822,204
DA:1823,90
DA:1824,90
DA:1825,90
DA:1826,90
DA:1827,644
DA:1828,644
DA:1829,644
DA:1830,644
DA:1831,86
DA:1832,86
DA:1833,86
DA:1834,86
DA:1835,86
DA:1836,8
DA:1837,8
DA:1838,8
DA:1839,8
DA:1840,6
DA:1841,6
DA:1842,6
DA:1843,6
DA:1844,0
DA:1845,0
DA:1846,0
DA:1847,0
DA:1848,158
DA:1849,158
DA:1850,158
DA:1851,68
DA:1852,68
DA:1853,68
DA:1854,16
DA:1855,16
DA:1857,12
DA:1858,12
DA:1859,12
DA:1861,12
DA:1862,10
DA:1863,2
DA:1864,0
DA:1867,2
DA:1868,16
DA:1869,12
DA:1870,12
DA:1872,8
DA:1873,8
DA:1874,8
DA:1876,8
DA:1877,6
DA:1878,2
DA:1879,0
DA:1882,2
DA:1883,12
DA:1884,36
DA:1886,36
DA:1887,28
DA:1888,18
DA:1889,18
DA:1890,8
DA:1892,8
DA:1894,8
DA:1895,4
DA:1896,4
DA:1898,4
DA:1899,4
DA:1900,4
DA:1901,4
DA:1902,0
DA:1904,0
DA:1905,36
DA:1906,14
DA:1908,14
DA:1909,10
DA:1910,4
DA:1911,4
DA:1912,4
DA:1914,4
DA:1916,4
DA:1917,2
DA:1918,2
DA:1920,2
DA:1921,2
DA:1922,2
DA:1923,2
DA:1924,0
DA:1926,0
DA:1927,14
DA:1928,64
DA:1929,64
DA:1931,120
DA:1932,120
DA:1933,0
DA:1936,120
DA:1937,112
DA:1938,58
DA:1939,62
DA:1942,2
DA:1943,64
DA:1944,0
DA:1945,0
DA:1946,0
DA:1947,0
DA:1948,0
DA:1949,0
DA:1950,0
DA:1951,0
DA:1952,0
DA:1953,0
DA:1955,0
DA:1956,0
DA:1958,0
DA:1959,0
DA:1960,0
DA:1962,0
DA:1964,0
DA:1965,16
DA:1966,16
DA:1967,16
DA:1968,4
DA:1971,20
DA:1972,20
DA:1973,20
DA:1974,20
DA:1975,0
DA:1978,20
DA:1981,12
DA:1982,4
DA:1983,8
DA:1984,16
DA:1985,4
DA:1986,4
DA:1987,0
DA:1990,12
DA:1991,12
DA:1992,4
DA:1994,8
DA:1996,12
DA:1997,4
DA:1998,22
DA:1999,22
DA:2001,22
DA:2002,4
DA:2005,18
DA:2006,0
DA:2010,18
DA:2011,42
DA:2012,42
DA:2013,18
DA:2015,24
DA:2017,42
DA:2018,22
DA:2019,72
DA:2020,72
DA:2022,72
DA:2023,52
DA:2026,48
DA:2027,48
DA:2028,0
DA:2030,48
DA:2031,38
DA:2032,38
DA:2033,48
DA:2034,48
DA:2035,48
DA:2036,48
DA:2037,48
DA:2038,48
DA:2039,48
DA:2040,48
DA:2043,20
DA:2044,72
DA:2045,212
DA:2046,212
DA:2047,212
DA:2048,34
DA:2050,34
DA:2051,4
DA:2052,30
DA:2054,34
DA:2055,4
DA:2056,4
DA:2057,4
DA:2058,4
DA:2062,4
DA:2063,4
DA:2064,4
DA:2065,4
DA:2067,4
DA:2068,4
DA:2069,4
DA:2070,40
DA:2071,40
DA:2072,40
DA:2073,16
DA:2074,16
DA:2075,16
DA:2076,34
DA:2077,34
DA:2078,34
DA:2079,34
DA:2080,34
DA:2081,10
DA:2082,10
DA:2083,10
DA:2084,10
DA:2085,10
DA:2086,122
DA:2087,122
DA:2089,122
DA:2090,54
DA:2091,68
DA:2094,208
DA:2099,208
DA:2100,208
DA:2101,208
DA:2102,208
DA:2103,208
DA:2104,208
DA:2105,208
DA:2106,208
DA:2107,208
DA:2108,0
DA:2109,0
DA:2110,0
DA:2112,208
DA:2113,0
DA:2114,0
DA:2115,0
DA:2116,0
DA:2117,0
DA:2119,0
DA:2121,208
DA:2122,0
DA:2123,0
DA:2124,0
DA:2125,0
DA:2126,0
DA:2128,0
DA:2129,0
DA:2130,0
DA:2132,208
DA:2133,36
DA:2134,104
DA:2135,104
DA:2136,104
DA:2137,104
DA:2139,0
DA:2141,172
DA:2145,122
DA:2146,122
DA:2147,20
DA:2148,20
DA:2149,2
DA:2152,18
DA:2153,18
DA:2154,18
DA:2155,18
DA:2157,18
DA:2158,18
DA:2159,18
DA:2160,18
DA:2161,18
DA:2162,18
DA:2163,0
DA:2165,18
DA:2166,18
DA:2167,54
DA:2168,18
DA:2169,20
DA:2170,112
DA:2171,112
DA:2172,16
DA:2173,96
DA:2175,192
DA:2180,192
DA:2181,192
DA:2182,192
DA:2183,192
DA:2184,192
DA:2185,192
DA:2186,192
DA:2187,192
DA:2188,192
DA:2189,0
DA:2190,0
DA:2191,0
DA:2193,192
DA:2194,0
DA:2195,0
DA:2196,0
DA:2197,0
DA:2198,0
DA:2200,0
DA:2202,192
DA:2203,0
DA:2204,0
DA:2205,0
DA:2206,0
DA:2207,0
DA:2209,0
DA:2210,0
DA:2211,0
DA:2213,192
DA:2214,32
DA:2215,96
DA:2216,96
DA:2217,96
DA:2218,96
DA:2220,0
DA:2222,160
DA:2225,112
DA:2226,0
DA:2227,0
DA:2228,0
DA:2229,2
DA:2230,2
DA:2231,0
DA:2234,2
DA:2235,2
DA:2236,2
DA:2238,2
DA:2239,2
DA:2240,8
DA:2241,8
DA:2242,8
DA:2243,12
DA:2244,12
DA:2245,0
DA:2247,12
DA:2248,12
DA:2249,12
DA:2250,12
DA:2251,12
DA:2253,8
BRF:0
BRH:0
LF:382
LH:308
end_of_record
SF:/Users/steve/repos/DSC/lib/dsc-lib-jsonschema/src/transforms/canonicalize_refs_and_defs.rs
FN:92,_RNvNtNtCs6DmBUIV3MEM_18dsc_lib_jsonschema10transforms26canonicalize_refs_and_defs26canonicalize_refs_and_defs
FN:92,_RNvNtNtCs92r3DgzGcjh_18dsc_lib_jsonschema10transforms26canonicalize_refs_and_defs26canonicalize_refs_and_defs
FN:92,_RNvNtNtCs1p6hG0j9t4b_18dsc_lib_jsonschema10transforms26canonicalize_refs_and_defs26canonicalize_refs_and_defs
FN:92,_RNvNtNtCse9HBjRuE3ke_18dsc_lib_jsonschema10transforms26canonicalize_refs_and_defs26canonicalize_refs_and_defs
FNDA:0,_RNvNtNtCs6DmBUIV3MEM_18dsc_lib_jsonschema10transforms26canonicalize_refs_and_defs26canonicalize_refs_and_defs
FNDA:0,_RNvNtNtCs92r3DgzGcjh_18dsc_lib_jsonschema10transforms26canonicalize_refs_and_defs26canonicalize_refs_and_defs
FNDA:2,_RNvNtNtCs1p6hG0j9t4b_18dsc_lib_jsonschema10transforms26canonicalize_refs_and_defs26canonicalize_refs_and_defs
FNDA:2,_RNvNtNtCse9HBjRuE3ke_18dsc_lib_jsonschema10transforms26canonicalize_refs_and_defs26canonicalize_refs_and_defs
FNF:1
FNH:1
DA:92,4
DA:93,4
DA:94,4
BRF:0
BRH:0
LF:3
LH:3
end_of_record
SF:/Users/steve/repos/DSC/lib/dsc-lib-jsonschema/src/transforms/idiomaticize_externally_tagged_enum.rs
FN:123,_RNvNtNtCse9HBjRuE3ke_18dsc_lib_jsonschema10transforms35idiomaticize_externally_tagged_enum35idiomaticize_externally_tagged_enum
FN:127,_RNCNvNtNtCse9HBjRuE3ke_18dsc_lib_jsonschema10transforms35idiomaticize_externally_tagged_enum35idiomaticize_externally_tagged_enum0B7_
FN:141,_RNCNvNtNtCse9HBjRuE3ke_18dsc_lib_jsonschema10transforms35idiomaticize_externally_tagged_enum35idiomaticize_externally_tagged_enums0_0B7_
FN:149,_RNCNvNtNtCse9HBjRuE3ke_18dsc_lib_jsonschema10transforms35idiomaticize_externally_tagged_enum35idiomaticize_externally_tagged_enums1_0B7_
FN:155,_RNCNvNtNtCse9HBjRuE3ke_18dsc_lib_jsonschema10transforms35idiomaticize_externally_tagged_enum35idiomaticize_externally_tagged_enums2_0B7_
FN:174,_RNCNvNtNtCse9HBjRuE3ke_18dsc_lib_jsonschema10transforms35idiomaticize_externally_tagged_enum35idiomaticize_externally_tagged_enums3_0B7_
FN:180,_RNCNvNtNtCse9HBjRuE3ke_18dsc_lib_jsonschema10transforms35idiomaticize_externally_tagged_enum35idiomaticize_externally_tagged_enums4_0B7_
FN:191,_RNCNvNtNtCse9HBjRuE3ke_18dsc_lib_jsonschema10transforms35idiomaticize_externally_tagged_enum35idiomaticize_externally_tagged_enums5_0B7_
FN:132,_RNCNvNtNtCse9HBjRuE3ke_18dsc_lib_jsonschema10transforms35idiomaticize_externally_tagged_enum35idiomaticize_externally_tagged_enums_0B7_
FN:127,_RNCNvNtNtCs1p6hG0j9t4b_18dsc_lib_jsonschema10transforms35idiomaticize_externally_tagged_enum35idiomaticize_externally_tagged_enum0B7_
FN:141,_RNCNvNtNtCs1p6hG0j9t4b_18dsc_lib_jsonschema10transforms35idiomaticize_externally_tagged_enum35idiomaticize_externally_tagged_enums0_0B7_
FN:149,_RNCNvNtNtCs1p6hG0j9t4b_18dsc_lib_jsonschema10transforms35idiomaticize_externally_tagged_enum35idiomaticize_externally_tagged_enums1_0B7_
FN:155,_RNCNvNtNtCs1p6hG0j9t4b_18dsc_lib_jsonschema10transforms35idiomaticize_externally_tagged_enum35idiomaticize_externally_tagged_enums2_0B7_
FN:174,_RNCNvNtNtCs1p6hG0j9t4b_18dsc_lib_jsonschema10transforms35idiomaticize_externally_tagged_enum35idiomaticize_externally_tagged_enums3_0B7_
FN:180,_RNCNvNtNtCs1p6hG0j9t4b_18dsc_lib_jsonschema10transforms35idiomaticize_externally_tagged_enum35idiomaticize_externally_tagged_enums4_0B7_
FN:191,_RNCNvNtNtCs1p6hG0j9t4b_18dsc_lib_jsonschema10transforms35idiomaticize_externally_tagged_enum35idiomaticize_externally_tagged_enums5_0B7_
FN:132,_RNCNvNtNtCs1p6hG0j9t4b_18dsc_lib_jsonschema10transforms35idiomaticize_externally_tagged_enum35idiomaticize_externally_tagged_enums_0B7_
FN:123,_RNvNtNtCs1p6hG0j9t4b_18dsc_lib_jsonschema10transforms35idiomaticize_externally_tagged_enum35idiomaticize_externally_tagged_enum
FN:127,_RNCNvNtNtCs8FPg1R8LBRe_18dsc_lib_jsonschema10transforms35idiomaticize_externally_tagged_enum35idiomaticize_externally_tagged_enum0B7_
FN:141,_RNCNvNtNtCs8FPg1R8LBRe_18dsc_lib_jsonschema10transforms35idiomaticize_externally_tagged_enum35idiomaticize_externally_tagged_enums0_0B7_
FN:149,_RNCNvNtNtCs8FPg1R8LBRe_18dsc_lib_jsonschema10transforms35idiomaticize_externally_tagged_enum35idiomaticize_externally_tagged_enums1_0B7_
FN:155,_RNCNvNtNtCs8FPg1R8LBRe_18dsc_lib_jsonschema10transforms35idiomaticize_externally_tagged_enum35idiomaticize_externally_tagged_enums2_0B7_
FN:174,_RNCNvNtNtCs8FPg1R8LBRe_18dsc_lib_jsonschema10transforms35idiomaticize_externally_tagged_enum35idiomaticize_externally_tagged_enums3_0B7_
FN:180,_RNCNvNtNtCs8FPg1R8LBRe_18dsc_lib_jsonschema10transforms35idiomaticize_externally_tagged_enum35idiomaticize_externally_tagged_enums4_0B7_
FN:191,_RNCNvNtNtCs8FPg1R8LBRe_18dsc_lib_jsonschema10transforms35idiomaticize_externally_tagged_enum35idiomaticize_externally_tagged_enums5_0B7_
FN:132,_RNCNvNtNtCs8FPg1R8LBRe_18dsc_lib_jsonschema10transforms35idiomaticize_externally_tagged_enum35idiomaticize_externally_tagged_enums_0B7_
FN:123,_RNvNtNtCs8FPg1R8LBRe_18dsc_lib_jsonschema10transforms35idiomaticize_externally_tagged_enum35idiomaticize_externally_tagged_enum
FN:127,_RNCNvNtNtCs6DmBUIV3MEM_18dsc_lib_jsonschema10transforms35idiomaticize_externally_tagged_enum35idiomaticize_externally_tagged_enum0B7_
FN:141,_RNCNvNtNtCs6DmBUIV3MEM_18dsc_lib_jsonschema10transforms35idiomaticize_externally_tagged_enum35idiomaticize_externally_tagged_enums0_0B7_
FN:149,_RNCNvNtNtCs6DmBUIV3MEM_18dsc_lib_jsonschema10transforms35idiomaticize_externally_tagged_enum35idiomaticize_externally_tagged_enums1_0B7_
FN:155,_RNCNvNtNtCs6DmBUIV3MEM_18dsc_lib_jsonschema10transforms35idiomaticize_externally_tagged_enum35idiomaticize_externally_tagged_enums2_0B7_
FN:174,_RNCNvNtNtCs6DmBUIV3MEM_18dsc_lib_jsonschema10transforms35idiomaticize_externally_tagged_enum35idiomaticize_externally_tagged_enums3_0B7_
FN:180,_RNCNvNtNtCs6DmBUIV3MEM_18dsc_lib_jsonschema10transforms35idiomaticize_externally_tagged_enum35idiomaticize_externally_tagged_enums4_0B7_
FN:191,_RNCNvNtNtCs6DmBUIV3MEM_18dsc_lib_jsonschema10transforms35idiomaticize_externally_tagged_enum35idiomaticize_externally_tagged_enums5_0B7_
FN:132,_RNCNvNtNtCs6DmBUIV3MEM_18dsc_lib_jsonschema10transforms35idiomaticize_externally_tagged_enum35idiomaticize_externally_tagged_enums_0B7_
FN:123,_RNvNtNtCs6DmBUIV3MEM_18dsc_lib_jsonschema10transforms35idiomaticize_externally_tagged_enum35idiomaticize_externally_tagged_enum
FN:127,_RNCNvNtNtCs92r3DgzGcjh_18dsc_lib_jsonschema10transforms35idiomaticize_externally_tagged_enum35idiomaticize_externally_tagged_enum0B7_
FN:141,_RNCNvNtNtCs92r3DgzGcjh_18dsc_lib_jsonschema10transforms35idiomaticize_externally_tagged_enum35idiomaticize_externally_tagged_enums0_0B7_
FN:149,_RNCNvNtNtCs92r3DgzGcjh_18dsc_lib_jsonschema10transforms35idiomaticize_externally_tagged_enum35idiomaticize_externally_tagged_enums1_0B7_
FN:155,_RNCNvNtNtCs92r3DgzGcjh_18dsc_lib_jsonschema10transforms35idiomaticize_externally_tagged_enum35idiomaticize_externally_tagged_enums2_0B7_
FN:174,_RNCNvNtNtCs92r3DgzGcjh_18dsc_lib_jsonschema10transforms35idiomaticize_externally_tagged_enum35idiomaticize_externally_tagged_enums3_0B7_
FN:180,_RNCNvNtNtCs92r3DgzGcjh_18dsc_lib_jsonschema10transforms35idiomaticize_externally_tagged_enum35idiomaticize_externally_tagged_enums4_0B7_
FN:191,_RNCNvNtNtCs92r3DgzGcjh_18dsc_lib_jsonschema10transforms35idiomaticize_externally_tagged_enum35idiomaticize_externally_tagged_enums5_0B7_
FN:132,_RNCNvNtNtCs92r3DgzGcjh_18dsc_lib_jsonschema10transforms35idiomaticize_externally_tagged_enum35idiomaticize_externally_tagged_enums_0B7_
FN:123,_RNvNtNtCs92r3DgzGcjh_18dsc_lib_jsonschema10transforms35idiomaticize_externally_tagged_enum35idiomaticize_externally_tagged_enum
FNDA:31,_RNvNtNtCse9HBjRuE3ke_18dsc_lib_jsonschema10transforms35idiomaticize_externally_tagged_enum35idiomaticize_externally_tagged_enum
FNDA:1,_RNCNvNtNtCse9HBjRuE3ke_18dsc_lib_jsonschema10transforms35idiomaticize_externally_tagged_enum35idiomaticize_externally_tagged_enum0B7_
FNDA:1,_RNCNvNtNtCse9HBjRuE3ke_18dsc_lib_jsonschema10transforms35idiomaticize_externally_tagged_enum35idiomaticize_externally_tagged_enums0_0B7_
FNDA:1,_RNCNvNtNtCse9HBjRuE3ke_18dsc_lib_jsonschema10transforms35idiomaticize_externally_tagged_enum35idiomaticize_externally_tagged_enums1_0B7_
FNDA:1,_RNCNvNtNtCse9HBjRuE3ke_18dsc_lib_jsonschema10transforms35idiomaticize_externally_tagged_enum35idiomaticize_externally_tagged_enums2_0B7_
FNDA:1,_RNCNvNtNtCse9HBjRuE3ke_18dsc_lib_jsonschema10transforms35idiomaticize_externally_tagged_enum35idiomaticize_externally_tagged_enums3_0B7_
FNDA:0,_RNCNvNtNtCse9HBjRuE3ke_18dsc_lib_jsonschema10transforms35idiomaticize_externally_tagged_enum35idiomaticize_externally_tagged_enums4_0B7_
FNDA:1,_RNCNvNtNtCse9HBjRuE3ke_18dsc_lib_jsonschema10transforms35idiomaticize_externally_tagged_enum35idiomaticize_externally_tagged_enums5_0B7_
FNDA:1,_RNCNvNtNtCse9HBjRuE3ke_18dsc_lib_jsonschema10transforms35idiomaticize_externally_tagged_enum35idiomaticize_externally_tagged_enums_0B7_
FNDA:1,_RNCNvNtNtCs1p6hG0j9t4b_18dsc_lib_jsonschema10transforms35idiomaticize_externally_tagged_enum35idiomaticize_externally_tagged_enum0B7_
FNDA:1,_RNCNvNtNtCs1p6hG0j9t4b_18dsc_lib_jsonschema10transforms35idiomaticize_externally_tagged_enum35idiomaticize_externally_tagged_enums0_0B7_
FNDA:1,_RNCNvNtNtCs1p6hG0j9t4b_18dsc_lib_jsonschema10transforms35idiomaticize_externally_tagged_enum35idiomaticize_externally_tagged_enums1_0B7_
FNDA:1,_RNCNvNtNtCs1p6hG0j9t4b_18dsc_lib_jsonschema10transforms35idiomaticize_externally_tagged_enum35idiomaticize_externally_tagged_enums2_0B7_
FNDA:1,_RNCNvNtNtCs1p6hG0j9t4b_18dsc_lib_jsonschema10transforms35idiomaticize_externally_tagged_enum35idiomaticize_externally_tagged_enums3_0B7_
FNDA:0,_RNCNvNtNtCs1p6hG0j9t4b_18dsc_lib_jsonschema10transforms35idiomaticize_externally_tagged_enum35idiomaticize_externally_tagged_enums4_0B7_
FNDA:1,_RNCNvNtNtCs1p6hG0j9t4b_18dsc_lib_jsonschema10transforms35idiomaticize_externally_tagged_enum35idiomaticize_externally_tagged_enums5_0B7_
FNDA:1,_RNCNvNtNtCs1p6hG0j9t4b_18dsc_lib_jsonschema10transforms35idiomaticize_externally_tagged_enum35idiomaticize_externally_tagged_enums_0B7_
FNDA:31,_RNvNtNtCs1p6hG0j9t4b_18dsc_lib_jsonschema10transforms35idiomaticize_externally_tagged_enum35idiomaticize_externally_tagged_enum
FNDA:0,_RNCNvNtNtCs8FPg1R8LBRe_18dsc_lib_jsonschema10transforms35idiomaticize_externally_tagged_enum35idiomaticize_externally_tagged_enum0B7_
FNDA:0,_RNCNvNtNtCs8FPg1R8LBRe_18dsc_lib_jsonschema10transforms35idiomaticize_externally_tagged_enum35idiomaticize_externally_tagged_enums0_0B7_
FNDA:0,_RNCNvNtNtCs8FPg1R8LBRe_18dsc_lib_jsonschema10transforms35idiomaticize_externally_tagged_enum35idiomaticize_externally_tagged_enums1_0B7_
FNDA:0,_RNCNvNtNtCs8FPg1R8LBRe_18dsc_lib_jsonschema10transforms35idiomaticize_externally_tagged_enum35idiomaticize_externally_tagged_enums2_0B7_
FNDA:0,_RNCNvNtNtCs8FPg1R8LBRe_18dsc_lib_jsonschema10transforms35idiomaticize_externally_tagged_enum35idiomaticize_externally_tagged_enums3_0B7_
FNDA:0,_RNCNvNtNtCs8FPg1R8LBRe_18dsc_lib_jsonschema10transforms35idiomaticize_externally_tagged_enum35idiomaticize_externally_tagged_enums4_0B7_
FNDA:0,_RNCNvNtNtCs8FPg1R8LBRe_18dsc_lib_jsonschema10transforms35idiomaticize_externally_tagged_enum35idiomaticize_externally_tagged_enums5_0B7_
FNDA:0,_RNCNvNtNtCs8FPg1R8LBRe_18dsc_lib_jsonschema10transforms35idiomaticize_externally_tagged_enum35idiomaticize_externally_tagged_enums_0B7_
FNDA:24,_RNvNtNtCs8FPg1R8LBRe_18dsc_lib_jsonschema10transforms35idiomaticize_externally_tagged_enum35idiomaticize_externally_tagged_enum
FNDA:0,_RNCNvNtNtCs6DmBUIV3MEM_18dsc_lib_jsonschema10transforms35idiomaticize_externally_tagged_enum35idiomaticize_externally_tagged_enum0B7_
FNDA:0,_RNCNvNtNtCs6DmBUIV3MEM_18dsc_lib_jsonschema10transforms35idiomaticize_externally_tagged_enum35idiomaticize_externally_tagged_enums0_0B7_
FNDA:0,_RNCNvNtNtCs6DmBUIV3MEM_18dsc_lib_jsonschema10transforms35idiomaticize_externally_tagged_enum35idiomaticize_externally_tagged_enums1_0B7_
FNDA:0,_RNCNvNtNtCs6DmBUIV3MEM_18dsc_lib_jsonschema10transforms35idiomaticize_externally_tagged_enum35idiomaticize_externally_tagged_enums2_0B7_
FNDA:0,_RNCNvNtNtCs6DmBUIV3MEM_18dsc_lib_jsonschema10transforms35idiomaticize_externally_tagged_enum35idiomaticize_externally_tagged_enums3_0B7_
FNDA:0,_RNCNvNtNtCs6DmBUIV3MEM_18dsc_lib_jsonschema10transforms35idiomaticize_externally_tagged_enum35idiomaticize_externally_tagged_enums4_0B7_
FNDA:0,_RNCNvNtNtCs6DmBUIV3MEM_18dsc_lib_jsonschema10transforms35idiomaticize_externally_tagged_enum35idiomaticize_externally_tagged_enums5_0B7_
FNDA:0,_RNCNvNtNtCs6DmBUIV3MEM_18dsc_lib_jsonschema10transforms35idiomaticize_externally_tagged_enum35idiomaticize_externally_tagged_enums_0B7_
FNDA:0,_RNvNtNtCs6DmBUIV3MEM_18dsc_lib_jsonschema10transforms35idiomaticize_externally_tagged_enum35idiomaticize_externally_tagged_enum
FNDA:0,_RNCNvNtNtCs92r3DgzGcjh_18dsc_lib_jsonschema10transforms35idiomaticize_externally_tagged_enum35idiomaticize_externally_tagged_enum0B7_
FNDA:0,_RNCNvNtNtCs92r3DgzGcjh_18dsc_lib_jsonschema10transforms35idiomaticize_externally_tagged_enum35idiomaticize_externally_tagged_enums0_0B7_
FNDA:0,_RNCNvNtNtCs92r3DgzGcjh_18dsc_lib_jsonschema10transforms35idiomaticize_externally_tagged_enum35idiomaticize_externally_tagged_enums1_0B7_
FNDA:0,_RNCNvNtNtCs92r3DgzGcjh_18dsc_lib_jsonschema10transforms35idiomaticize_externally_tagged_enum35idiomaticize_externally_tagged_enums2_0B7_
FNDA:0,_RNCNvNtNtCs92r3DgzGcjh_18dsc_lib_jsonschema10transforms35idiomaticize_externally_tagged_enum35idiomaticize_externally_tagged_enums3_0B7_
FNDA:0,_RNCNvNtNtCs92r3DgzGcjh_18dsc_lib_jsonschema10transforms35idiomaticize_externally_tagged_enum35idiomaticize_externally_tagged_enums4_0B7_
FNDA:0,_RNCNvNtNtCs92r3DgzGcjh_18dsc_lib_jsonschema10transforms35idiomaticize_externally_tagged_enum35idiomaticize_externally_tagged_enums5_0B7_
FNDA:0,_RNCNvNtNtCs92r3DgzGcjh_18dsc_lib_jsonschema10transforms35idiomaticize_externally_tagged_enum35idiomaticize_externally_tagged_enums_0B7_
FNDA:0,_RNvNtNtCs92r3DgzGcjh_18dsc_lib_jsonschema10transforms35idiomaticize_externally_tagged_enum35idiomaticize_externally_tagged_enum
FNF:9
FNH:8
DA:123,86
DA:126,86
DA:127,86
DA:128,2
DA:129,2
DA:131,86
DA:132,86
DA:133,2
DA:134,2
DA:137,86
DA:139,232
DA:140,232
DA:141,232
DA:142,2
DA:143,2
DA:144,2
DA:146,232
DA:148,232
DA:149,232
DA:150,2
DA:151,2
DA:152,2
DA:154,232
DA:155,232
DA:156,2
DA:157,2
DA:158,2
DA:160,232
DA:161,232
DA:162,16
DA:163,16
DA:164,16
DA:169,216
DA:170,216
DA:173,216
DA:174,216
DA:175,2
DA:176,2
DA:177,2
DA:179,216
DA:180,216
DA:181,0
DA:182,0
DA:183,0
DA:185,216
DA:186,226
DA:188,226
DA:189,226
DA:190,226
DA:191,226
DA:192,2
DA:193,2
DA:194,2
DA:197,226
DA:200,226
DA:201,20
DA:202,206
DA:203,226
DA:204,18
DA:205,208
DA:206,3074
DA:207,3074
DA:208,10
DA:209,3064
DA:212,226
DA:216,70
DA:217,70
DA:218,70
DA:219,70
DA:220,70
DA:221,70
DA:222,70
BRF:0
BRH:0
LF:80
LH:76
end_of_record
SF:/Users/steve/repos/DSC/lib/dsc-lib-jsonschema/src/transforms/idiomaticize_string_enum.rs
FN:154,_RNCNvNtNtCse9HBjRuE3ke_18dsc_lib_jsonschema10transforms24idiomaticize_string_enum24idiomaticize_string_enum0B7_
FN:171,_RNCNvNtNtCse9HBjRuE3ke_18dsc_lib_jsonschema10transforms24idiomaticize_string_enum24idiomaticize_string_enums0_0B7_
FN:179,_RNCNvNtNtCse9HBjRuE3ke_18dsc_lib_jsonschema10transforms24idiomaticize_string_enum24idiomaticize_string_enums1_0B7_
FN:185,_RNCNvNtNtCse9HBjRuE3ke_18dsc_lib_jsonschema10transforms24idiomaticize_string_enum24idiomaticize_string_enums2_0B7_
FN:198,_RNCNvNtNtCse9HBjRuE3ke_18dsc_lib_jsonschema10transforms24idiomaticize_string_enum24idiomaticize_string_enums3_0B7_
FN:199,_RNCNvNtNtCse9HBjRuE3ke_18dsc_lib_jsonschema10transforms24idiomaticize_string_enum24idiomaticize_string_enums4_0B7_
FN:200,_RNCNvNtNtCse9HBjRuE3ke_18dsc_lib_jsonschema10transforms24idiomaticize_string_enum24idiomaticize_string_enums5_0B7_
FN:206,_RNCNvNtNtCse9HBjRuE3ke_18dsc_lib_jsonschema10transforms24idiomaticize_string_enum24idiomaticize_string_enums6_0B7_
FN:213,_RNCNvNtNtCse9HBjRuE3ke_18dsc_lib_jsonschema10transforms24idiomaticize_string_enum24idiomaticize_string_enums7_0B7_
FN:220,_RNCNvNtNtCse9HBjRuE3ke_18dsc_lib_jsonschema10transforms24idiomaticize_string_enum24idiomaticize_string_enums8_0B7_
FN:226,_RNCNvNtNtCse9HBjRuE3ke_18dsc_lib_jsonschema10transforms24idiomaticize_string_enum24idiomaticize_string_enums9_0B7_
FN:159,_RNCNvNtNtCse9HBjRuE3ke_18dsc_lib_jsonschema10transforms24idiomaticize_string_enum24idiomaticize_string_enums_0B7_
FN:254,_RNCNvNtNtCse9HBjRuE3ke_18dsc_lib_jsonschema10transforms24idiomaticize_string_enum24idiomaticize_string_enumsa_0B7_
FN:260,_RNCNvNtNtCse9HBjRuE3ke_18dsc_lib_jsonschema10transforms24idiomaticize_string_enum24idiomaticize_string_enumsb_0B7_
FN:145,_RNvNtNtCse9HBjRuE3ke_18dsc_lib_jsonschema10transforms24idiomaticize_string_enum24idiomaticize_string_enum
FN:145,_RNvNtNtCs1p6hG0j9t4b_18dsc_lib_jsonschema10transforms24idiomaticize_string_enum24idiomaticize_string_enum
FN:154,_RNCNvNtNtCs1p6hG0j9t4b_18dsc_lib_jsonschema10transforms24idiomaticize_string_enum24idiomaticize_string_enum0B7_
FN:171,_RNCNvNtNtCs1p6hG0j9t4b_18dsc_lib_jsonschema10transforms24idiomaticize_string_enum24idiomaticize_string_enums0_0B7_
FN:179,_RNCNvNtNtCs1p6hG0j9t4b_18dsc_lib_jsonschema10transforms24idiomaticize_string_enum24idiomaticize_string_enums1_0B7_
FN:185,_RNCNvNtNtCs1p6hG0j9t4b_18dsc_lib_jsonschema10transforms24idiomaticize_string_enum24idiomaticize_string_enums2_0B7_
FN:198,_RNCNvNtNtCs1p6hG0j9t4b_18dsc_lib_jsonschema10transforms24idiomaticize_string_enum24idiomaticize_string_enums3_0B7_
FN:199,_RNCNvNtNtCs1p6hG0j9t4b_18dsc_lib_jsonschema10transforms24idiomaticize_string_enum24idiomaticize_string_enums4_0B7_
FN:200,_RNCNvNtNtCs1p6hG0j9t4b_18dsc_lib_jsonschema10transforms24idiomaticize_string_enum24idiomaticize_string_enums5_0B7_
FN:206,_RNCNvNtNtCs1p6hG0j9t4b_18dsc_lib_jsonschema10transforms24idiomaticize_string_enum24idiomaticize_string_enums6_0B7_
FN:213,_RNCNvNtNtCs1p6hG0j9t4b_18dsc_lib_jsonschema10transforms24idiomaticize_string_enum24idiomaticize_string_enums7_0B7_
FN:220,_RNCNvNtNtCs1p6hG0j9t4b_18dsc_lib_jsonschema10transforms24idiomaticize_string_enum24idiomaticize_string_enums8_0B7_
FN:226,_RNCNvNtNtCs1p6hG0j9t4b_18dsc_lib_jsonschema10transforms24idiomaticize_string_enum24idiomaticize_string_enums9_0B7_
FN:159,_RNCNvNtNtCs1p6hG0j9t4b_18dsc_lib_jsonschema10transforms24idiomaticize_string_enum24idiomaticize_string_enums_0B7_
FN:254,_RNCNvNtNtCs1p6hG0j9t4b_18dsc_lib_jsonschema10transforms24idiomaticize_string_enum24idiomaticize_string_enumsa_0B7_
FN:260,_RNCNvNtNtCs1p6hG0j9t4b_18dsc_lib_jsonschema10transforms24idiomaticize_string_enum24idiomaticize_string_enumsb_0B7_
FN:145,_RNvNtNtCs8FPg1R8LBRe_18dsc_lib_jsonschema10transforms24idiomaticize_string_enum24idiomaticize_string_enum
FN:154,_RNCNvNtNtCs8FPg1R8LBRe_18dsc_lib_jsonschema10transforms24idiomaticize_string_enum24idiomaticize_string_enum0B7_
FN:171,_RNCNvNtNtCs8FPg1R8LBRe_18dsc_lib_jsonschema10transforms24idiomaticize_string_enum24idiomaticize_string_enums0_0B7_
FN:179,_RNCNvNtNtCs8FPg1R8LBRe_18dsc_lib_jsonschema10transforms24idiomaticize_string_enum24idiomaticize_string_enums1_0B7_
FN:185,_RNCNvNtNtCs8FPg1R8LBRe_18dsc_lib_jsonschema10transforms24idiomaticize_string_enum24idiomaticize_string_enums2_0B7_
FN:198,_RNCNvNtNtCs8FPg1R8LBRe_18dsc_lib_jsonschema10transforms24idiomaticize_string_enum24idiomaticize_string_enums3_0B7_
FN:199,_RNCNvNtNtCs8FPg1R8LBRe_18dsc_lib_jsonschema10transforms24idiomaticize_string_enum24idiomaticize_string_enums4_0B7_
FN:200,_RNCNvNtNtCs8FPg1R8LBRe_18dsc_lib_jsonschema10transforms24idiomaticize_string_enum24idiomaticize_string_enums5_0B7_
FN:206,_RNCNvNtNtCs8FPg1R8LBRe_18dsc_lib_jsonschema10transforms24idiomaticize_string_enum24idiomaticize_string_enums6_0B7_
FN:213,_RNCNvNtNtCs8FPg1R8LBRe_18dsc_lib_jsonschema10transforms24idiomaticize_string_enum24idiomaticize_string_enums7_0B7_
FN:220,_RNCNvNtNtCs8FPg1R8LBRe_18dsc_lib_jsonschema10transforms24idiomaticize_string_enum24idiomaticize_string_enums8_0B7_
FN:226,_RNCNvNtNtCs8FPg1R8LBRe_18dsc_lib_jsonschema10transforms24idiomaticize_string_enum24idiomaticize_string_enums9_0B7_
FN:159,_RNCNvNtNtCs8FPg1R8LBRe_18dsc_lib_jsonschema10transforms24idiomaticize_string_enum24idiomaticize_string_enums_0B7_
FN:254,_RNCNvNtNtCs8FPg1R8LBRe_18dsc_lib_jsonschema10transforms24idiomaticize_string_enum24idiomaticize_string_enumsa_0B7_
FN:260,_RNCNvNtNtCs8FPg1R8LBRe_18dsc_lib_jsonschema10transforms24idiomaticize_string_enum24idiomaticize_string_enumsb_0B7_
FN:154,_RNCNvNtNtCs6DmBUIV3MEM_18dsc_lib_jsonschema10transforms24idiomaticize_string_enum24idiomaticize_string_enum0B7_
FN:171,_RNCNvNtNtCs6DmBUIV3MEM_18dsc_lib_jsonschema10transforms24idiomaticize_string_enum24idiomaticize_string_enums0_0B7_
FN:179,_RNCNvNtNtCs6DmBUIV3MEM_18dsc_lib_jsonschema10transforms24idiomaticize_string_enum24idiomaticize_string_enums1_0B7_
FN:185,_RNCNvNtNtCs6DmBUIV3MEM_18dsc_lib_jsonschema10transforms24idiomaticize_string_enum24idiomaticize_string_enums2_0B7_
FN:198,_RNCNvNtNtCs6DmBUIV3MEM_18dsc_lib_jsonschema10transforms24idiomaticize_string_enum24idiomaticize_string_enums3_0B7_
FN:199,_RNCNvNtNtCs6DmBUIV3MEM_18dsc_lib_jsonschema10transforms24idiomaticize_string_enum24idiomaticize_string_enums4_0B7_
FN:200,_RNCNvNtNtCs6DmBUIV3MEM_18dsc_lib_jsonschema10transforms24idiomaticize_string_enum24idiomaticize_string_enums5_0B7_
FN:206,_RNCNvNtNtCs6DmBUIV3MEM_18dsc_lib_jsonschema10transforms24idiomaticize_string_enum24idiomaticize_string_enums6_0B7_
FN:213,_RNCNvNtNtCs6DmBUIV3MEM_18dsc_lib_jsonschema10transforms24idiomaticize_string_enum24idiomaticize_string_enums7_0B7_
FN:220,_RNCNvNtNtCs6DmBUIV3MEM_18dsc_lib_jsonschema10transforms24idiomaticize_string_enum24idiomaticize_string_enums8_0B7_
FN:226,_RNCNvNtNtCs6DmBUIV3MEM_18dsc_lib_jsonschema10transforms24idiomaticize_string_enum24idiomaticize_string_enums9_0B7_
FN:159,_RNCNvNtNtCs6DmBUIV3MEM_18dsc_lib_jsonschema10transforms24idiomaticize_string_enum24idiomaticize_string_enums_0B7_
FN:254,_RNCNvNtNtCs6DmBUIV3MEM_18dsc_lib_jsonschema10transforms24idiomaticize_string_enum24idiomaticize_string_enumsa_0B7_
FN:260,_RNCNvNtNtCs6DmBUIV3MEM_18dsc_lib_jsonschema10transforms24idiomaticize_string_enum24idiomaticize_string_enumsb_0B7_
FN:145,_RNvNtNtCs6DmBUIV3MEM_18dsc_lib_jsonschema10transforms24idiomaticize_string_enum24idiomaticize_string_enum
FN:154,_RNCNvNtNtCs92r3DgzGcjh_18dsc_lib_jsonschema10transforms24idiomaticize_string_enum24idiomaticize_string_enum0B7_
FN:171,_RNCNvNtNtCs92r3DgzGcjh_18dsc_lib_jsonschema10transforms24idiomaticize_string_enum24idiomaticize_string_enums0_0B7_
FN:179,_RNCNvNtNtCs92r3DgzGcjh_18dsc_lib_jsonschema10transforms24idiomaticize_string_enum24idiomaticize_string_enums1_0B7_
FN:185,_RNCNvNtNtCs92r3DgzGcjh_18dsc_lib_jsonschema10transforms24idiomaticize_string_enum24idiomaticize_string_enums2_0B7_
FN:198,_RNCNvNtNtCs92r3DgzGcjh_18dsc_lib_jsonschema10transforms24idiomaticize_string_enum24idiomaticize_string_enums3_0B7_
FN:199,_RNCNvNtNtCs92r3DgzGcjh_18dsc_lib_jsonschema10transforms24idiomaticize_string_enum24idiomaticize_string_enums4_0B7_
FN:200,_RNCNvNtNtCs92r3DgzGcjh_18dsc_lib_jsonschema10transforms24idiomaticize_string_enum24idiomaticize_string_enums5_0B7_
FN:206,_RNCNvNtNtCs92r3DgzGcjh_18dsc_lib_jsonschema10transforms24idiomaticize_string_enum24idiomaticize_string_enums6_0B7_
FN:213,_RNCNvNtNtCs92r3DgzGcjh_18dsc_lib_jsonschema10transforms24idiomaticize_string_enum24idiomaticize_string_enums7_0B7_
FN:220,_RNCNvNtNtCs92r3DgzGcjh_18dsc_lib_jsonschema10transforms24idiomaticize_string_enum24idiomaticize_string_enums8_0B7_
FN:226,_RNCNvNtNtCs92r3DgzGcjh_18dsc_lib_jsonschema10transforms24idiomaticize_string_enum24idiomaticize_string_enums9_0B7_
FN:159,_RNCNvNtNtCs92r3DgzGcjh_18dsc_lib_jsonschema10transforms24idiomaticize_string_enum24idiomaticize_string_enums_0B7_
FN:254,_RNCNvNtNtCs92r3DgzGcjh_18dsc_lib_jsonschema10transforms24idiomaticize_string_enum24idiomaticize_string_enumsa_0B7_
FN:260,_RNCNvNtNtCs92r3DgzGcjh_18dsc_lib_jsonschema10transforms24idiomaticize_string_enum24idiomaticize_string_enumsb_0B7_
FN:145,_RNvNtNtCs92r3DgzGcjh_18dsc_lib_jsonschema10transforms24idiomaticize_string_enum24idiomaticize_string_enum
FNDA:1,_RNCNvNtNtCse9HBjRuE3ke_18dsc_lib_jsonschema10transforms24idiomaticize_string_enum24idiomaticize_string_enum0B7_
FNDA:1,_RNCNvNtNtCse9HBjRuE3ke_18dsc_lib_jsonschema10transforms24idiomaticize_string_enum24idiomaticize_string_enums0_0B7_
FNDA:1,_RNCNvNtNtCse9HBjRuE3ke_18dsc_lib_jsonschema10transforms24idiomaticize_string_enum24idiomaticize_string_enums1_0B7_
FNDA:1,_RNCNvNtNtCse9HBjRuE3ke_18dsc_lib_jsonschema10transforms24idiomaticize_string_enum24idiomaticize_string_enums2_0B7_
FNDA:6,_RNCNvNtNtCse9HBjRuE3ke_18dsc_lib_jsonschema10transforms24idiomaticize_string_enum24idiomaticize_string_enums3_0B7_
FNDA:94,_RNCNvNtNtCse9HBjRuE3ke_18dsc_lib_jsonschema10transforms24idiomaticize_string_enum24idiomaticize_string_enums4_0B7_
FNDA:5,_RNCNvNtNtCse9HBjRuE3ke_18dsc_lib_jsonschema10transforms24idiomaticize_string_enum24idiomaticize_string_enums5_0B7_
FNDA:1,_RNCNvNtNtCse9HBjRuE3ke_18dsc_lib_jsonschema10transforms24idiomaticize_string_enum24idiomaticize_string_enums6_0B7_
FNDA:1,_RNCNvNtNtCse9HBjRuE3ke_18dsc_lib_jsonschema10transforms24idiomaticize_string_enum24idiomaticize_string_enums7_0B7_
FNDA:1,_RNCNvNtNtCse9HBjRuE3ke_18dsc_lib_jsonschema10transforms24idiomaticize_string_enum24idiomaticize_string_enums8_0B7_
FNDA:1,_RNCNvNtNtCse9HBjRuE3ke_18dsc_lib_jsonschema10transforms24idiomaticize_string_enum24idiomaticize_string_enums9_0B7_
FNDA:1,_RNCNvNtNtCse9HBjRuE3ke_18dsc_lib_jsonschema10transforms24idiomaticize_string_enum24idiomaticize_string_enums_0B7_
FNDA:33,_RNCNvNtNtCse9HBjRuE3ke_18dsc_lib_jsonschema10transforms24idiomaticize_string_enum24idiomaticize_string_enumsa_0B7_
FNDA:33,_RNCNvNtNtCse9HBjRuE3ke_18dsc_lib_jsonschema10transforms24idiomaticize_string_enum24idiomaticize_string_enumsb_0B7_
FNDA:125,_RNvNtNtCse9HBjRuE3ke_18dsc_lib_jsonschema10transforms24idiomaticize_string_enum24idiomaticize_string_enum
FNDA:125,_RNvNtNtCs1p6hG0j9t4b_18dsc_lib_jsonschema10transforms24idiomaticize_string_enum24idiomaticize_string_enum
FNDA:1,_RNCNvNtNtCs1p6hG0j9t4b_18dsc_lib_jsonschema10transforms24idiomaticize_string_enum24idiomaticize_string_enum0B7_
FNDA:1,_RNCNvNtNtCs1p6hG0j9t4b_18dsc_lib_jsonschema10transforms24idiomaticize_string_enum24idiomaticize_string_enums0_0B7_
FNDA:1,_RNCNvNtNtCs1p6hG0j9t4b_18dsc_lib_jsonschema10transforms24idiomaticize_string_enum24idiomaticize_string_enums1_0B7_
FNDA:1,_RNCNvNtNtCs1p6hG0j9t4b_18dsc_lib_jsonschema10transforms24idiomaticize_string_enum24idiomaticize_string_enums2_0B7_
FNDA:6,_RNCNvNtNtCs1p6hG0j9t4b_18dsc_lib_jsonschema10transforms24idiomaticize_string_enum24idiomaticize_string_enums3_0B7_
FNDA:94,_RNCNvNtNtCs1p6hG0j9t4b_18dsc_lib_jsonschema10transforms24idiomaticize_string_enum24idiomaticize_string_enums4_0B7_
FNDA:5,_RNCNvNtNtCs1p6hG0j9t4b_18dsc_lib_jsonschema10transforms24idiomaticize_string_enum24idiomaticize_string_enums5_0B7_
FNDA:1,_RNCNvNtNtCs1p6hG0j9t4b_18dsc_lib_jsonschema10transforms24idiomaticize_string_enum24idiomaticize_string_enums6_0B7_
FNDA:1,_RNCNvNtNtCs1p6hG0j9t4b_18dsc_lib_jsonschema10transforms24idiomaticize_string_enum24idiomaticize_string_enums7_0B7_
FNDA:1,_RNCNvNtNtCs1p6hG0j9t4b_18dsc_lib_jsonschema10transforms24idiomaticize_string_enum24idiomaticize_string_enums8_0B7_
FNDA:1,_RNCNvNtNtCs1p6hG0j9t4b_18dsc_lib_jsonschema10transforms24idiomaticize_string_enum24idiomaticize_string_enums9_0B7_
FNDA:1,_RNCNvNtNtCs1p6hG0j9t4b_18dsc_lib_jsonschema10transforms24idiomaticize_string_enum24idiomaticize_string_enums_0B7_
FNDA:33,_RNCNvNtNtCs1p6hG0j9t4b_18dsc_lib_jsonschema10transforms24idiomaticize_string_enum24idiomaticize_string_enumsa_0B7_
FNDA:33,_RNCNvNtNtCs1p6hG0j9t4b_18dsc_lib_jsonschema10transforms24idiomaticize_string_enum24idiomaticize_string_enumsb_0B7_
FNDA:124,_RNvNtNtCs8FPg1R8LBRe_18dsc_lib_jsonschema10transforms24idiomaticize_string_enum24idiomaticize_string_enum
FNDA:0,_RNCNvNtNtCs8FPg1R8LBRe_18dsc_lib_jsonschema10transforms24idiomaticize_string_enum24idiomaticize_string_enum0B7_
FNDA:0,_RNCNvNtNtCs8FPg1R8LBRe_18dsc_lib_jsonschema10transforms24idiomaticize_string_enum24idiomaticize_string_enums0_0B7_
FNDA:0,_RNCNvNtNtCs8FPg1R8LBRe_18dsc_lib_jsonschema10transforms24idiomaticize_string_enum24idiomaticize_string_enums1_0B7_
FNDA:0,_RNCNvNtNtCs8FPg1R8LBRe_18dsc_lib_jsonschema10transforms24idiomaticize_string_enum24idiomaticize_string_enums2_0B7_
FNDA:0,_RNCNvNtNtCs8FPg1R8LBRe_18dsc_lib_jsonschema10transforms24idiomaticize_string_enum24idiomaticize_string_enums3_0B7_
FNDA:75,_RNCNvNtNtCs8FPg1R8LBRe_18dsc_lib_jsonschema10transforms24idiomaticize_string_enum24idiomaticize_string_enums4_0B7_
FNDA:0,_RNCNvNtNtCs8FPg1R8LBRe_18dsc_lib_jsonschema10transforms24idiomaticize_string_enum24idiomaticize_string_enums5_0B7_
FNDA:0,_RNCNvNtNtCs8FPg1R8LBRe_18dsc_lib_jsonschema10transforms24idiomaticize_string_enum24idiomaticize_string_enums6_0B7_
FNDA:0,_RNCNvNtNtCs8FPg1R8LBRe_18dsc_lib_jsonschema10transforms24idiomaticize_string_enum24idiomaticize_string_enums7_0B7_
FNDA:0,_RNCNvNtNtCs8FPg1R8LBRe_18dsc_lib_jsonschema10transforms24idiomaticize_string_enum24idiomaticize_string_enums8_0B7_
FNDA:0,_RNCNvNtNtCs8FPg1R8LBRe_18dsc_lib_jsonschema10transforms24idiomaticize_string_enum24idiomaticize_string_enums9_0B7_
FNDA:0,_RNCNvNtNtCs8FPg1R8LBRe_18dsc_lib_jsonschema10transforms24idiomaticize_string_enum24idiomaticize_string_enums_0B7_
FNDA:15,_RNCNvNtNtCs8FPg1R8LBRe_18dsc_lib_jsonschema10transforms24idiomaticize_string_enum24idiomaticize_string_enumsa_0B7_
FNDA:15,_RNCNvNtNtCs8FPg1R8LBRe_18dsc_lib_jsonschema10transforms24idiomaticize_string_enum24idiomaticize_string_enumsb_0B7_
FNDA:0,_RNCNvNtNtCs6DmBUIV3MEM_18dsc_lib_jsonschema10transforms24idiomaticize_string_enum24idiomaticize_string_enum0B7_
FNDA:0,_RNCNvNtNtCs6DmBUIV3MEM_18dsc_lib_jsonschema10transforms24idiomaticize_string_enum24idiomaticize_string_enums0_0B7_
FNDA:0,_RNCNvNtNtCs6DmBUIV3MEM_18dsc_lib_jsonschema10transforms24idiomaticize_string_enum24idiomaticize_string_enums1_0B7_
FNDA:0,_RNCNvNtNtCs6DmBUIV3MEM_18dsc_lib_jsonschema10transforms24idiomaticize_string_enum24idiomaticize_string_enums2_0B7_
FNDA:0,_RNCNvNtNtCs6DmBUIV3MEM_18dsc_lib_jsonschema10transforms24idiomaticize_string_enum24idiomaticize_string_enums3_0B7_
FNDA:0,_RNCNvNtNtCs6DmBUIV3MEM_18dsc_lib_jsonschema10transforms24idiomaticize_string_enum24idiomaticize_string_enums4_0B7_
FNDA:0,_RNCNvNtNtCs6DmBUIV3MEM_18dsc_lib_jsonschema10transforms24idiomaticize_string_enum24idiomaticize_string_enums5_0B7_
FNDA:0,_RNCNvNtNtCs6DmBUIV3MEM_18dsc_lib_jsonschema10transforms24idiomaticize_string_enum24idiomaticize_string_enums6_0B7_
FNDA:0,_RNCNvNtNtCs6DmBUIV3MEM_18dsc_lib_jsonschema10transforms24idiomaticize_string_enum24idiomaticize_string_enums7_0B7_
FNDA:0,_RNCNvNtNtCs6DmBUIV3MEM_18dsc_lib_jsonschema10transforms24idiomaticize_string_enum24idiomaticize_string_enums8_0B7_
FNDA:0,_RNCNvNtNtCs6DmBUIV3MEM_18dsc_lib_jsonschema10transforms24idiomaticize_string_enum24idiomaticize_string_enums9_0B7_
FNDA:0,_RNCNvNtNtCs6DmBUIV3MEM_18dsc_lib_jsonschema10transforms24idiomaticize_string_enum24idiomaticize_string_enums_0B7_
FNDA:0,_RNCNvNtNtCs6DmBUIV3MEM_18dsc_lib_jsonschema10transforms24idiomaticize_string_enum24idiomaticize_string_enumsa_0B7_
FNDA:0,_RNCNvNtNtCs6DmBUIV3MEM_18dsc_lib_jsonschema10transforms24idiomaticize_string_enum24idiomaticize_string_enumsb_0B7_
FNDA:0,_RNvNtNtCs6DmBUIV3MEM_18dsc_lib_jsonschema10transforms24idiomaticize_string_enum24idiomaticize_string_enum
FNDA:0,_RNCNvNtNtCs92r3DgzGcjh_18dsc_lib_jsonschema10transforms24idiomaticize_string_enum24idiomaticize_string_enum0B7_
FNDA:0,_RNCNvNtNtCs92r3DgzGcjh_18dsc_lib_jsonschema10transforms24idiomaticize_string_enum24idiomaticize_string_enums0_0B7_
FNDA:0,_RNCNvNtNtCs92r3DgzGcjh_18dsc_lib_jsonschema10transforms24idiomaticize_string_enum24idiomaticize_string_enums1_0B7_
FNDA:0,_RNCNvNtNtCs92r3DgzGcjh_18dsc_lib_jsonschema10transforms24idiomaticize_string_enum24idiomaticize_string_enums2_0B7_
FNDA:0,_RNCNvNtNtCs92r3DgzGcjh_18dsc_lib_jsonschema10transforms24idiomaticize_string_enum24idiomaticize_string_enums3_0B7_
FNDA:0,_RNCNvNtNtCs92r3DgzGcjh_18dsc_lib_jsonschema10transforms24idiomaticize_string_enum24idiomaticize_string_enums4_0B7_
FNDA:0,_RNCNvNtNtCs92r3DgzGcjh_18dsc_lib_jsonschema10transforms24idiomaticize_string_enum24idiomaticize_string_enums5_0B7_
FNDA:0,_RNCNvNtNtCs92r3DgzGcjh_18dsc_lib_jsonschema10transforms24idiomaticize_string_enum24idiomaticize_string_enums6_0B7_
FNDA:0,_RNCNvNtNtCs92r3DgzGcjh_18dsc_lib_jsonschema10transforms24idiomaticize_string_enum24idiomaticize_string_enums7_0B7_
FNDA:0,_RNCNvNtNtCs92r3DgzGcjh_18dsc_lib_jsonschema10transforms24idiomaticize_string_enum24idiomaticize_string_enums8_0B7_
FNDA:0,_RNCNvNtNtCs92r3DgzGcjh_18dsc_lib_jsonschema10transforms24idiomaticize_string_enum24idiomaticize_string_enums9_0B7_
FNDA:0,_RNCNvNtNtCs92r3DgzGcjh_18dsc_lib_jsonschema10transforms24idiomaticize_string_enum24idiomaticize_string_enums_0B7_
FNDA:0,_RNCNvNtNtCs92r3DgzGcjh_18dsc_lib_jsonschema10transforms24idiomaticize_string_enum24idiomaticize_string_enumsa_0B7_
FNDA:0,_RNCNvNtNtCs92r3DgzGcjh_18dsc_lib_jsonschema10transforms24idiomaticize_string_enum24idiomaticize_string_enumsb_0B7_
FNDA:0,_RNvNtNtCs92r3DgzGcjh_18dsc_lib_jsonschema10transforms24idiomaticize_string_enum24idiomaticize_string_enum
FNF:15
FNH:15
DA:145,374
DA:148,374
DA:149,275
DA:150,99
DA:153,99
DA:154,99
DA:155,2
DA:156,2
DA:158,99
DA:159,99
DA:160,2
DA:161,2
DA:164,99
DA:165,99
DA:166,99
DA:169,285
DA:170,285
DA:171,285
DA:172,2
DA:173,2
DA:174,2
DA:176,285
DA:178,285
DA:179,285
DA:180,2
DA:181,2
DA:182,2
DA:184,285
DA:185,285
DA:186,2
DA:187,2
DA:188,2
DA:190,285
DA:191,285
DA:192,20
DA:193,20
DA:194,20
DA:198,265
DA:199,265
DA:200,265
DA:204,18446744073709551610
DA:205,18446744073709551610
DA:206,18446744073709551610
DA:207,2
DA:208,2
DA:209,2
DA:211,18446744073709551610
DA:212,18446744073709551610
DA:213,18446744073709551610
DA:214,2
DA:215,2
DA:216,2
DA:219,271
DA:220,271
DA:221,2
DA:222,2
DA:223,2
DA:225,271
DA:226,271
DA:227,2
DA:228,2
DA:229,2
DA:233,265
DA:237,265
DA:238,263
DA:239,2
DA:241,265
DA:244,265
DA:245,10
DA:246,255
DA:248,265
DA:251,79
DA:252,79
DA:253,79
DA:254,81
DA:255,79
DA:256,79
DA:257,79
DA:258,79
DA:259,79
DA:260,81
DA:261,79
DA:262,79
DA:263,79
DA:264,79
DA:265,79
DA:266,354
BRF:0
BRH:0
LF:101
LH:101
end_of_record
SF:/Users/steve/repos/DSC/lib/dsc-lib-jsonschema/src/transforms/remove_bundled_schema_resources.rs
FN:72,_RNvNtNtCs6DmBUIV3MEM_18dsc_lib_jsonschema10transforms31remove_bundled_schema_resources31remove_bundled_schema_resources
FN:72,_RNvNtNtCs92r3DgzGcjh_18dsc_lib_jsonschema10transforms31remove_bundled_schema_resources31remove_bundled_schema_resources
FN:72,_RNvNtNtCs1p6hG0j9t4b_18dsc_lib_jsonschema10transforms31remove_bundled_schema_resources31remove_bundled_schema_resources
FN:72,_RNvNtNtCse9HBjRuE3ke_18dsc_lib_jsonschema10transforms31remove_bundled_schema_resources31remove_bundled_schema_resources
FN:72,_RNvNtNtCs8FPg1R8LBRe_18dsc_lib_jsonschema10transforms31remove_bundled_schema_resources31remove_bundled_schema_resources
FNDA:0,_RNvNtNtCs6DmBUIV3MEM_18dsc_lib_jsonschema10transforms31remove_bundled_schema_resources31remove_bundled_schema_resources
FNDA:0,_RNvNtNtCs92r3DgzGcjh_18dsc_lib_jsonschema10transforms31remove_bundled_schema_resources31remove_bundled_schema_resources
FNDA:4,_RNvNtNtCs1p6hG0j9t4b_18dsc_lib_jsonschema10transforms31remove_bundled_schema_resources31remove_bundled_schema_resources
FNDA:4,_RNvNtNtCse9HBjRuE3ke_18dsc_lib_jsonschema10transforms31remove_bundled_schema_resources31remove_bundled_schema_resources
FNDA:0,_RNvNtNtCs8FPg1R8LBRe_18dsc_lib_jsonschema10transforms31remove_bundled_schema_resources31remove_bundled_schema_resources
FNF:1
FNH:1
DA:72,8
DA:73,8
DA:74,8
BRF:0
BRH:0
LF:3
LH:3
end_of_record
SF:/Users/steve/repos/DSC/lib/dsc-lib-jsonschema/src/vscode/dialect.rs
FN:249,_RNCNvNtNtCse9HBjRuE3ke_18dsc_lib_jsonschema6vscode7dialect29VSCODE_DIALECT_SCHEMA_BUNDLED0B7_
FN:271,_RNCNvNtNtCse9HBjRuE3ke_18dsc_lib_jsonschema6vscode7dialect31VSCODE_DIALECT_SCHEMA_CANONICAL0B7_
FN:297,_RNCNvNtNtCse9HBjRuE3ke_18dsc_lib_jsonschema6vscode7dialect38VSCODE_DIALECT_SCHEMA_RESOURCE_BUNDLED0B7_
FN:323,_RNCNvNtNtCse9HBjRuE3ke_18dsc_lib_jsonschema6vscode7dialect40VSCODE_DIALECT_SCHEMA_RESOURCE_CANONICAL0B7_
FN:93,_RNvMNtNtCse9HBjRuE3ke_18dsc_lib_jsonschema6vscode7dialectNtB2_13VSCodeDialect19json_schema_bundled
FN:114,_RNvMNtNtCse9HBjRuE3ke_18dsc_lib_jsonschema6vscode7dialectNtB2_13VSCodeDialect21json_schema_canonical
FN:148,_RNvMNtNtCse9HBjRuE3ke_18dsc_lib_jsonschema6vscode7dialectNtB2_13VSCodeDialect23schema_resource_bundled
FN:181,_RNvMNtNtCse9HBjRuE3ke_18dsc_lib_jsonschema6vscode7dialectNtB2_13VSCodeDialect25schema_resource_canonical
FN:187,_RNvXs_NtNtCse9HBjRuE3ke_18dsc_lib_jsonschema6vscode7dialectNtB4_13VSCodeDialectNtCsdG7205R6am3_8schemars10JsonSchema11json_schema
FN:230,_RNvXs_NtNtCse9HBjRuE3ke_18dsc_lib_jsonschema6vscode7dialectNtB4_13VSCodeDialectNtCsdG7205R6am3_8schemars10JsonSchema11schema_name
FN:249,_RNCNvNtNtCs1p6hG0j9t4b_18dsc_lib_jsonschema6vscode7dialect29VSCODE_DIALECT_SCHEMA_BUNDLED0B7_
FN:271,_RNCNvNtNtCs1p6hG0j9t4b_18dsc_lib_jsonschema6vscode7dialect31VSCODE_DIALECT_SCHEMA_CANONICAL0B7_
FN:297,_RNCNvNtNtCs1p6hG0j9t4b_18dsc_lib_jsonschema6vscode7dialect38VSCODE_DIALECT_SCHEMA_RESOURCE_BUNDLED0B7_
FN:323,_RNCNvNtNtCs1p6hG0j9t4b_18dsc_lib_jsonschema6vscode7dialect40VSCODE_DIALECT_SCHEMA_RESOURCE_CANONICAL0B7_
FN:93,_RNvMNtNtCs1p6hG0j9t4b_18dsc_lib_jsonschema6vscode7dialectNtB2_13VSCodeDialect19json_schema_bundled
FN:114,_RNvMNtNtCs1p6hG0j9t4b_18dsc_lib_jsonschema6vscode7dialectNtB2_13VSCodeDialect21json_schema_canonical
FN:148,_RNvMNtNtCs1p6hG0j9t4b_18dsc_lib_jsonschema6vscode7dialectNtB2_13VSCodeDialect23schema_resource_bundled
FN:181,_RNvMNtNtCs1p6hG0j9t4b_18dsc_lib_jsonschema6vscode7dialectNtB2_13VSCodeDialect25schema_resource_canonical
FN:187,_RNvXs_NtNtCs1p6hG0j9t4b_18dsc_lib_jsonschema6vscode7dialectNtB4_13VSCodeDialectNtCsdG7205R6am3_8schemars10JsonSchema11json_schema
FN:230,_RNvXs_NtNtCs1p6hG0j9t4b_18dsc_lib_jsonschema6vscode7dialectNtB4_13VSCodeDialectNtCsdG7205R6am3_8schemars10JsonSchema11schema_name
FN:93,_RNvMNtNtCs8FPg1R8LBRe_18dsc_lib_jsonschema6vscode7dialectNtB2_13VSCodeDialect19json_schema_bundled
FN:114,_RNvMNtNtCs8FPg1R8LBRe_18dsc_lib_jsonschema6vscode7dialectNtB2_13VSCodeDialect21json_schema_canonical
FN:148,_RNvMNtNtCs8FPg1R8LBRe_18dsc_lib_jsonschema6vscode7dialectNtB2_13VSCodeDialect23schema_resource_bundled
FN:181,_RNvMNtNtCs8FPg1R8LBRe_18dsc_lib_jsonschema6vscode7dialectNtB2_13VSCodeDialect25schema_resource_canonical
FN:187,_RNvXs_NtNtCs8FPg1R8LBRe_18dsc_lib_jsonschema6vscode7dialectNtB4_13VSCodeDialectNtCsdG7205R6am3_8schemars10JsonSchema11json_schema
FN:230,_RNvXs_NtNtCs8FPg1R8LBRe_18dsc_lib_jsonschema6vscode7dialectNtB4_13VSCodeDialectNtCsdG7205R6am3_8schemars10JsonSchema11schema_name
FN:249,_RNCNvNtNtCs8FPg1R8LBRe_18dsc_lib_jsonschema6vscode7dialect29VSCODE_DIALECT_SCHEMA_BUNDLED0B7_
FN:271,_RNCNvNtNtCs8FPg1R8LBRe_18dsc_lib_jsonschema6vscode7dialect31VSCODE_DIALECT_SCHEMA_CANONICAL0B7_
FN:297,_RNCNvNtNtCs8FPg1R8LBRe_18dsc_lib_jsonschema6vscode7dialect38VSCODE_DIALECT_SCHEMA_RESOURCE_BUNDLED0B7_
FN:323,_RNCNvNtNtCs8FPg1R8LBRe_18dsc_lib_jsonschema6vscode7dialect40VSCODE_DIALECT_SCHEMA_RESOURCE_CANONICAL0B7_
FN:230,_RNvXs_NtNtCs6DmBUIV3MEM_18dsc_lib_jsonschema6vscode7dialectNtB4_13VSCodeDialectNtCsdG7205R6am3_8schemars10JsonSchema11schema_name
FN:249,_RNCNvNtNtCs6DmBUIV3MEM_18dsc_lib_jsonschema6vscode7dialect29VSCODE_DIALECT_SCHEMA_BUNDLED0B7_
FN:271,_RNCNvNtNtCs6DmBUIV3MEM_18dsc_lib_jsonschema6vscode7dialect31VSCODE_DIALECT_SCHEMA_CANONICAL0B7_
FN:297,_RNCNvNtNtCs6DmBUIV3MEM_18dsc_lib_jsonschema6vscode7dialect38VSCODE_DIALECT_SCHEMA_RESOURCE_BUNDLED0B7_
FN:323,_RNCNvNtNtCs6DmBUIV3MEM_18dsc_lib_jsonschema6vscode7dialect40VSCODE_DIALECT_SCHEMA_RESOURCE_CANONICAL0B7_
FN:93,_RNvMNtNtCs6DmBUIV3MEM_18dsc_lib_jsonschema6vscode7dialectNtB2_13VSCodeDialect19json_schema_bundled
FN:114,_RNvMNtNtCs6DmBUIV3MEM_18dsc_lib_jsonschema6vscode7dialectNtB2_13VSCodeDialect21json_schema_canonical
FN:148,_RNvMNtNtCs6DmBUIV3MEM_18dsc_lib_jsonschema6vscode7dialectNtB2_13VSCodeDialect23schema_resource_bundled
FN:181,_RNvMNtNtCs6DmBUIV3MEM_18dsc_lib_jsonschema6vscode7dialectNtB2_13VSCodeDialect25schema_resource_canonical
FN:187,_RNvXs_NtNtCs6DmBUIV3MEM_18dsc_lib_jsonschema6vscode7dialectNtB4_13VSCodeDialectNtCsdG7205R6am3_8schemars10JsonSchema11json_schema
FN:249,_RNCNvNtNtCs92r3DgzGcjh_18dsc_lib_jsonschema6vscode7dialect29VSCODE_DIALECT_SCHEMA_BUNDLED0B7_
FN:271,_RNCNvNtNtCs92r3DgzGcjh_18dsc_lib_jsonschema6vscode7dialect31VSCODE_DIALECT_SCHEMA_CANONICAL0B7_
FN:297,_RNCNvNtNtCs92r3DgzGcjh_18dsc_lib_jsonschema6vscode7dialect38VSCODE_DIALECT_SCHEMA_RESOURCE_BUNDLED0B7_
FN:323,_RNCNvNtNtCs92r3DgzGcjh_18dsc_lib_jsonschema6vscode7dialect40VSCODE_DIALECT_SCHEMA_RESOURCE_CANONICAL0B7_
FN:230,_RNvXs_NtNtCs92r3DgzGcjh_18dsc_lib_jsonschema6vscode7dialectNtB4_13VSCodeDialectNtCsdG7205R6am3_8schemars10JsonSchema11schema_name
FN:93,_RNvMNtNtCs92r3DgzGcjh_18dsc_lib_jsonschema6vscode7dialectNtB2_13VSCodeDialect19json_schema_bundled
FN:114,_RNvMNtNtCs92r3DgzGcjh_18dsc_lib_jsonschema6vscode7dialectNtB2_13VSCodeDialect21json_schema_canonical
FN:148,_RNvMNtNtCs92r3DgzGcjh_18dsc_lib_jsonschema6vscode7dialectNtB2_13VSCodeDialect23schema_resource_bundled
FN:181,_RNvMNtNtCs92r3DgzGcjh_18dsc_lib_jsonschema6vscode7dialectNtB2_13VSCodeDialect25schema_resource_canonical
FN:187,_RNvXs_NtNtCs92r3DgzGcjh_18dsc_lib_jsonschema6vscode7dialectNtB4_13VSCodeDialectNtCsdG7205R6am3_8schemars10JsonSchema11json_schema
FNDA:0,_RNCNvNtNtCse9HBjRuE3ke_18dsc_lib_jsonschema6vscode7dialect29VSCODE_DIALECT_SCHEMA_BUNDLED0B7_
FNDA:0,_RNCNvNtNtCse9HBjRuE3ke_18dsc_lib_jsonschema6vscode7dialect31VSCODE_DIALECT_SCHEMA_CANONICAL0B7_
FNDA:0,_RNCNvNtNtCse9HBjRuE3ke_18dsc_lib_jsonschema6vscode7dialect38VSCODE_DIALECT_SCHEMA_RESOURCE_BUNDLED0B7_
FNDA:0,_RNCNvNtNtCse9HBjRuE3ke_18dsc_lib_jsonschema6vscode7dialect40VSCODE_DIALECT_SCHEMA_RESOURCE_CANONICAL0B7_
FNDA:0,_RNvMNtNtCse9HBjRuE3ke_18dsc_lib_jsonschema6vscode7dialectNtB2_13VSCodeDialect19json_schema_bundled
FNDA:0,_RNvMNtNtCse9HBjRuE3ke_18dsc_lib_jsonschema6vscode7dialectNtB2_13VSCodeDialect21json_schema_canonical
FNDA:0,_RNvMNtNtCse9HBjRuE3ke_18dsc_lib_jsonschema6vscode7dialectNtB2_13VSCodeDialect23schema_resource_bundled
FNDA:0,_RNvMNtNtCse9HBjRuE3ke_18dsc_lib_jsonschema6vscode7dialectNtB2_13VSCodeDialect25schema_resource_canonical
FNDA:0,_RNvXs_NtNtCse9HBjRuE3ke_18dsc_lib_jsonschema6vscode7dialectNtB4_13VSCodeDialectNtCsdG7205R6am3_8schemars10JsonSchema11json_schema
FNDA:0,_RNvXs_NtNtCse9HBjRuE3ke_18dsc_lib_jsonschema6vscode7dialectNtB4_13VSCodeDialectNtCsdG7205R6am3_8schemars10JsonSchema11schema_name
FNDA:0,_RNCNvNtNtCs1p6hG0j9t4b_18dsc_lib_jsonschema6vscode7dialect29VSCODE_DIALECT_SCHEMA_BUNDLED0B7_
FNDA:0,_RNCNvNtNtCs1p6hG0j9t4b_18dsc_lib_jsonschema6vscode7dialect31VSCODE_DIALECT_SCHEMA_CANONICAL0B7_
FNDA:0,_RNCNvNtNtCs1p6hG0j9t4b_18dsc_lib_jsonschema6vscode7dialect38VSCODE_DIALECT_SCHEMA_RESOURCE_BUNDLED0B7_
FNDA:0,_RNCNvNtNtCs1p6hG0j9t4b_18dsc_lib_jsonschema6vscode7dialect40VSCODE_DIALECT_SCHEMA_RESOURCE_CANONICAL0B7_
FNDA:0,_RNvMNtNtCs1p6hG0j9t4b_18dsc_lib_jsonschema6vscode7dialectNtB2_13VSCodeDialect19json_schema_bundled
FNDA:0,_RNvMNtNtCs1p6hG0j9t4b_18dsc_lib_jsonschema6vscode7dialectNtB2_13VSCodeDialect21json_schema_canonical
FNDA:0,_RNvMNtNtCs1p6hG0j9t4b_18dsc_lib_jsonschema6vscode7dialectNtB2_13VSCodeDialect23schema_resource_bundled
FNDA:0,_RNvMNtNtCs1p6hG0j9t4b_18dsc_lib_jsonschema6vscode7dialectNtB2_13VSCodeDialect25schema_resource_canonical
FNDA:0,_RNvXs_NtNtCs1p6hG0j9t4b_18dsc_lib_jsonschema6vscode7dialectNtB4_13VSCodeDialectNtCsdG7205R6am3_8schemars10JsonSchema11json_schema
FNDA:0,_RNvXs_NtNtCs1p6hG0j9t4b_18dsc_lib_jsonschema6vscode7dialectNtB4_13VSCodeDialectNtCsdG7205R6am3_8schemars10JsonSchema11schema_name
FNDA:0,_RNvMNtNtCs8FPg1R8LBRe_18dsc_lib_jsonschema6vscode7dialectNtB2_13VSCodeDialect19json_schema_bundled
FNDA:0,_RNvMNtNtCs8FPg1R8LBRe_18dsc_lib_jsonschema6vscode7dialectNtB2_13VSCodeDialect21json_schema_canonical
FNDA:0,_RNvMNtNtCs8FPg1R8LBRe_18dsc_lib_jsonschema6vscode7dialectNtB2_13VSCodeDialect23schema_resource_bundled
FNDA:0,_RNvMNtNtCs8FPg1R8LBRe_18dsc_lib_jsonschema6vscode7dialectNtB2_13VSCodeDialect25schema_resource_canonical
FNDA:0,_RNvXs_NtNtCs8FPg1R8LBRe_18dsc_lib_jsonschema6vscode7dialectNtB4_13VSCodeDialectNtCsdG7205R6am3_8schemars10JsonSchema11json_schema
FNDA:0,_RNvXs_NtNtCs8FPg1R8LBRe_18dsc_lib_jsonschema6vscode7dialectNtB4_13VSCodeDialectNtCsdG7205R6am3_8schemars10JsonSchema11schema_name
FNDA:0,_RNCNvNtNtCs8FPg1R8LBRe_18dsc_lib_jsonschema6vscode7dialect29VSCODE_DIALECT_SCHEMA_BUNDLED0B7_
FNDA:0,_RNCNvNtNtCs8FPg1R8LBRe_18dsc_lib_jsonschema6vscode7dialect31VSCODE_DIALECT_SCHEMA_CANONICAL0B7_
FNDA:0,_RNCNvNtNtCs8FPg1R8LBRe_18dsc_lib_jsonschema6vscode7dialect38VSCODE_DIALECT_SCHEMA_RESOURCE_BUNDLED0B7_
FNDA:0,_RNCNvNtNtCs8FPg1R8LBRe_18dsc_lib_jsonschema6vscode7dialect40VSCODE_DIALECT_SCHEMA_RESOURCE_CANONICAL0B7_
FNDA:0,_RNvXs_NtNtCs6DmBUIV3MEM_18dsc_lib_jsonschema6vscode7dialectNtB4_13VSCodeDialectNtCsdG7205R6am3_8schemars10JsonSchema11schema_name
FNDA:1,_RNCNvNtNtCs6DmBUIV3MEM_18dsc_lib_jsonschema6vscode7dialect29VSCODE_DIALECT_SCHEMA_BUNDLED0B7_
FNDA:1,_RNCNvNtNtCs6DmBUIV3MEM_18dsc_lib_jsonschema6vscode7dialect31VSCODE_DIALECT_SCHEMA_CANONICAL0B7_
FNDA:0,_RNCNvNtNtCs6DmBUIV3MEM_18dsc_lib_jsonschema6vscode7dialect38VSCODE_DIALECT_SCHEMA_RESOURCE_BUNDLED0B7_
FNDA:1,_RNCNvNtNtCs6DmBUIV3MEM_18dsc_lib_jsonschema6vscode7dialect40VSCODE_DIALECT_SCHEMA_RESOURCE_CANONICAL0B7_
FNDA:3,_RNvMNtNtCs6DmBUIV3MEM_18dsc_lib_jsonschema6vscode7dialectNtB2_13VSCodeDialect19json_schema_bundled
FNDA:5,_RNvMNtNtCs6DmBUIV3MEM_18dsc_lib_jsonschema6vscode7dialectNtB2_13VSCodeDialect21json_schema_canonical
FNDA:1,_RNvMNtNtCs6DmBUIV3MEM_18dsc_lib_jsonschema6vscode7dialectNtB2_13VSCodeDialect23schema_resource_bundled
FNDA:2,_RNvMNtNtCs6DmBUIV3MEM_18dsc_lib_jsonschema6vscode7dialectNtB2_13VSCodeDialect25schema_resource_canonical
FNDA:9,_RNvXs_NtNtCs6DmBUIV3MEM_18dsc_lib_jsonschema6vscode7dialectNtB4_13VSCodeDialectNtCsdG7205R6am3_8schemars10JsonSchema11json_schema
FNDA:1,_RNCNvNtNtCs92r3DgzGcjh_18dsc_lib_jsonschema6vscode7dialect29VSCODE_DIALECT_SCHEMA_BUNDLED0B7_
FNDA:1,_RNCNvNtNtCs92r3DgzGcjh_18dsc_lib_jsonschema6vscode7dialect31VSCODE_DIALECT_SCHEMA_CANONICAL0B7_
FNDA:0,_RNCNvNtNtCs92r3DgzGcjh_18dsc_lib_jsonschema6vscode7dialect38VSCODE_DIALECT_SCHEMA_RESOURCE_BUNDLED0B7_
FNDA:1,_RNCNvNtNtCs92r3DgzGcjh_18dsc_lib_jsonschema6vscode7dialect40VSCODE_DIALECT_SCHEMA_RESOURCE_CANONICAL0B7_
FNDA:0,_RNvXs_NtNtCs92r3DgzGcjh_18dsc_lib_jsonschema6vscode7dialectNtB4_13VSCodeDialectNtCsdG7205R6am3_8schemars10JsonSchema11schema_name
FNDA:3,_RNvMNtNtCs92r3DgzGcjh_18dsc_lib_jsonschema6vscode7dialectNtB2_13VSCodeDialect19json_schema_bundled
FNDA:5,_RNvMNtNtCs92r3DgzGcjh_18dsc_lib_jsonschema6vscode7dialectNtB2_13VSCodeDialect21json_schema_canonical
FNDA:1,_RNvMNtNtCs92r3DgzGcjh_18dsc_lib_jsonschema6vscode7dialectNtB2_13VSCodeDialect23schema_resource_bundled
FNDA:2,_RNvMNtNtCs92r3DgzGcjh_18dsc_lib_jsonschema6vscode7dialectNtB2_13VSCodeDialect25schema_resource_canonical
FNDA:9,_RNvXs_NtNtCs92r3DgzGcjh_18dsc_lib_jsonschema6vscode7dialectNtB4_13VSCodeDialectNtCsdG7205R6am3_8schemars10JsonSchema11json_schema
FNF:10
FNH:8
DA:93,6
DA:94,6
DA:95,6
DA:114,10
DA:115,10
DA:116,10
DA:117,10
DA:118,10
DA:148,2
DA:149,2
DA:150,2
DA:181,4
DA:182,4
DA:183,4
DA:187,18
DA:188,18
DA:189,18
DA:190,18
DA:191,18
DA:192,18
DA:193,18
DA:194,18
DA:195,18
DA:196,18
DA:197,18
DA:198,18
DA:199,18
DA:201,18
DA:202,18
DA:203,18
DA:205,18
DA:206,18
DA:207,18
DA:208,18
DA:210,18
DA:211,18
DA:212,18
DA:213,18
DA:214,18
DA:215,18
DA:216,18
DA:217,18
DA:218,18
DA:219,18
DA:220,18
DA:221,18
DA:222,18
DA:223,18
DA:224,18
DA:225,18
DA:226,18
DA:229,18
DA:230,0
DA:231,0
DA:232,0
DA:249,2
DA:250,2
DA:251,2
DA:252,2
DA:254,2
DA:255,2
DA:271,2
DA:272,2
DA:273,2
DA:274,2
DA:276,2
DA:277,2
DA:297,0
DA:298,0
DA:299,0
DA:300,0
DA:302,0
DA:303,0
DA:323,2
DA:324,2
DA:325,2
DA:326,2
DA:328,2
DA:329,2
BRF:0
BRH:0
LF:79
LH:70
end_of_record
SF:/Users/steve/repos/DSC/lib/dsc-lib-jsonschema/src/vscode/keywords/allow_comments.rs
FN:27,_RNvXNtNtNtCse9HBjRuE3ke_18dsc_lib_jsonschema6vscode8keywords14allow_commentsNtB2_20AllowCommentsKeywordNtNtB4_25vscode_keyword_definition23VSCodeKeywordDefinition15keyword_factory
FN:71,_RNvXs0_NtNtNtCse9HBjRuE3ke_18dsc_lib_jsonschema6vscode8keywords14allow_commentsNtB5_20AllowCommentsKeywordNtNtNtCs1pVHw2aflQo_10jsonschema8keywords6custom7Keyword8is_valid
FN:64,_RNvXs0_NtNtNtCse9HBjRuE3ke_18dsc_lib_jsonschema6vscode8keywords14allow_commentsNtB5_20AllowCommentsKeywordNtNtNtCs1pVHw2aflQo_10jsonschema8keywords6custom7Keyword8validate
FN:46,_RNvXs_NtNtNtCse9HBjRuE3ke_18dsc_lib_jsonschema6vscode8keywords14allow_commentsNtB4_20AllowCommentsKeywordNtCsdG7205R6am3_8schemars10JsonSchema11json_schema
FN:58,_RNvXs_NtNtNtCse9HBjRuE3ke_18dsc_lib_jsonschema6vscode8keywords14allow_commentsNtB4_20AllowCommentsKeywordNtCsdG7205R6am3_8schemars10JsonSchema11schema_name
FN:27,_RNvXNtNtNtCs1p6hG0j9t4b_18dsc_lib_jsonschema6vscode8keywords14allow_commentsNtB2_20AllowCommentsKeywordNtNtB4_25vscode_keyword_definition23VSCodeKeywordDefinition15keyword_factory
FN:71,_RNvXs0_NtNtNtCs1p6hG0j9t4b_18dsc_lib_jsonschema6vscode8keywords14allow_commentsNtB5_20AllowCommentsKeywordNtNtNtCskyI9PLifvdp_10jsonschema8keywords6custom7Keyword8is_valid
FN:64,_RNvXs0_NtNtNtCs1p6hG0j9t4b_18dsc_lib_jsonschema6vscode8keywords14allow_commentsNtB5_20AllowCommentsKeywordNtNtNtCskyI9PLifvdp_10jsonschema8keywords6custom7Keyword8validate
FN:46,_RNvXs_NtNtNtCs1p6hG0j9t4b_18dsc_lib_jsonschema6vscode8keywords14allow_commentsNtB4_20AllowCommentsKeywordNtCsdG7205R6am3_8schemars10JsonSchema11json_schema
FN:58,_RNvXs_NtNtNtCs1p6hG0j9t4b_18dsc_lib_jsonschema6vscode8keywords14allow_commentsNtB4_20AllowCommentsKeywordNtCsdG7205R6am3_8schemars10JsonSchema11schema_name
FN:27,_RNvXNtNtNtCs8FPg1R8LBRe_18dsc_lib_jsonschema6vscode8keywords14allow_commentsNtB2_20AllowCommentsKeywordNtNtB4_25vscode_keyword_definition23VSCodeKeywordDefinition15keyword_factory
FN:71,_RNvXs0_NtNtNtCs8FPg1R8LBRe_18dsc_lib_jsonschema6vscode8keywords14allow_commentsNtB5_20AllowCommentsKeywordNtNtNtCskyI9PLifvdp_10jsonschema8keywords6custom7Keyword8is_valid
FN:64,_RNvXs0_NtNtNtCs8FPg1R8LBRe_18dsc_lib_jsonschema6vscode8keywords14allow_commentsNtB5_20AllowCommentsKeywordNtNtNtCskyI9PLifvdp_10jsonschema8keywords6custom7Keyword8validate
FN:46,_RNvXs_NtNtNtCs8FPg1R8LBRe_18dsc_lib_jsonschema6vscode8keywords14allow_commentsNtB4_20AllowCommentsKeywordNtCsdG7205R6am3_8schemars10JsonSchema11json_schema
FN:58,_RNvXs_NtNtNtCs8FPg1R8LBRe_18dsc_lib_jsonschema6vscode8keywords14allow_commentsNtB4_20AllowCommentsKeywordNtCsdG7205R6am3_8schemars10JsonSchema11schema_name
FN:58,_RNvXs_NtNtNtCs6DmBUIV3MEM_18dsc_lib_jsonschema6vscode8keywords14allow_commentsNtB4_20AllowCommentsKeywordNtCsdG7205R6am3_8schemars10JsonSchema11schema_name
FN:27,_RNvXNtNtNtCs6DmBUIV3MEM_18dsc_lib_jsonschema6vscode8keywords14allow_commentsNtB2_20AllowCommentsKeywordNtNtB4_25vscode_keyword_definition23VSCodeKeywordDefinition15keyword_factory
FN:71,_RNvXs0_NtNtNtCs6DmBUIV3MEM_18dsc_lib_jsonschema6vscode8keywords14allow_commentsNtB5_20AllowCommentsKeywordNtNtNtCs1pVHw2aflQo_10jsonschema8keywords6custom7Keyword8is_valid
FN:64,_RNvXs0_NtNtNtCs6DmBUIV3MEM_18dsc_lib_jsonschema6vscode8keywords14allow_commentsNtB5_20AllowCommentsKeywordNtNtNtCs1pVHw2aflQo_10jsonschema8keywords6custom7Keyword8validate
FN:46,_RNvXs_NtNtNtCs6DmBUIV3MEM_18dsc_lib_jsonschema6vscode8keywords14allow_commentsNtB4_20AllowCommentsKeywordNtCsdG7205R6am3_8schemars10JsonSchema11json_schema
FN:27,_RNvXNtNtNtCs92r3DgzGcjh_18dsc_lib_jsonschema6vscode8keywords14allow_commentsNtB2_20AllowCommentsKeywordNtNtB4_25vscode_keyword_definition23VSCodeKeywordDefinition15keyword_factory
FN:71,_RNvXs0_NtNtNtCs92r3DgzGcjh_18dsc_lib_jsonschema6vscode8keywords14allow_commentsNtB5_20AllowCommentsKeywordNtNtNtCskyI9PLifvdp_10jsonschema8keywords6custom7Keyword8is_valid
FN:64,_RNvXs0_NtNtNtCs92r3DgzGcjh_18dsc_lib_jsonschema6vscode8keywords14allow_commentsNtB5_20AllowCommentsKeywordNtNtNtCskyI9PLifvdp_10jsonschema8keywords6custom7Keyword8validate
FN:46,_RNvXs_NtNtNtCs92r3DgzGcjh_18dsc_lib_jsonschema6vscode8keywords14allow_commentsNtB4_20AllowCommentsKeywordNtCsdG7205R6am3_8schemars10JsonSchema11json_schema
FN:58,_RNvXs_NtNtNtCs92r3DgzGcjh_18dsc_lib_jsonschema6vscode8keywords14allow_commentsNtB4_20AllowCommentsKeywordNtCsdG7205R6am3_8schemars10JsonSchema11schema_name
FNDA:0,_RNvXNtNtNtCse9HBjRuE3ke_18dsc_lib_jsonschema6vscode8keywords14allow_commentsNtB2_20AllowCommentsKeywordNtNtB4_25vscode_keyword_definition23VSCodeKeywordDefinition15keyword_factory
FNDA:0,_RNvXs0_NtNtNtCse9HBjRuE3ke_18dsc_lib_jsonschema6vscode8keywords14allow_commentsNtB5_20AllowCommentsKeywordNtNtNtCs1pVHw2aflQo_10jsonschema8keywords6custom7Keyword8is_valid
FNDA:0,_RNvXs0_NtNtNtCse9HBjRuE3ke_18dsc_lib_jsonschema6vscode8keywords14allow_commentsNtB5_20AllowCommentsKeywordNtNtNtCs1pVHw2aflQo_10jsonschema8keywords6custom7Keyword8validate
FNDA:0,_RNvXs_NtNtNtCse9HBjRuE3ke_18dsc_lib_jsonschema6vscode8keywords14allow_commentsNtB4_20AllowCommentsKeywordNtCsdG7205R6am3_8schemars10JsonSchema11json_schema
FNDA:0,_RNvXs_NtNtNtCse9HBjRuE3ke_18dsc_lib_jsonschema6vscode8keywords14allow_commentsNtB4_20AllowCommentsKeywordNtCsdG7205R6am3_8schemars10JsonSchema11schema_name
FNDA:0,_RNvXNtNtNtCs1p6hG0j9t4b_18dsc_lib_jsonschema6vscode8keywords14allow_commentsNtB2_20AllowCommentsKeywordNtNtB4_25vscode_keyword_definition23VSCodeKeywordDefinition15keyword_factory
FNDA:0,_RNvXs0_NtNtNtCs1p6hG0j9t4b_18dsc_lib_jsonschema6vscode8keywords14allow_commentsNtB5_20AllowCommentsKeywordNtNtNtCskyI9PLifvdp_10jsonschema8keywords6custom7Keyword8is_valid
FNDA:0,_RNvXs0_NtNtNtCs1p6hG0j9t4b_18dsc_lib_jsonschema6vscode8keywords14allow_commentsNtB5_20AllowCommentsKeywordNtNtNtCskyI9PLifvdp_10jsonschema8keywords6custom7Keyword8validate
FNDA:0,_RNvXs_NtNtNtCs1p6hG0j9t4b_18dsc_lib_jsonschema6vscode8keywords14allow_commentsNtB4_20AllowCommentsKeywordNtCsdG7205R6am3_8schemars10JsonSchema11json_schema
FNDA:0,_RNvXs_NtNtNtCs1p6hG0j9t4b_18dsc_lib_jsonschema6vscode8keywords14allow_commentsNtB4_20AllowCommentsKeywordNtCsdG7205R6am3_8schemars10JsonSchema11schema_name
FNDA:0,_RNvXNtNtNtCs8FPg1R8LBRe_18dsc_lib_jsonschema6vscode8keywords14allow_commentsNtB2_20AllowCommentsKeywordNtNtB4_25vscode_keyword_definition23VSCodeKeywordDefinition15keyword_factory
FNDA:0,_RNvXs0_NtNtNtCs8FPg1R8LBRe_18dsc_lib_jsonschema6vscode8keywords14allow_commentsNtB5_20AllowCommentsKeywordNtNtNtCskyI9PLifvdp_10jsonschema8keywords6custom7Keyword8is_valid
FNDA:0,_RNvXs0_NtNtNtCs8FPg1R8LBRe_18dsc_lib_jsonschema6vscode8keywords14allow_commentsNtB5_20AllowCommentsKeywordNtNtNtCskyI9PLifvdp_10jsonschema8keywords6custom7Keyword8validate
FNDA:0,_RNvXs_NtNtNtCs8FPg1R8LBRe_18dsc_lib_jsonschema6vscode8keywords14allow_commentsNtB4_20AllowCommentsKeywordNtCsdG7205R6am3_8schemars10JsonSchema11json_schema
FNDA:0,_RNvXs_NtNtNtCs8FPg1R8LBRe_18dsc_lib_jsonschema6vscode8keywords14allow_commentsNtB4_20AllowCommentsKeywordNtCsdG7205R6am3_8schemars10JsonSchema11schema_name
FNDA:0,_RNvXs_NtNtNtCs6DmBUIV3MEM_18dsc_lib_jsonschema6vscode8keywords14allow_commentsNtB4_20AllowCommentsKeywordNtCsdG7205R6am3_8schemars10JsonSchema11schema_name
FNDA:2,_RNvXNtNtNtCs6DmBUIV3MEM_18dsc_lib_jsonschema6vscode8keywords14allow_commentsNtB2_20AllowCommentsKeywordNtNtB4_25vscode_keyword_definition23VSCodeKeywordDefinition15keyword_factory
FNDA:0,_RNvXs0_NtNtNtCs6DmBUIV3MEM_18dsc_lib_jsonschema6vscode8keywords14allow_commentsNtB5_20AllowCommentsKeywordNtNtNtCs1pVHw2aflQo_10jsonschema8keywords6custom7Keyword8is_valid
FNDA:0,_RNvXs0_NtNtNtCs6DmBUIV3MEM_18dsc_lib_jsonschema6vscode8keywords14allow_commentsNtB5_20AllowCommentsKeywordNtNtNtCs1pVHw2aflQo_10jsonschema8keywords6custom7Keyword8validate
FNDA:73,_RNvXs_NtNtNtCs6DmBUIV3MEM_18dsc_lib_jsonschema6vscode8keywords14allow_commentsNtB4_20AllowCommentsKeywordNtCsdG7205R6am3_8schemars10JsonSchema11json_schema
FNDA:2,_RNvXNtNtNtCs92r3DgzGcjh_18dsc_lib_jsonschema6vscode8keywords14allow_commentsNtB2_20AllowCommentsKeywordNtNtB4_25vscode_keyword_definition23VSCodeKeywordDefinition15keyword_factory
FNDA:0,_RNvXs0_NtNtNtCs92r3DgzGcjh_18dsc_lib_jsonschema6vscode8keywords14allow_commentsNtB5_20AllowCommentsKeywordNtNtNtCskyI9PLifvdp_10jsonschema8keywords6custom7Keyword8is_valid
FNDA:0,_RNvXs0_NtNtNtCs92r3DgzGcjh_18dsc_lib_jsonschema6vscode8keywords14allow_commentsNtB5_20AllowCommentsKeywordNtNtNtCskyI9PLifvdp_10jsonschema8keywords6custom7Keyword8validate
FNDA:73,_RNvXs_NtNtNtCs92r3DgzGcjh_18dsc_lib_jsonschema6vscode8keywords14allow_commentsNtB4_20AllowCommentsKeywordNtCsdG7205R6am3_8schemars10JsonSchema11json_schema
FNDA:0,_RNvXs_NtNtNtCs92r3DgzGcjh_18dsc_lib_jsonschema6vscode8keywords14allow_commentsNtB4_20AllowCommentsKeywordNtCsdG7205R6am3_8schemars10JsonSchema11schema_name
FNF:5
FNH:2
DA:27,4
DA:28,4
DA:29,4
DA:30,4
DA:31,4
DA:32,4
DA:33,2
DA:35,2
DA:36,2
DA:37,2
DA:38,2
DA:39,2
DA:42,4
DA:46,146
DA:47,146
DA:48,146
DA:49,146
DA:50,146
DA:51,146
DA:52,146
DA:53,146
DA:54,146
DA:56,146
DA:58,0
DA:59,0
DA:60,0
DA:64,0
DA:65,0
DA:66,0
DA:67,0
DA:68,0
DA:69,0
DA:70,0
DA:71,0
DA:72,0
DA:73,0
BRF:0
BRH:0
LF:36
LH:23
end_of_record
SF:/Users/steve/repos/DSC/lib/dsc-lib-jsonschema/src/vscode/keywords/allow_trailing_commas.rs
FN:28,_RNvXNtNtNtCse9HBjRuE3ke_18dsc_lib_jsonschema6vscode8keywords21allow_trailing_commasNtB2_26AllowTrailingCommasKeywordNtNtB4_25vscode_keyword_definition23VSCodeKeywordDefinition15keyword_factory
FN:72,_RNvXs0_NtNtNtCse9HBjRuE3ke_18dsc_lib_jsonschema6vscode8keywords21allow_trailing_commasNtB5_26AllowTrailingCommasKeywordNtNtNtCs1pVHw2aflQo_10jsonschema8keywords6custom7Keyword8is_valid
FN:65,_RNvXs0_NtNtNtCse9HBjRuE3ke_18dsc_lib_jsonschema6vscode8keywords21allow_trailing_commasNtB5_26AllowTrailingCommasKeywordNtNtNtCs1pVHw2aflQo_10jsonschema8keywords6custom7Keyword8validate
FN:47,_RNvXs_NtNtNtCse9HBjRuE3ke_18dsc_lib_jsonschema6vscode8keywords21allow_trailing_commasNtB4_26AllowTrailingCommasKeywordNtCsdG7205R6am3_8schemars10JsonSchema11json_schema
FN:59,_RNvXs_NtNtNtCse9HBjRuE3ke_18dsc_lib_jsonschema6vscode8keywords21allow_trailing_commasNtB4_26AllowTrailingCommasKeywordNtCsdG7205R6am3_8schemars10JsonSchema11schema_name
FN:28,_RNvXNtNtNtCs1p6hG0j9t4b_18dsc_lib_jsonschema6vscode8keywords21allow_trailing_commasNtB2_26AllowTrailingCommasKeywordNtNtB4_25vscode_keyword_definition23VSCodeKeywordDefinition15keyword_factory
FN:72,_RNvXs0_NtNtNtCs1p6hG0j9t4b_18dsc_lib_jsonschema6vscode8keywords21allow_trailing_commasNtB5_26AllowTrailingCommasKeywordNtNtNtCskyI9PLifvdp_10jsonschema8keywords6custom7Keyword8is_valid
FN:65,_RNvXs0_NtNtNtCs1p6hG0j9t4b_18dsc_lib_jsonschema6vscode8keywords21allow_trailing_commasNtB5_26AllowTrailingCommasKeywordNtNtNtCskyI9PLifvdp_10jsonschema8keywords6custom7Keyword8validate
FN:47,_RNvXs_NtNtNtCs1p6hG0j9t4b_18dsc_lib_jsonschema6vscode8keywords21allow_trailing_commasNtB4_26AllowTrailingCommasKeywordNtCsdG7205R6am3_8schemars10JsonSchema11json_schema
FN:59,_RNvXs_NtNtNtCs1p6hG0j9t4b_18dsc_lib_jsonschema6vscode8keywords21allow_trailing_commasNtB4_26AllowTrailingCommasKeywordNtCsdG7205R6am3_8schemars10JsonSchema11schema_name
FN:28,_RNvXNtNtNtCs8FPg1R8LBRe_18dsc_lib_jsonschema6vscode8keywords21allow_trailing_commasNtB2_26AllowTrailingCommasKeywordNtNtB4_25vscode_keyword_definition23VSCodeKeywordDefinition15keyword_factory
FN:72,_RNvXs0_NtNtNtCs8FPg1R8LBRe_18dsc_lib_jsonschema6vscode8keywords21allow_trailing_commasNtB5_26AllowTrailingCommasKeywordNtNtNtCskyI9PLifvdp_10jsonschema8keywords6custom7Keyword8is_valid
FN:65,_RNvXs0_NtNtNtCs8FPg1R8LBRe_18dsc_lib_jsonschema6vscode8keywords21allow_trailing_commasNtB5_26AllowTrailingCommasKeywordNtNtNtCskyI9PLifvdp_10jsonschema8keywords6custom7Keyword8validate
FN:47,_RNvXs_NtNtNtCs8FPg1R8LBRe_18dsc_lib_jsonschema6vscode8keywords21allow_trailing_commasNtB4_26AllowTrailingCommasKeywordNtCsdG7205R6am3_8schemars10JsonSchema11json_schema
FN:59,_RNvXs_NtNtNtCs8FPg1R8LBRe_18dsc_lib_jsonschema6vscode8keywords21allow_trailing_commasNtB4_26AllowTrailingCommasKeywordNtCsdG7205R6am3_8schemars10JsonSchema11schema_name
FN:59,_RNvXs_NtNtNtCs6DmBUIV3MEM_18dsc_lib_jsonschema6vscode8keywords21allow_trailing_commasNtB4_26AllowTrailingCommasKeywordNtCsdG7205R6am3_8schemars10JsonSchema11schema_name
FN:28,_RNvXNtNtNtCs6DmBUIV3MEM_18dsc_lib_jsonschema6vscode8keywords21allow_trailing_commasNtB2_26AllowTrailingCommasKeywordNtNtB4_25vscode_keyword_definition23VSCodeKeywordDefinition15keyword_factory
FN:72,_RNvXs0_NtNtNtCs6DmBUIV3MEM_18dsc_lib_jsonschema6vscode8keywords21allow_trailing_commasNtB5_26AllowTrailingCommasKeywordNtNtNtCs1pVHw2aflQo_10jsonschema8keywords6custom7Keyword8is_valid
FN:65,_RNvXs0_NtNtNtCs6DmBUIV3MEM_18dsc_lib_jsonschema6vscode8keywords21allow_trailing_commasNtB5_26AllowTrailingCommasKeywordNtNtNtCs1pVHw2aflQo_10jsonschema8keywords6custom7Keyword8validate
FN:47,_RNvXs_NtNtNtCs6DmBUIV3MEM_18dsc_lib_jsonschema6vscode8keywords21allow_trailing_commasNtB4_26AllowTrailingCommasKeywordNtCsdG7205R6am3_8schemars10JsonSchema11json_schema
FN:59,_RNvXs_NtNtNtCs92r3DgzGcjh_18dsc_lib_jsonschema6vscode8keywords21allow_trailing_commasNtB4_26AllowTrailingCommasKeywordNtCsdG7205R6am3_8schemars10JsonSchema11schema_name
FN:28,_RNvXNtNtNtCs92r3DgzGcjh_18dsc_lib_jsonschema6vscode8keywords21allow_trailing_commasNtB2_26AllowTrailingCommasKeywordNtNtB4_25vscode_keyword_definition23VSCodeKeywordDefinition15keyword_factory
FN:72,_RNvXs0_NtNtNtCs92r3DgzGcjh_18dsc_lib_jsonschema6vscode8keywords21allow_trailing_commasNtB5_26AllowTrailingCommasKeywordNtNtNtCskyI9PLifvdp_10jsonschema8keywords6custom7Keyword8is_valid
FN:65,_RNvXs0_NtNtNtCs92r3DgzGcjh_18dsc_lib_jsonschema6vscode8keywords21allow_trailing_commasNtB5_26AllowTrailingCommasKeywordNtNtNtCskyI9PLifvdp_10jsonschema8keywords6custom7Keyword8validate
FN:47,_RNvXs_NtNtNtCs92r3DgzGcjh_18dsc_lib_jsonschema6vscode8keywords21allow_trailing_commasNtB4_26AllowTrailingCommasKeywordNtCsdG7205R6am3_8schemars10JsonSchema11json_schema
FNDA:0,_RNvXNtNtNtCse9HBjRuE3ke_18dsc_lib_jsonschema6vscode8keywords21allow_trailing_commasNtB2_26AllowTrailingCommasKeywordNtNtB4_25vscode_keyword_definition23VSCodeKeywordDefinition15keyword_factory
FNDA:0,_RNvXs0_NtNtNtCse9HBjRuE3ke_18dsc_lib_jsonschema6vscode8keywords21allow_trailing_commasNtB5_26AllowTrailingCommasKeywordNtNtNtCs1pVHw2aflQo_10jsonschema8keywords6custom7Keyword8is_valid
FNDA:0,_RNvXs0_NtNtNtCse9HBjRuE3ke_18dsc_lib_jsonschema6vscode8keywords21allow_trailing_commasNtB5_26AllowTrailingCommasKeywordNtNtNtCs1pVHw2aflQo_10jsonschema8keywords6custom7Keyword8validate
FNDA:0,_RNvXs_NtNtNtCse9HBjRuE3ke_18dsc_lib_jsonschema6vscode8keywords21allow_trailing_commasNtB4_26AllowTrailingCommasKeywordNtCsdG7205R6am3_8schemars10JsonSchema11json_schema
FNDA:0,_RNvXs_NtNtNtCse9HBjRuE3ke_18dsc_lib_jsonschema6vscode8keywords21allow_trailing_commasNtB4_26AllowTrailingCommasKeywordNtCsdG7205R6am3_8schemars10JsonSchema11schema_name
FNDA:0,_RNvXNtNtNtCs1p6hG0j9t4b_18dsc_lib_jsonschema6vscode8keywords21allow_trailing_commasNtB2_26AllowTrailingCommasKeywordNtNtB4_25vscode_keyword_definition23VSCodeKeywordDefinition15keyword_factory
FNDA:0,_RNvXs0_NtNtNtCs1p6hG0j9t4b_18dsc_lib_jsonschema6vscode8keywords21allow_trailing_commasNtB5_26AllowTrailingCommasKeywordNtNtNtCskyI9PLifvdp_10jsonschema8keywords6custom7Keyword8is_valid
FNDA:0,_RNvXs0_NtNtNtCs1p6hG0j9t4b_18dsc_lib_jsonschema6vscode8keywords21allow_trailing_commasNtB5_26AllowTrailingCommasKeywordNtNtNtCskyI9PLifvdp_10jsonschema8keywords6custom7Keyword8validate
FNDA:0,_RNvXs_NtNtNtCs1p6hG0j9t4b_18dsc_lib_jsonschema6vscode8keywords21allow_trailing_commasNtB4_26AllowTrailingCommasKeywordNtCsdG7205R6am3_8schemars10JsonSchema11json_schema
FNDA:0,_RNvXs_NtNtNtCs1p6hG0j9t4b_18dsc_lib_jsonschema6vscode8keywords21allow_trailing_commasNtB4_26AllowTrailingCommasKeywordNtCsdG7205R6am3_8schemars10JsonSchema11schema_name
FNDA:0,_RNvXNtNtNtCs8FPg1R8LBRe_18dsc_lib_jsonschema6vscode8keywords21allow_trailing_commasNtB2_26AllowTrailingCommasKeywordNtNtB4_25vscode_keyword_definition23VSCodeKeywordDefinition15keyword_factory
FNDA:0,_RNvXs0_NtNtNtCs8FPg1R8LBRe_18dsc_lib_jsonschema6vscode8keywords21allow_trailing_commasNtB5_26AllowTrailingCommasKeywordNtNtNtCskyI9PLifvdp_10jsonschema8keywords6custom7Keyword8is_valid
FNDA:0,_RNvXs0_NtNtNtCs8FPg1R8LBRe_18dsc_lib_jsonschema6vscode8keywords21allow_trailing_commasNtB5_26AllowTrailingCommasKeywordNtNtNtCskyI9PLifvdp_10jsonschema8keywords6custom7Keyword8validate
FNDA:0,_RNvXs_NtNtNtCs8FPg1R8LBRe_18dsc_lib_jsonschema6vscode8keywords21allow_trailing_commasNtB4_26AllowTrailingCommasKeywordNtCsdG7205R6am3_8schemars10JsonSchema11json_schema
FNDA:0,_RNvXs_NtNtNtCs8FPg1R8LBRe_18dsc_lib_jsonschema6vscode8keywords21allow_trailing_commasNtB4_26AllowTrailingCommasKeywordNtCsdG7205R6am3_8schemars10JsonSchema11schema_name
FNDA:0,_RNvXs_NtNtNtCs6DmBUIV3MEM_18dsc_lib_jsonschema6vscode8keywords21allow_trailing_commasNtB4_26AllowTrailingCommasKeywordNtCsdG7205R6am3_8schemars10JsonSchema11schema_name
FNDA:2,_RNvXNtNtNtCs6DmBUIV3MEM_18dsc_lib_jsonschema6vscode8keywords21allow_trailing_commasNtB2_26AllowTrailingCommasKeywordNtNtB4_25vscode_keyword_definition23VSCodeKeywordDefinition15keyword_factory
FNDA:0,_RNvXs0_NtNtNtCs6DmBUIV3MEM_18dsc_lib_jsonschema6vscode8keywords21allow_trailing_commasNtB5_26AllowTrailingCommasKeywordNtNtNtCs1pVHw2aflQo_10jsonschema8keywords6custom7Keyword8is_valid
FNDA:0,_RNvXs0_NtNtNtCs6DmBUIV3MEM_18dsc_lib_jsonschema6vscode8keywords21allow_trailing_commasNtB5_26AllowTrailingCommasKeywordNtNtNtCs1pVHw2aflQo_10jsonschema8keywords6custom7Keyword8validate
FNDA:72,_RNvXs_NtNtNtCs6DmBUIV3MEM_18dsc_lib_jsonschema6vscode8keywords21allow_trailing_commasNtB4_26AllowTrailingCommasKeywordNtCsdG7205R6am3_8schemars10JsonSchema11json_schema
FNDA:0,_RNvXs_NtNtNtCs92r3DgzGcjh_18dsc_lib_jsonschema6vscode8keywords21allow_trailing_commasNtB4_26AllowTrailingCommasKeywordNtCsdG7205R6am3_8schemars10JsonSchema11schema_name
FNDA:2,_RNvXNtNtNtCs92r3DgzGcjh_18dsc_lib_jsonschema6vscode8keywords21allow_trailing_commasNtB2_26AllowTrailingCommasKeywordNtNtB4_25vscode_keyword_definition23VSCodeKeywordDefinition15keyword_factory
FNDA:0,_RNvXs0_NtNtNtCs92r3DgzGcjh_18dsc_lib_jsonschema6vscode8keywords21allow_trailing_commasNtB5_26AllowTrailingCommasKeywordNtNtNtCskyI9PLifvdp_10jsonschema8keywords6custom7Keyword8is_valid
FNDA:0,_RNvXs0_NtNtNtCs92r3DgzGcjh_18dsc_lib_jsonschema6vscode8keywords21allow_trailing_commasNtB5_26AllowTrailingCommasKeywordNtNtNtCskyI9PLifvdp_10jsonschema8keywords6custom7Keyword8validate
FNDA:72,_RNvXs_NtNtNtCs92r3DgzGcjh_18dsc_lib_jsonschema6vscode8keywords21allow_trailing_commasNtB4_26AllowTrailingCommasKeywordNtCsdG7205R6am3_8schemars10JsonSchema11json_schema
FNF:5
FNH:2
DA:28,4
DA:29,4
DA:30,4
DA:31,4
DA:32,4
DA:33,4
DA:34,2
DA:36,2
DA:37,2
DA:38,2
DA:39,2
DA:40,2
DA:43,4
DA:47,144
DA:48,144
DA:49,144
DA:50,144
DA:51,144
DA:52,144
DA:53,144
DA:54,144
DA:55,144
DA:57,144
DA:59,0
DA:60,0
DA:61,0
DA:65,0
DA:66,0
DA:67,0
DA:68,0
DA:69,0
DA:70,0
DA:71,0
DA:72,0
DA:73,0
DA:74,0
BRF:0
BRH:0
LF:36
LH:23
end_of_record
SF:/Users/steve/repos/DSC/lib/dsc-lib-jsonschema/src/vscode/keywords/completion_detail.rs
FN:35,_RNvXNtNtNtCse9HBjRuE3ke_18dsc_lib_jsonschema6vscode8keywords17completion_detailNtB2_23CompletionDetailKeywordNtNtB4_25vscode_keyword_definition23VSCodeKeywordDefinition15keyword_factory
FN:78,_RNvXs0_NtNtNtCse9HBjRuE3ke_18dsc_lib_jsonschema6vscode8keywords17completion_detailNtB5_23CompletionDetailKeywordNtNtNtCs1pVHw2aflQo_10jsonschema8keywords6custom7Keyword8is_valid
FN:71,_RNvXs0_NtNtNtCse9HBjRuE3ke_18dsc_lib_jsonschema6vscode8keywords17completion_detailNtB5_23CompletionDetailKeywordNtNtNtCs1pVHw2aflQo_10jsonschema8keywords6custom7Keyword8validate
FN:54,_RNvXs_NtNtNtCse9HBjRuE3ke_18dsc_lib_jsonschema6vscode8keywords17completion_detailNtB4_23CompletionDetailKeywordNtCsdG7205R6am3_8schemars10JsonSchema11json_schema
FN:65,_RNvXs_NtNtNtCse9HBjRuE3ke_18dsc_lib_jsonschema6vscode8keywords17completion_detailNtB4_23CompletionDetailKeywordNtCsdG7205R6am3_8schemars10JsonSchema11schema_name
FN:35,_RNvXNtNtNtCs1p6hG0j9t4b_18dsc_lib_jsonschema6vscode8keywords17completion_detailNtB2_23CompletionDetailKeywordNtNtB4_25vscode_keyword_definition23VSCodeKeywordDefinition15keyword_factory
FN:78,_RNvXs0_NtNtNtCs1p6hG0j9t4b_18dsc_lib_jsonschema6vscode8keywords17completion_detailNtB5_23CompletionDetailKeywordNtNtNtCskyI9PLifvdp_10jsonschema8keywords6custom7Keyword8is_valid
FN:71,_RNvXs0_NtNtNtCs1p6hG0j9t4b_18dsc_lib_jsonschema6vscode8keywords17completion_detailNtB5_23CompletionDetailKeywordNtNtNtCskyI9PLifvdp_10jsonschema8keywords6custom7Keyword8validate
FN:54,_RNvXs_NtNtNtCs1p6hG0j9t4b_18dsc_lib_jsonschema6vscode8keywords17completion_detailNtB4_23CompletionDetailKeywordNtCsdG7205R6am3_8schemars10JsonSchema11json_schema
FN:65,_RNvXs_NtNtNtCs1p6hG0j9t4b_18dsc_lib_jsonschema6vscode8keywords17completion_detailNtB4_23CompletionDetailKeywordNtCsdG7205R6am3_8schemars10JsonSchema11schema_name
FN:35,_RNvXNtNtNtCs8FPg1R8LBRe_18dsc_lib_jsonschema6vscode8keywords17completion_detailNtB2_23CompletionDetailKeywordNtNtB4_25vscode_keyword_definition23VSCodeKeywordDefinition15keyword_factory
FN:78,_RNvXs0_NtNtNtCs8FPg1R8LBRe_18dsc_lib_jsonschema6vscode8keywords17completion_detailNtB5_23CompletionDetailKeywordNtNtNtCskyI9PLifvdp_10jsonschema8keywords6custom7Keyword8is_valid
FN:71,_RNvXs0_NtNtNtCs8FPg1R8LBRe_18dsc_lib_jsonschema6vscode8keywords17completion_detailNtB5_23CompletionDetailKeywordNtNtNtCskyI9PLifvdp_10jsonschema8keywords6custom7Keyword8validate
FN:54,_RNvXs_NtNtNtCs8FPg1R8LBRe_18dsc_lib_jsonschema6vscode8keywords17completion_detailNtB4_23CompletionDetailKeywordNtCsdG7205R6am3_8schemars10JsonSchema11json_schema
FN:65,_RNvXs_NtNtNtCs8FPg1R8LBRe_18dsc_lib_jsonschema6vscode8keywords17completion_detailNtB4_23CompletionDetailKeywordNtCsdG7205R6am3_8schemars10JsonSchema11schema_name
FN:65,_RNvXs_NtNtNtCs6DmBUIV3MEM_18dsc_lib_jsonschema6vscode8keywords17completion_detailNtB4_23CompletionDetailKeywordNtCsdG7205R6am3_8schemars10JsonSchema11schema_name
FN:35,_RNvXNtNtNtCs6DmBUIV3MEM_18dsc_lib_jsonschema6vscode8keywords17completion_detailNtB2_23CompletionDetailKeywordNtNtB4_25vscode_keyword_definition23VSCodeKeywordDefinition15keyword_factory
FN:78,_RNvXs0_NtNtNtCs6DmBUIV3MEM_18dsc_lib_jsonschema6vscode8keywords17completion_detailNtB5_23CompletionDetailKeywordNtNtNtCs1pVHw2aflQo_10jsonschema8keywords6custom7Keyword8is_valid
FN:71,_RNvXs0_NtNtNtCs6DmBUIV3MEM_18dsc_lib_jsonschema6vscode8keywords17completion_detailNtB5_23CompletionDetailKeywordNtNtNtCs1pVHw2aflQo_10jsonschema8keywords6custom7Keyword8validate
FN:54,_RNvXs_NtNtNtCs6DmBUIV3MEM_18dsc_lib_jsonschema6vscode8keywords17completion_detailNtB4_23CompletionDetailKeywordNtCsdG7205R6am3_8schemars10JsonSchema11json_schema
FN:65,_RNvXs_NtNtNtCs92r3DgzGcjh_18dsc_lib_jsonschema6vscode8keywords17completion_detailNtB4_23CompletionDetailKeywordNtCsdG7205R6am3_8schemars10JsonSchema11schema_name
FN:35,_RNvXNtNtNtCs92r3DgzGcjh_18dsc_lib_jsonschema6vscode8keywords17completion_detailNtB2_23CompletionDetailKeywordNtNtB4_25vscode_keyword_definition23VSCodeKeywordDefinition15keyword_factory
FN:78,_RNvXs0_NtNtNtCs92r3DgzGcjh_18dsc_lib_jsonschema6vscode8keywords17completion_detailNtB5_23CompletionDetailKeywordNtNtNtCskyI9PLifvdp_10jsonschema8keywords6custom7Keyword8is_valid
FN:71,_RNvXs0_NtNtNtCs92r3DgzGcjh_18dsc_lib_jsonschema6vscode8keywords17completion_detailNtB5_23CompletionDetailKeywordNtNtNtCskyI9PLifvdp_10jsonschema8keywords6custom7Keyword8validate
FN:54,_RNvXs_NtNtNtCs92r3DgzGcjh_18dsc_lib_jsonschema6vscode8keywords17completion_detailNtB4_23CompletionDetailKeywordNtCsdG7205R6am3_8schemars10JsonSchema11json_schema
FNDA:0,_RNvXNtNtNtCse9HBjRuE3ke_18dsc_lib_jsonschema6vscode8keywords17completion_detailNtB2_23CompletionDetailKeywordNtNtB4_25vscode_keyword_definition23VSCodeKeywordDefinition15keyword_factory
FNDA:0,_RNvXs0_NtNtNtCse9HBjRuE3ke_18dsc_lib_jsonschema6vscode8keywords17completion_detailNtB5_23CompletionDetailKeywordNtNtNtCs1pVHw2aflQo_10jsonschema8keywords6custom7Keyword8is_valid
FNDA:0,_RNvXs0_NtNtNtCse9HBjRuE3ke_18dsc_lib_jsonschema6vscode8keywords17completion_detailNtB5_23CompletionDetailKeywordNtNtNtCs1pVHw2aflQo_10jsonschema8keywords6custom7Keyword8validate
FNDA:0,_RNvXs_NtNtNtCse9HBjRuE3ke_18dsc_lib_jsonschema6vscode8keywords17completion_detailNtB4_23CompletionDetailKeywordNtCsdG7205R6am3_8schemars10JsonSchema11json_schema
FNDA:0,_RNvXs_NtNtNtCse9HBjRuE3ke_18dsc_lib_jsonschema6vscode8keywords17completion_detailNtB4_23CompletionDetailKeywordNtCsdG7205R6am3_8schemars10JsonSchema11schema_name
FNDA:0,_RNvXNtNtNtCs1p6hG0j9t4b_18dsc_lib_jsonschema6vscode8keywords17completion_detailNtB2_23CompletionDetailKeywordNtNtB4_25vscode_keyword_definition23VSCodeKeywordDefinition15keyword_factory
FNDA:0,_RNvXs0_NtNtNtCs1p6hG0j9t4b_18dsc_lib_jsonschema6vscode8keywords17completion_detailNtB5_23CompletionDetailKeywordNtNtNtCskyI9PLifvdp_10jsonschema8keywords6custom7Keyword8is_valid
FNDA:0,_RNvXs0_NtNtNtCs1p6hG0j9t4b_18dsc_lib_jsonschema6vscode8keywords17completion_detailNtB5_23CompletionDetailKeywordNtNtNtCskyI9PLifvdp_10jsonschema8keywords6custom7Keyword8validate
FNDA:0,_RNvXs_NtNtNtCs1p6hG0j9t4b_18dsc_lib_jsonschema6vscode8keywords17completion_detailNtB4_23CompletionDetailKeywordNtCsdG7205R6am3_8schemars10JsonSchema11json_schema
FNDA:0,_RNvXs_NtNtNtCs1p6hG0j9t4b_18dsc_lib_jsonschema6vscode8keywords17completion_detailNtB4_23CompletionDetailKeywordNtCsdG7205R6am3_8schemars10JsonSchema11schema_name
FNDA:0,_RNvXNtNtNtCs8FPg1R8LBRe_18dsc_lib_jsonschema6vscode8keywords17completion_detailNtB2_23CompletionDetailKeywordNtNtB4_25vscode_keyword_definition23VSCodeKeywordDefinition15keyword_factory
FNDA:0,_RNvXs0_NtNtNtCs8FPg1R8LBRe_18dsc_lib_jsonschema6vscode8keywords17completion_detailNtB5_23CompletionDetailKeywordNtNtNtCskyI9PLifvdp_10jsonschema8keywords6custom7Keyword8is_valid
FNDA:0,_RNvXs0_NtNtNtCs8FPg1R8LBRe_18dsc_lib_jsonschema6vscode8keywords17completion_detailNtB5_23CompletionDetailKeywordNtNtNtCskyI9PLifvdp_10jsonschema8keywords6custom7Keyword8validate
FNDA:0,_RNvXs_NtNtNtCs8FPg1R8LBRe_18dsc_lib_jsonschema6vscode8keywords17completion_detailNtB4_23CompletionDetailKeywordNtCsdG7205R6am3_8schemars10JsonSchema11json_schema
FNDA:0,_RNvXs_NtNtNtCs8FPg1R8LBRe_18dsc_lib_jsonschema6vscode8keywords17completion_detailNtB4_23CompletionDetailKeywordNtCsdG7205R6am3_8schemars10JsonSchema11schema_name
FNDA:0,_RNvXs_NtNtNtCs6DmBUIV3MEM_18dsc_lib_jsonschema6vscode8keywords17completion_detailNtB4_23CompletionDetailKeywordNtCsdG7205R6am3_8schemars10JsonSchema11schema_name
FNDA:2,_RNvXNtNtNtCs6DmBUIV3MEM_18dsc_lib_jsonschema6vscode8keywords17completion_detailNtB2_23CompletionDetailKeywordNtNtB4_25vscode_keyword_definition23VSCodeKeywordDefinition15keyword_factory
FNDA:0,_RNvXs0_NtNtNtCs6DmBUIV3MEM_18dsc_lib_jsonschema6vscode8keywords17completion_detailNtB5_23CompletionDetailKeywordNtNtNtCs1pVHw2aflQo_10jsonschema8keywords6custom7Keyword8is_valid
FNDA:0,_RNvXs0_NtNtNtCs6DmBUIV3MEM_18dsc_lib_jsonschema6vscode8keywords17completion_detailNtB5_23CompletionDetailKeywordNtNtNtCs1pVHw2aflQo_10jsonschema8keywords6custom7Keyword8validate
FNDA:76,_RNvXs_NtNtNtCs6DmBUIV3MEM_18dsc_lib_jsonschema6vscode8keywords17completion_detailNtB4_23CompletionDetailKeywordNtCsdG7205R6am3_8schemars10JsonSchema11json_schema
FNDA:0,_RNvXs_NtNtNtCs92r3DgzGcjh_18dsc_lib_jsonschema6vscode8keywords17completion_detailNtB4_23CompletionDetailKeywordNtCsdG7205R6am3_8schemars10JsonSchema11schema_name
FNDA:2,_RNvXNtNtNtCs92r3DgzGcjh_18dsc_lib_jsonschema6vscode8keywords17completion_detailNtB2_23CompletionDetailKeywordNtNtB4_25vscode_keyword_definition23VSCodeKeywordDefinition15keyword_factory
FNDA:0,_RNvXs0_NtNtNtCs92r3DgzGcjh_18dsc_lib_jsonschema6vscode8keywords17completion_detailNtB5_23CompletionDetailKeywordNtNtNtCskyI9PLifvdp_10jsonschema8keywords6custom7Keyword8is_valid
FNDA:0,_RNvXs0_NtNtNtCs92r3DgzGcjh_18dsc_lib_jsonschema6vscode8keywords17completion_detailNtB5_23CompletionDetailKeywordNtNtNtCskyI9PLifvdp_10jsonschema8keywords6custom7Keyword8validate
FNDA:76,_RNvXs_NtNtNtCs92r3DgzGcjh_18dsc_lib_jsonschema6vscode8keywords17completion_detailNtB4_23CompletionDetailKeywordNtCsdG7205R6am3_8schemars10JsonSchema11json_schema
FNF:5
FNH:2
DA:35,4
DA:36,4
DA:37,4
DA:38,4
DA:39,4
DA:40,4
DA:41,2
DA:43,2
DA:44,2
DA:45,2
DA:46,2
DA:47,2
DA:50,4
DA:54,152
DA:55,152
DA:56,152
DA:57,152
DA:58,152
DA:59,152
DA:60,152
DA:61,152
DA:63,152
DA:65,0
DA:66,0
DA:67,0
DA:71,0
DA:72,0
DA:73,0
DA:74,0
DA:75,0
DA:76,0
DA:77,0
DA:78,0
DA:79,0
DA:80,0
BRF:0
BRH:0
LF:35
LH:22
end_of_record
SF:/Users/steve/repos/DSC/lib/dsc-lib-jsonschema/src/vscode/keywords/default_snippets.rs
FN:109,_RNvMNtNtNtCse9HBjRuE3ke_18dsc_lib_jsonschema6vscode8keywords16default_snippetsNtB2_22DefaultSnippetsKeyword3new
FN:165,_RNvXs0_NtNtNtCse9HBjRuE3ke_18dsc_lib_jsonschema6vscode8keywords16default_snippetsNtB5_22DefaultSnippetsKeywordNtCsdG7205R6am3_8schemars10JsonSchema11json_schema
FN:215,_RNvXs0_NtNtNtCse9HBjRuE3ke_18dsc_lib_jsonschema6vscode8keywords16default_snippetsNtB5_22DefaultSnippetsKeywordNtCsdG7205R6am3_8schemars10JsonSchema11schema_name
FN:228,_RNvXs1_NtNtNtCse9HBjRuE3ke_18dsc_lib_jsonschema6vscode8keywords16default_snippetsNtB5_22DefaultSnippetsKeywordNtNtNtCs1pVHw2aflQo_10jsonschema8keywords6custom7Keyword8is_valid
FN:221,_RNvXs1_NtNtNtCse9HBjRuE3ke_18dsc_lib_jsonschema6vscode8keywords16default_snippetsNtB5_22DefaultSnippetsKeywordNtNtNtCs1pVHw2aflQo_10jsonschema8keywords6custom7Keyword8validate
FN:240,_RNvXs3_NtNtNtCse9HBjRuE3ke_18dsc_lib_jsonschema6vscode8keywords16default_snippetsNtB5_22DefaultSnippetsKeywordINtNtCsitGFVNq7Ifu_4core7convert4FromINtNtCsdBofyk9Yr2t_5alloc3vec3VecNtB5_7SnippetEE4from
FN:118,_RNvXs_NtNtNtCse9HBjRuE3ke_18dsc_lib_jsonschema6vscode8keywords16default_snippetsNtB4_22DefaultSnippetsKeywordNtNtB6_25vscode_keyword_definition23VSCodeKeywordDefinition15keyword_factory
FN:124,_RNCNvXs_NtNtNtCse9HBjRuE3ke_18dsc_lib_jsonschema6vscode8keywords16default_snippetsNtB6_22DefaultSnippetsKeywordNtNtB8_25vscode_keyword_definition23VSCodeKeywordDefinition15keyword_factory0Bc_
FN:234,_RNvXs2_NtNtNtCse9HBjRuE3ke_18dsc_lib_jsonschema6vscode8keywords16default_snippetsINtNtCsdBofyk9Yr2t_5alloc3vec3VecNtB5_7SnippetEINtNtCsitGFVNq7Ifu_4core7convert4FromNtB5_22DefaultSnippetsKeywordE4from
FN:109,_RNvMNtNtNtCs1p6hG0j9t4b_18dsc_lib_jsonschema6vscode8keywords16default_snippetsNtB2_22DefaultSnippetsKeyword3new
FN:165,_RNvXs0_NtNtNtCs1p6hG0j9t4b_18dsc_lib_jsonschema6vscode8keywords16default_snippetsNtB5_22DefaultSnippetsKeywordNtCsdG7205R6am3_8schemars10JsonSchema11json_schema
FN:215,_RNvXs0_NtNtNtCs1p6hG0j9t4b_18dsc_lib_jsonschema6vscode8keywords16default_snippetsNtB5_22DefaultSnippetsKeywordNtCsdG7205R6am3_8schemars10JsonSchema11schema_name
FN:228,_RNvXs1_NtNtNtCs1p6hG0j9t4b_18dsc_lib_jsonschema6vscode8keywords16default_snippetsNtB5_22DefaultSnippetsKeywordNtNtNtCskyI9PLifvdp_10jsonschema8keywords6custom7Keyword8is_valid
FN:221,_RNvXs1_NtNtNtCs1p6hG0j9t4b_18dsc_lib_jsonschema6vscode8keywords16default_snippetsNtB5_22DefaultSnippetsKeywordNtNtNtCskyI9PLifvdp_10jsonschema8keywords6custom7Keyword8validate
FN:240,_RNvXs3_NtNtNtCs1p6hG0j9t4b_18dsc_lib_jsonschema6vscode8keywords16default_snippetsNtB5_22DefaultSnippetsKeywordINtNtCsitGFVNq7Ifu_4core7convert4FromINtNtCsdBofyk9Yr2t_5alloc3vec3VecNtB5_7SnippetEE4from
FN:118,_RNvXs_NtNtNtCs1p6hG0j9t4b_18dsc_lib_jsonschema6vscode8keywords16default_snippetsNtB4_22DefaultSnippetsKeywordNtNtB6_25vscode_keyword_definition23VSCodeKeywordDefinition15keyword_factory
FN:124,_RNCNvXs_NtNtNtCs1p6hG0j9t4b_18dsc_lib_jsonschema6vscode8keywords16default_snippetsNtB6_22DefaultSnippetsKeywordNtNtB8_25vscode_keyword_definition23VSCodeKeywordDefinition15keyword_factory0Bc_
FN:234,_RNvXs2_NtNtNtCs1p6hG0j9t4b_18dsc_lib_jsonschema6vscode8keywords16default_snippetsINtNtCsdBofyk9Yr2t_5alloc3vec3VecNtB5_7SnippetEINtNtCsitGFVNq7Ifu_4core7convert4FromNtB5_22DefaultSnippetsKeywordE4from
FN:109,_RNvMNtNtNtCs8FPg1R8LBRe_18dsc_lib_jsonschema6vscode8keywords16default_snippetsNtB2_22DefaultSnippetsKeyword3new
FN:165,_RNvXs0_NtNtNtCs8FPg1R8LBRe_18dsc_lib_jsonschema6vscode8keywords16default_snippetsNtB5_22DefaultSnippetsKeywordNtCsdG7205R6am3_8schemars10JsonSchema11json_schema
FN:215,_RNvXs0_NtNtNtCs8FPg1R8LBRe_18dsc_lib_jsonschema6vscode8keywords16default_snippetsNtB5_22DefaultSnippetsKeywordNtCsdG7205R6am3_8schemars10JsonSchema11schema_name
FN:228,_RNvXs1_NtNtNtCs8FPg1R8LBRe_18dsc_lib_jsonschema6vscode8keywords16default_snippetsNtB5_22DefaultSnippetsKeywordNtNtNtCskyI9PLifvdp_10jsonschema8keywords6custom7Keyword8is_valid
FN:221,_RNvXs1_NtNtNtCs8FPg1R8LBRe_18dsc_lib_jsonschema6vscode8keywords16default_snippetsNtB5_22DefaultSnippetsKeywordNtNtNtCskyI9PLifvdp_10jsonschema8keywords6custom7Keyword8validate
FN:240,_RNvXs3_NtNtNtCs8FPg1R8LBRe_18dsc_lib_jsonschema6vscode8keywords16default_snippetsNtB5_22DefaultSnippetsKeywordINtNtCsitGFVNq7Ifu_4core7convert4FromINtNtCsdBofyk9Yr2t_5alloc3vec3VecNtB5_7SnippetEE4from
FN:118,_RNvXs_NtNtNtCs8FPg1R8LBRe_18dsc_lib_jsonschema6vscode8keywords16default_snippetsNtB4_22DefaultSnippetsKeywordNtNtB6_25vscode_keyword_definition23VSCodeKeywordDefinition15keyword_factory
FN:234,_RNvXs2_NtNtNtCs8FPg1R8LBRe_18dsc_lib_jsonschema6vscode8keywords16default_snippetsINtNtCsdBofyk9Yr2t_5alloc3vec3VecNtB5_7SnippetEINtNtCsitGFVNq7Ifu_4core7convert4FromNtB5_22DefaultSnippetsKeywordE4from
FN:124,_RNCNvXs_NtNtNtCs8FPg1R8LBRe_18dsc_lib_jsonschema6vscode8keywords16default_snippetsNtB6_22DefaultSnippetsKeywordNtNtB8_25vscode_keyword_definition23VSCodeKeywordDefinition15keyword_factory0Bc_
FN:165,_RNvXs0_NtNtNtCs6DmBUIV3MEM_18dsc_lib_jsonschema6vscode8keywords16default_snippetsNtB5_22DefaultSnippetsKeywordNtCsdG7205R6am3_8schemars10JsonSchema11json_schema
FN:228,_RNvXs1_NtNtNtCs6DmBUIV3MEM_18dsc_lib_jsonschema6vscode8keywords16default_snippetsNtB5_22DefaultSnippetsKeywordNtNtNtCs1pVHw2aflQo_10jsonschema8keywords6custom7Keyword8is_valid
FN:221,_RNvXs1_NtNtNtCs6DmBUIV3MEM_18dsc_lib_jsonschema6vscode8keywords16default_snippetsNtB5_22DefaultSnippetsKeywordNtNtNtCs1pVHw2aflQo_10jsonschema8keywords6custom7Keyword8validate
FN:118,_RNvXs_NtNtNtCs6DmBUIV3MEM_18dsc_lib_jsonschema6vscode8keywords16default_snippetsNtB4_22DefaultSnippetsKeywordNtNtB6_25vscode_keyword_definition23VSCodeKeywordDefinition15keyword_factory
FN:109,_RNvMNtNtNtCs6DmBUIV3MEM_18dsc_lib_jsonschema6vscode8keywords16default_snippetsNtB2_22DefaultSnippetsKeyword3new
FN:215,_RNvXs0_NtNtNtCs6DmBUIV3MEM_18dsc_lib_jsonschema6vscode8keywords16default_snippetsNtB5_22DefaultSnippetsKeywordNtCsdG7205R6am3_8schemars10JsonSchema11schema_name
FN:234,_RNvXs2_NtNtNtCs6DmBUIV3MEM_18dsc_lib_jsonschema6vscode8keywords16default_snippetsINtNtCsdBofyk9Yr2t_5alloc3vec3VecNtB5_7SnippetEINtNtCsitGFVNq7Ifu_4core7convert4FromNtB5_22DefaultSnippetsKeywordE4from
FN:240,_RNvXs3_NtNtNtCs6DmBUIV3MEM_18dsc_lib_jsonschema6vscode8keywords16default_snippetsNtB5_22DefaultSnippetsKeywordINtNtCsitGFVNq7Ifu_4core7convert4FromINtNtCsdBofyk9Yr2t_5alloc3vec3VecNtB5_7SnippetEE4from
FN:124,_RNCNvXs_NtNtNtCs6DmBUIV3MEM_18dsc_lib_jsonschema6vscode8keywords16default_snippetsNtB6_22DefaultSnippetsKeywordNtNtB8_25vscode_keyword_definition23VSCodeKeywordDefinition15keyword_factory0Bc_
FN:109,_RNvMNtNtNtCs92r3DgzGcjh_18dsc_lib_jsonschema6vscode8keywords16default_snippetsNtB2_22DefaultSnippetsKeyword3new
FN:215,_RNvXs0_NtNtNtCs92r3DgzGcjh_18dsc_lib_jsonschema6vscode8keywords16default_snippetsNtB5_22DefaultSnippetsKeywordNtCsdG7205R6am3_8schemars10JsonSchema11schema_name
FN:234,_RNvXs2_NtNtNtCs92r3DgzGcjh_18dsc_lib_jsonschema6vscode8keywords16default_snippetsINtNtCsdBofyk9Yr2t_5alloc3vec3VecNtB5_7SnippetEINtNtCsitGFVNq7Ifu_4core7convert4FromNtB5_22DefaultSnippetsKeywordE4from
FN:240,_RNvXs3_NtNtNtCs92r3DgzGcjh_18dsc_lib_jsonschema6vscode8keywords16default_snippetsNtB5_22DefaultSnippetsKeywordINtNtCsitGFVNq7Ifu_4core7convert4FromINtNtCsdBofyk9Yr2t_5alloc3vec3VecNtB5_7SnippetEE4from
FN:124,_RNCNvXs_NtNtNtCs92r3DgzGcjh_18dsc_lib_jsonschema6vscode8keywords16default_snippetsNtB6_22DefaultSnippetsKeywordNtNtB8_25vscode_keyword_definition23VSCodeKeywordDefinition15keyword_factory0Bc_
FN:165,_RNvXs0_NtNtNtCs92r3DgzGcjh_18dsc_lib_jsonschema6vscode8keywords16default_snippetsNtB5_22DefaultSnippetsKeywordNtCsdG7205R6am3_8schemars10JsonSchema11json_schema
FN:228,_RNvXs1_NtNtNtCs92r3DgzGcjh_18dsc_lib_jsonschema6vscode8keywords16default_snippetsNtB5_22DefaultSnippetsKeywordNtNtNtCskyI9PLifvdp_10jsonschema8keywords6custom7Keyword8is_valid
FN:221,_RNvXs1_NtNtNtCs92r3DgzGcjh_18dsc_lib_jsonschema6vscode8keywords16default_snippetsNtB5_22DefaultSnippetsKeywordNtNtNtCskyI9PLifvdp_10jsonschema8keywords6custom7Keyword8validate
FN:118,_RNvXs_NtNtNtCs92r3DgzGcjh_18dsc_lib_jsonschema6vscode8keywords16default_snippetsNtB4_22DefaultSnippetsKeywordNtNtB6_25vscode_keyword_definition23VSCodeKeywordDefinition15keyword_factory
FNDA:0,_RNvMNtNtNtCse9HBjRuE3ke_18dsc_lib_jsonschema6vscode8keywords16default_snippetsNtB2_22DefaultSnippetsKeyword3new
FNDA:0,_RNvXs0_NtNtNtCse9HBjRuE3ke_18dsc_lib_jsonschema6vscode8keywords16default_snippetsNtB5_22DefaultSnippetsKeywordNtCsdG7205R6am3_8schemars10JsonSchema11json_schema
FNDA:0,_RNvXs0_NtNtNtCse9HBjRuE3ke_18dsc_lib_jsonschema6vscode8keywords16default_snippetsNtB5_22DefaultSnippetsKeywordNtCsdG7205R6am3_8schemars10JsonSchema11schema_name
FNDA:0,_RNvXs1_NtNtNtCse9HBjRuE3ke_18dsc_lib_jsonschema6vscode8keywords16default_snippetsNtB5_22DefaultSnippetsKeywordNtNtNtCs1pVHw2aflQo_10jsonschema8keywords6custom7Keyword8is_valid
FNDA:0,_RNvXs1_NtNtNtCse9HBjRuE3ke_18dsc_lib_jsonschema6vscode8keywords16default_snippetsNtB5_22DefaultSnippetsKeywordNtNtNtCs1pVHw2aflQo_10jsonschema8keywords6custom7Keyword8validate
FNDA:0,_RNvXs3_NtNtNtCse9HBjRuE3ke_18dsc_lib_jsonschema6vscode8keywords16default_snippetsNtB5_22DefaultSnippetsKeywordINtNtCsitGFVNq7Ifu_4core7convert4FromINtNtCsdBofyk9Yr2t_5alloc3vec3VecNtB5_7SnippetEE4from
FNDA:0,_RNvXs_NtNtNtCse9HBjRuE3ke_18dsc_lib_jsonschema6vscode8keywords16default_snippetsNtB4_22DefaultSnippetsKeywordNtNtB6_25vscode_keyword_definition23VSCodeKeywordDefinition15keyword_factory
FNDA:0,_RNCNvXs_NtNtNtCse9HBjRuE3ke_18dsc_lib_jsonschema6vscode8keywords16default_snippetsNtB6_22DefaultSnippetsKeywordNtNtB8_25vscode_keyword_definition23VSCodeKeywordDefinition15keyword_factory0Bc_
FNDA:0,_RNvXs2_NtNtNtCse9HBjRuE3ke_18dsc_lib_jsonschema6vscode8keywords16default_snippetsINtNtCsdBofyk9Yr2t_5alloc3vec3VecNtB5_7SnippetEINtNtCsitGFVNq7Ifu_4core7convert4FromNtB5_22DefaultSnippetsKeywordE4from
FNDA:0,_RNvMNtNtNtCs1p6hG0j9t4b_18dsc_lib_jsonschema6vscode8keywords16default_snippetsNtB2_22DefaultSnippetsKeyword3new
FNDA:0,_RNvXs0_NtNtNtCs1p6hG0j9t4b_18dsc_lib_jsonschema6vscode8keywords16default_snippetsNtB5_22DefaultSnippetsKeywordNtCsdG7205R6am3_8schemars10JsonSchema11json_schema
FNDA:0,_RNvXs0_NtNtNtCs1p6hG0j9t4b_18dsc_lib_jsonschema6vscode8keywords16default_snippetsNtB5_22DefaultSnippetsKeywordNtCsdG7205R6am3_8schemars10JsonSchema11schema_name
FNDA:0,_RNvXs1_NtNtNtCs1p6hG0j9t4b_18dsc_lib_jsonschema6vscode8keywords16default_snippetsNtB5_22DefaultSnippetsKeywordNtNtNtCskyI9PLifvdp_10jsonschema8keywords6custom7Keyword8is_valid
FNDA:0,_RNvXs1_NtNtNtCs1p6hG0j9t4b_18dsc_lib_jsonschema6vscode8keywords16default_snippetsNtB5_22DefaultSnippetsKeywordNtNtNtCskyI9PLifvdp_10jsonschema8keywords6custom7Keyword8validate
FNDA:0,_RNvXs3_NtNtNtCs1p6hG0j9t4b_18dsc_lib_jsonschema6vscode8keywords16default_snippetsNtB5_22DefaultSnippetsKeywordINtNtCsitGFVNq7Ifu_4core7convert4FromINtNtCsdBofyk9Yr2t_5alloc3vec3VecNtB5_7SnippetEE4from
FNDA:0,_RNvXs_NtNtNtCs1p6hG0j9t4b_18dsc_lib_jsonschema6vscode8keywords16default_snippetsNtB4_22DefaultSnippetsKeywordNtNtB6_25vscode_keyword_definition23VSCodeKeywordDefinition15keyword_factory
FNDA:0,_RNCNvXs_NtNtNtCs1p6hG0j9t4b_18dsc_lib_jsonschema6vscode8keywords16default_snippetsNtB6_22DefaultSnippetsKeywordNtNtB8_25vscode_keyword_definition23VSCodeKeywordDefinition15keyword_factory0Bc_
FNDA:0,_RNvXs2_NtNtNtCs1p6hG0j9t4b_18dsc_lib_jsonschema6vscode8keywords16default_snippetsINtNtCsdBofyk9Yr2t_5alloc3vec3VecNtB5_7SnippetEINtNtCsitGFVNq7Ifu_4core7convert4FromNtB5_22DefaultSnippetsKeywordE4from
FNDA:0,_RNvMNtNtNtCs8FPg1R8LBRe_18dsc_lib_jsonschema6vscode8keywords16default_snippetsNtB2_22DefaultSnippetsKeyword3new
FNDA:0,_RNvXs0_NtNtNtCs8FPg1R8LBRe_18dsc_lib_jsonschema6vscode8keywords16default_snippetsNtB5_22DefaultSnippetsKeywordNtCsdG7205R6am3_8schemars10JsonSchema11json_schema
FNDA:0,_RNvXs0_NtNtNtCs8FPg1R8LBRe_18dsc_lib_jsonschema6vscode8keywords16default_snippetsNtB5_22DefaultSnippetsKeywordNtCsdG7205R6am3_8schemars10JsonSchema11schema_name
FNDA:0,_RNvXs1_NtNtNtCs8FPg1R8LBRe_18dsc_lib_jsonschema6vscode8keywords16default_snippetsNtB5_22DefaultSnippetsKeywordNtNtNtCskyI9PLifvdp_10jsonschema8keywords6custom7Keyword8is_valid
FNDA:0,_RNvXs1_NtNtNtCs8FPg1R8LBRe_18dsc_lib_jsonschema6vscode8keywords16default_snippetsNtB5_22DefaultSnippetsKeywordNtNtNtCskyI9PLifvdp_10jsonschema8keywords6custom7Keyword8validate
FNDA:0,_RNvXs3_NtNtNtCs8FPg1R8LBRe_18dsc_lib_jsonschema6vscode8keywords16default_snippetsNtB5_22DefaultSnippetsKeywordINtNtCsitGFVNq7Ifu_4core7convert4FromINtNtCsdBofyk9Yr2t_5alloc3vec3VecNtB5_7SnippetEE4from
FNDA:0,_RNvXs_NtNtNtCs8FPg1R8LBRe_18dsc_lib_jsonschema6vscode8keywords16default_snippetsNtB4_22DefaultSnippetsKeywordNtNtB6_25vscode_keyword_definition23VSCodeKeywordDefinition15keyword_factory
FNDA:0,_RNvXs2_NtNtNtCs8FPg1R8LBRe_18dsc_lib_jsonschema6vscode8keywords16default_snippetsINtNtCsdBofyk9Yr2t_5alloc3vec3VecNtB5_7SnippetEINtNtCsitGFVNq7Ifu_4core7convert4FromNtB5_22DefaultSnippetsKeywordE4from
FNDA:0,_RNCNvXs_NtNtNtCs8FPg1R8LBRe_18dsc_lib_jsonschema6vscode8keywords16default_snippetsNtB6_22DefaultSnippetsKeywordNtNtB8_25vscode_keyword_definition23VSCodeKeywordDefinition15keyword_factory0Bc_
FNDA:76,_RNvXs0_NtNtNtCs6DmBUIV3MEM_18dsc_lib_jsonschema6vscode8keywords16default_snippetsNtB5_22DefaultSnippetsKeywordNtCsdG7205R6am3_8schemars10JsonSchema11json_schema
FNDA:0,_RNvXs1_NtNtNtCs6DmBUIV3MEM_18dsc_lib_jsonschema6vscode8keywords16default_snippetsNtB5_22DefaultSnippetsKeywordNtNtNtCs1pVHw2aflQo_10jsonschema8keywords6custom7Keyword8is_valid
FNDA:0,_RNvXs1_NtNtNtCs6DmBUIV3MEM_18dsc_lib_jsonschema6vscode8keywords16default_snippetsNtB5_22DefaultSnippetsKeywordNtNtNtCs1pVHw2aflQo_10jsonschema8keywords6custom7Keyword8validate
FNDA:5,_RNvXs_NtNtNtCs6DmBUIV3MEM_18dsc_lib_jsonschema6vscode8keywords16default_snippetsNtB4_22DefaultSnippetsKeywordNtNtB6_25vscode_keyword_definition23VSCodeKeywordDefinition15keyword_factory
FNDA:0,_RNvMNtNtNtCs6DmBUIV3MEM_18dsc_lib_jsonschema6vscode8keywords16default_snippetsNtB2_22DefaultSnippetsKeyword3new
FNDA:0,_RNvXs0_NtNtNtCs6DmBUIV3MEM_18dsc_lib_jsonschema6vscode8keywords16default_snippetsNtB5_22DefaultSnippetsKeywordNtCsdG7205R6am3_8schemars10JsonSchema11schema_name
FNDA:0,_RNvXs2_NtNtNtCs6DmBUIV3MEM_18dsc_lib_jsonschema6vscode8keywords16default_snippetsINtNtCsdBofyk9Yr2t_5alloc3vec3VecNtB5_7SnippetEINtNtCsitGFVNq7Ifu_4core7convert4FromNtB5_22DefaultSnippetsKeywordE4from
FNDA:0,_RNvXs3_NtNtNtCs6DmBUIV3MEM_18dsc_lib_jsonschema6vscode8keywords16default_snippetsNtB5_22DefaultSnippetsKeywordINtNtCsitGFVNq7Ifu_4core7convert4FromINtNtCsdBofyk9Yr2t_5alloc3vec3VecNtB5_7SnippetEE4from
FNDA:7,_RNCNvXs_NtNtNtCs6DmBUIV3MEM_18dsc_lib_jsonschema6vscode8keywords16default_snippetsNtB6_22DefaultSnippetsKeywordNtNtB8_25vscode_keyword_definition23VSCodeKeywordDefinition15keyword_factory0Bc_
FNDA:0,_RNvMNtNtNtCs92r3DgzGcjh_18dsc_lib_jsonschema6vscode8keywords16default_snippetsNtB2_22DefaultSnippetsKeyword3new
FNDA:0,_RNvXs0_NtNtNtCs92r3DgzGcjh_18dsc_lib_jsonschema6vscode8keywords16default_snippetsNtB5_22DefaultSnippetsKeywordNtCsdG7205R6am3_8schemars10JsonSchema11schema_name
FNDA:0,_RNvXs2_NtNtNtCs92r3DgzGcjh_18dsc_lib_jsonschema6vscode8keywords16default_snippetsINtNtCsdBofyk9Yr2t_5alloc3vec3VecNtB5_7SnippetEINtNtCsitGFVNq7Ifu_4core7convert4FromNtB5_22DefaultSnippetsKeywordE4from
FNDA:0,_RNvXs3_NtNtNtCs92r3DgzGcjh_18dsc_lib_jsonschema6vscode8keywords16default_snippetsNtB5_22DefaultSnippetsKeywordINtNtCsitGFVNq7Ifu_4core7convert4FromINtNtCsdBofyk9Yr2t_5alloc3vec3VecNtB5_7SnippetEE4from
FNDA:7,_RNCNvXs_NtNtNtCs92r3DgzGcjh_18dsc_lib_jsonschema6vscode8keywords16default_snippetsNtB6_22DefaultSnippetsKeywordNtNtB8_25vscode_keyword_definition23VSCodeKeywordDefinition15keyword_factory0Bc_
FNDA:76,_RNvXs0_NtNtNtCs92r3DgzGcjh_18dsc_lib_jsonschema6vscode8keywords16default_snippetsNtB5_22DefaultSnippetsKeywordNtCsdG7205R6am3_8schemars10JsonSchema11json_schema
FNDA:0,_RNvXs1_NtNtNtCs92r3DgzGcjh_18dsc_lib_jsonschema6vscode8keywords16default_snippetsNtB5_22DefaultSnippetsKeywordNtNtNtCskyI9PLifvdp_10jsonschema8keywords6custom7Keyword8is_valid
FNDA:0,_RNvXs1_NtNtNtCs92r3DgzGcjh_18dsc_lib_jsonschema6vscode8keywords16default_snippetsNtB5_22DefaultSnippetsKeywordNtNtNtCskyI9PLifvdp_10jsonschema8keywords6custom7Keyword8validate
FNDA:5,_RNvXs_NtNtNtCs92r3DgzGcjh_18dsc_lib_jsonschema6vscode8keywords16default_snippetsNtB4_22DefaultSnippetsKeywordNtNtB6_25vscode_keyword_definition23VSCodeKeywordDefinition15keyword_factory
FNF:9
FNH:3
DA:109,0
DA:110,0
DA:111,0
DA:118,10
DA:119,10
DA:120,10
DA:121,10
DA:122,10
DA:123,10
DA:124,14
DA:125,2
DA:126,2
DA:127,2
DA:128,2
DA:129,2
DA:131,2
DA:132,2
DA:135,6
DA:136,2
DA:138,4
DA:139,4
DA:140,4
DA:141,4
DA:142,4
DA:144,4
DA:145,4
DA:150,2
DA:151,2
DA:152,2
DA:153,2
DA:154,2
DA:156,2
DA:157,2
DA:161,10
DA:165,152
DA:166,152
DA:167,152
DA:168,152
DA:169,152
DA:170,152
DA:171,152
DA:172,152
DA:173,152
DA:174,152
DA:175,152
DA:176,152
DA:177,152
DA:178,152
DA:179,152
DA:180,152
DA:181,152
DA:182,152
DA:183,152
DA:184,152
DA:185,152
DA:187,152
DA:188,152
DA:189,152
DA:190,152
DA:191,152
DA:193,152
DA:194,152
DA:195,152
DA:196,152
DA:197,152
DA:199,152
DA:200,152
DA:201,152
DA:202,152
DA:204,152
DA:205,152
DA:206,152
DA:207,152
DA:208,152
DA:213,152
DA:215,0
DA:216,0
DA:217,0
DA:221,0
DA:222,0
DA:223,0
DA:224,0
DA:225,0
DA:226,0
DA:227,0
DA:228,0
DA:229,0
DA:230,0
DA:234,0
DA:235,0
DA:236,0
DA:240,0
DA:241,0
DA:242,0
BRF:0
BRH:0
LF:95
LH:73
end_of_record
SF:/Users/steve/repos/DSC/lib/dsc-lib-jsonschema/src/vscode/keywords/deprecation_message.rs
FN:29,_RNvXNtNtNtCse9HBjRuE3ke_18dsc_lib_jsonschema6vscode8keywords19deprecation_messageNtB2_25DeprecationMessageKeywordNtNtB4_25vscode_keyword_definition23VSCodeKeywordDefinition15keyword_factory
FN:72,_RNvXs0_NtNtNtCse9HBjRuE3ke_18dsc_lib_jsonschema6vscode8keywords19deprecation_messageNtB5_25DeprecationMessageKeywordNtNtNtCs1pVHw2aflQo_10jsonschema8keywords6custom7Keyword8is_valid
FN:65,_RNvXs0_NtNtNtCse9HBjRuE3ke_18dsc_lib_jsonschema6vscode8keywords19deprecation_messageNtB5_25DeprecationMessageKeywordNtNtNtCs1pVHw2aflQo_10jsonschema8keywords6custom7Keyword8validate
FN:48,_RNvXs_NtNtNtCse9HBjRuE3ke_18dsc_lib_jsonschema6vscode8keywords19deprecation_messageNtB4_25DeprecationMessageKeywordNtCsdG7205R6am3_8schemars10JsonSchema11json_schema
FN:59,_RNvXs_NtNtNtCse9HBjRuE3ke_18dsc_lib_jsonschema6vscode8keywords19deprecation_messageNtB4_25DeprecationMessageKeywordNtCsdG7205R6am3_8schemars10JsonSchema11schema_name
FN:29,_RNvXNtNtNtCs1p6hG0j9t4b_18dsc_lib_jsonschema6vscode8keywords19deprecation_messageNtB2_25DeprecationMessageKeywordNtNtB4_25vscode_keyword_definition23VSCodeKeywordDefinition15keyword_factory
FN:72,_RNvXs0_NtNtNtCs1p6hG0j9t4b_18dsc_lib_jsonschema6vscode8keywords19deprecation_messageNtB5_25DeprecationMessageKeywordNtNtNtCskyI9PLifvdp_10jsonschema8keywords6custom7Keyword8is_valid
FN:65,_RNvXs0_NtNtNtCs1p6hG0j9t4b_18dsc_lib_jsonschema6vscode8keywords19deprecation_messageNtB5_25DeprecationMessageKeywordNtNtNtCskyI9PLifvdp_10jsonschema8keywords6custom7Keyword8validate
FN:48,_RNvXs_NtNtNtCs1p6hG0j9t4b_18dsc_lib_jsonschema6vscode8keywords19deprecation_messageNtB4_25DeprecationMessageKeywordNtCsdG7205R6am3_8schemars10JsonSchema11json_schema
FN:59,_RNvXs_NtNtNtCs1p6hG0j9t4b_18dsc_lib_jsonschema6vscode8keywords19deprecation_messageNtB4_25DeprecationMessageKeywordNtCsdG7205R6am3_8schemars10JsonSchema11schema_name
FN:29,_RNvXNtNtNtCs8FPg1R8LBRe_18dsc_lib_jsonschema6vscode8keywords19deprecation_messageNtB2_25DeprecationMessageKeywordNtNtB4_25vscode_keyword_definition23VSCodeKeywordDefinition15keyword_factory
FN:72,_RNvXs0_NtNtNtCs8FPg1R8LBRe_18dsc_lib_jsonschema6vscode8keywords19deprecation_messageNtB5_25DeprecationMessageKeywordNtNtNtCskyI9PLifvdp_10jsonschema8keywords6custom7Keyword8is_valid
FN:65,_RNvXs0_NtNtNtCs8FPg1R8LBRe_18dsc_lib_jsonschema6vscode8keywords19deprecation_messageNtB5_25DeprecationMessageKeywordNtNtNtCskyI9PLifvdp_10jsonschema8keywords6custom7Keyword8validate
FN:48,_RNvXs_NtNtNtCs8FPg1R8LBRe_18dsc_lib_jsonschema6vscode8keywords19deprecation_messageNtB4_25DeprecationMessageKeywordNtCsdG7205R6am3_8schemars10JsonSchema11json_schema
FN:59,_RNvXs_NtNtNtCs8FPg1R8LBRe_18dsc_lib_jsonschema6vscode8keywords19deprecation_messageNtB4_25DeprecationMessageKeywordNtCsdG7205R6am3_8schemars10JsonSchema11schema_name
FN:59,_RNvXs_NtNtNtCs6DmBUIV3MEM_18dsc_lib_jsonschema6vscode8keywords19deprecation_messageNtB4_25DeprecationMessageKeywordNtCsdG7205R6am3_8schemars10JsonSchema11schema_name
FN:29,_RNvXNtNtNtCs6DmBUIV3MEM_18dsc_lib_jsonschema6vscode8keywords19deprecation_messageNtB2_25DeprecationMessageKeywordNtNtB4_25vscode_keyword_definition23VSCodeKeywordDefinition15keyword_factory
FN:72,_RNvXs0_NtNtNtCs6DmBUIV3MEM_18dsc_lib_jsonschema6vscode8keywords19deprecation_messageNtB5_25DeprecationMessageKeywordNtNtNtCs1pVHw2aflQo_10jsonschema8keywords6custom7Keyword8is_valid
FN:65,_RNvXs0_NtNtNtCs6DmBUIV3MEM_18dsc_lib_jsonschema6vscode8keywords19deprecation_messageNtB5_25DeprecationMessageKeywordNtNtNtCs1pVHw2aflQo_10jsonschema8keywords6custom7Keyword8validate
FN:48,_RNvXs_NtNtNtCs6DmBUIV3MEM_18dsc_lib_jsonschema6vscode8keywords19deprecation_messageNtB4_25DeprecationMessageKeywordNtCsdG7205R6am3_8schemars10JsonSchema11json_schema
FN:59,_RNvXs_NtNtNtCs92r3DgzGcjh_18dsc_lib_jsonschema6vscode8keywords19deprecation_messageNtB4_25DeprecationMessageKeywordNtCsdG7205R6am3_8schemars10JsonSchema11schema_name
FN:29,_RNvXNtNtNtCs92r3DgzGcjh_18dsc_lib_jsonschema6vscode8keywords19deprecation_messageNtB2_25DeprecationMessageKeywordNtNtB4_25vscode_keyword_definition23VSCodeKeywordDefinition15keyword_factory
FN:72,_RNvXs0_NtNtNtCs92r3DgzGcjh_18dsc_lib_jsonschema6vscode8keywords19deprecation_messageNtB5_25DeprecationMessageKeywordNtNtNtCskyI9PLifvdp_10jsonschema8keywords6custom7Keyword8is_valid
FN:65,_RNvXs0_NtNtNtCs92r3DgzGcjh_18dsc_lib_jsonschema6vscode8keywords19deprecation_messageNtB5_25DeprecationMessageKeywordNtNtNtCskyI9PLifvdp_10jsonschema8keywords6custom7Keyword8validate
FN:48,_RNvXs_NtNtNtCs92r3DgzGcjh_18dsc_lib_jsonschema6vscode8keywords19deprecation_messageNtB4_25DeprecationMessageKeywordNtCsdG7205R6am3_8schemars10JsonSchema11json_schema
FNDA:0,_RNvXNtNtNtCse9HBjRuE3ke_18dsc_lib_jsonschema6vscode8keywords19deprecation_messageNtB2_25DeprecationMessageKeywordNtNtB4_25vscode_keyword_definition23VSCodeKeywordDefinition15keyword_factory
FNDA:0,_RNvXs0_NtNtNtCse9HBjRuE3ke_18dsc_lib_jsonschema6vscode8keywords19deprecation_messageNtB5_25DeprecationMessageKeywordNtNtNtCs1pVHw2aflQo_10jsonschema8keywords6custom7Keyword8is_valid
FNDA:0,_RNvXs0_NtNtNtCse9HBjRuE3ke_18dsc_lib_jsonschema6vscode8keywords19deprecation_messageNtB5_25DeprecationMessageKeywordNtNtNtCs1pVHw2aflQo_10jsonschema8keywords6custom7Keyword8validate
FNDA:0,_RNvXs_NtNtNtCse9HBjRuE3ke_18dsc_lib_jsonschema6vscode8keywords19deprecation_messageNtB4_25DeprecationMessageKeywordNtCsdG7205R6am3_8schemars10JsonSchema11json_schema
FNDA:0,_RNvXs_NtNtNtCse9HBjRuE3ke_18dsc_lib_jsonschema6vscode8keywords19deprecation_messageNtB4_25DeprecationMessageKeywordNtCsdG7205R6am3_8schemars10JsonSchema11schema_name
FNDA:0,_RNvXNtNtNtCs1p6hG0j9t4b_18dsc_lib_jsonschema6vscode8keywords19deprecation_messageNtB2_25DeprecationMessageKeywordNtNtB4_25vscode_keyword_definition23VSCodeKeywordDefinition15keyword_factory
FNDA:0,_RNvXs0_NtNtNtCs1p6hG0j9t4b_18dsc_lib_jsonschema6vscode8keywords19deprecation_messageNtB5_25DeprecationMessageKeywordNtNtNtCskyI9PLifvdp_10jsonschema8keywords6custom7Keyword8is_valid
FNDA:0,_RNvXs0_NtNtNtCs1p6hG0j9t4b_18dsc_lib_jsonschema6vscode8keywords19deprecation_messageNtB5_25DeprecationMessageKeywordNtNtNtCskyI9PLifvdp_10jsonschema8keywords6custom7Keyword8validate
FNDA:0,_RNvXs_NtNtNtCs1p6hG0j9t4b_18dsc_lib_jsonschema6vscode8keywords19deprecation_messageNtB4_25DeprecationMessageKeywordNtCsdG7205R6am3_8schemars10JsonSchema11json_schema
FNDA:0,_RNvXs_NtNtNtCs1p6hG0j9t4b_18dsc_lib_jsonschema6vscode8keywords19deprecation_messageNtB4_25DeprecationMessageKeywordNtCsdG7205R6am3_8schemars10JsonSchema11schema_name
FNDA:0,_RNvXNtNtNtCs8FPg1R8LBRe_18dsc_lib_jsonschema6vscode8keywords19deprecation_messageNtB2_25DeprecationMessageKeywordNtNtB4_25vscode_keyword_definition23VSCodeKeywordDefinition15keyword_factory
FNDA:0,_RNvXs0_NtNtNtCs8FPg1R8LBRe_18dsc_lib_jsonschema6vscode8keywords19deprecation_messageNtB5_25DeprecationMessageKeywordNtNtNtCskyI9PLifvdp_10jsonschema8keywords6custom7Keyword8is_valid
FNDA:0,_RNvXs0_NtNtNtCs8FPg1R8LBRe_18dsc_lib_jsonschema6vscode8keywords19deprecation_messageNtB5_25DeprecationMessageKeywordNtNtNtCskyI9PLifvdp_10jsonschema8keywords6custom7Keyword8validate
FNDA:0,_RNvXs_NtNtNtCs8FPg1R8LBRe_18dsc_lib_jsonschema6vscode8keywords19deprecation_messageNtB4_25DeprecationMessageKeywordNtCsdG7205R6am3_8schemars10JsonSchema11json_schema
FNDA:0,_RNvXs_NtNtNtCs8FPg1R8LBRe_18dsc_lib_jsonschema6vscode8keywords19deprecation_messageNtB4_25DeprecationMessageKeywordNtCsdG7205R6am3_8schemars10JsonSchema11schema_name
FNDA:0,_RNvXs_NtNtNtCs6DmBUIV3MEM_18dsc_lib_jsonschema6vscode8keywords19deprecation_messageNtB4_25DeprecationMessageKeywordNtCsdG7205R6am3_8schemars10JsonSchema11schema_name
FNDA:2,_RNvXNtNtNtCs6DmBUIV3MEM_18dsc_lib_jsonschema6vscode8keywords19deprecation_messageNtB2_25DeprecationMessageKeywordNtNtB4_25vscode_keyword_definition23VSCodeKeywordDefinition15keyword_factory
FNDA:0,_RNvXs0_NtNtNtCs6DmBUIV3MEM_18dsc_lib_jsonschema6vscode8keywords19deprecation_messageNtB5_25DeprecationMessageKeywordNtNtNtCs1pVHw2aflQo_10jsonschema8keywords6custom7Keyword8is_valid
FNDA:0,_RNvXs0_NtNtNtCs6DmBUIV3MEM_18dsc_lib_jsonschema6vscode8keywords19deprecation_messageNtB5_25DeprecationMessageKeywordNtNtNtCs1pVHw2aflQo_10jsonschema8keywords6custom7Keyword8validate
FNDA:74,_RNvXs_NtNtNtCs6DmBUIV3MEM_18dsc_lib_jsonschema6vscode8keywords19deprecation_messageNtB4_25DeprecationMessageKeywordNtCsdG7205R6am3_8schemars10JsonSchema11json_schema
FNDA:0,_RNvXs_NtNtNtCs92r3DgzGcjh_18dsc_lib_jsonschema6vscode8keywords19deprecation_messageNtB4_25DeprecationMessageKeywordNtCsdG7205R6am3_8schemars10JsonSchema11schema_name
FNDA:2,_RNvXNtNtNtCs92r3DgzGcjh_18dsc_lib_jsonschema6vscode8keywords19deprecation_messageNtB2_25DeprecationMessageKeywordNtNtB4_25vscode_keyword_definition23VSCodeKeywordDefinition15keyword_factory
FNDA:0,_RNvXs0_NtNtNtCs92r3DgzGcjh_18dsc_lib_jsonschema6vscode8keywords19deprecation_messageNtB5_25DeprecationMessageKeywordNtNtNtCskyI9PLifvdp_10jsonschema8keywords6custom7Keyword8is_valid
FNDA:0,_RNvXs0_NtNtNtCs92r3DgzGcjh_18dsc_lib_jsonschema6vscode8keywords19deprecation_messageNtB5_25DeprecationMessageKeywordNtNtNtCskyI9PLifvdp_10jsonschema8keywords6custom7Keyword8validate
FNDA:74,_RNvXs_NtNtNtCs92r3DgzGcjh_18dsc_lib_jsonschema6vscode8keywords19deprecation_messageNtB4_25DeprecationMessageKeywordNtCsdG7205R6am3_8schemars10JsonSchema11json_schema
FNF:5
FNH:2
DA:29,4
DA:30,4
DA:31,4
DA:32,4
DA:33,4
DA:34,4
DA:35,2
DA:37,2
DA:38,2
DA:39,2
DA:40,2
DA:41,2
DA:44,4
DA:48,148
DA:49,148
DA:50,148
DA:51,148
DA:52,148
DA:53,148
DA:54,148
DA:55,148
DA:57,148
DA:59,0
DA:60,0
DA:61,0
DA:65,0
DA:66,0
DA:67,0
DA:68,0
DA:69,0
DA:70,0
DA:71,0
DA:72,0
DA:73,0
DA:74,0
BRF:0
BRH:0
LF:35
LH:22
end_of_record
SF:/Users/steve/repos/DSC/lib/dsc-lib-jsonschema/src/vscode/keywords/do_not_suggest.rs
FN:28,_RNvXNtNtNtCse9HBjRuE3ke_18dsc_lib_jsonschema6vscode8keywords14do_not_suggestNtB2_19DoNotSuggestKeywordNtNtB4_25vscode_keyword_definition23VSCodeKeywordDefinition15keyword_factory
FN:72,_RNvXs0_NtNtNtCse9HBjRuE3ke_18dsc_lib_jsonschema6vscode8keywords14do_not_suggestNtB5_19DoNotSuggestKeywordNtNtNtCs1pVHw2aflQo_10jsonschema8keywords6custom7Keyword8is_valid
FN:65,_RNvXs0_NtNtNtCse9HBjRuE3ke_18dsc_lib_jsonschema6vscode8keywords14do_not_suggestNtB5_19DoNotSuggestKeywordNtNtNtCs1pVHw2aflQo_10jsonschema8keywords6custom7Keyword8validate
FN:47,_RNvXs_NtNtNtCse9HBjRuE3ke_18dsc_lib_jsonschema6vscode8keywords14do_not_suggestNtB4_19DoNotSuggestKeywordNtCsdG7205R6am3_8schemars10JsonSchema11json_schema
FN:59,_RNvXs_NtNtNtCse9HBjRuE3ke_18dsc_lib_jsonschema6vscode8keywords14do_not_suggestNtB4_19DoNotSuggestKeywordNtCsdG7205R6am3_8schemars10JsonSchema11schema_name
FN:28,_RNvXNtNtNtCs1p6hG0j9t4b_18dsc_lib_jsonschema6vscode8keywords14do_not_suggestNtB2_19DoNotSuggestKeywordNtNtB4_25vscode_keyword_definition23VSCodeKeywordDefinition15keyword_factory
FN:72,_RNvXs0_NtNtNtCs1p6hG0j9t4b_18dsc_lib_jsonschema6vscode8keywords14do_not_suggestNtB5_19DoNotSuggestKeywordNtNtNtCskyI9PLifvdp_10jsonschema8keywords6custom7Keyword8is_valid
FN:65,_RNvXs0_NtNtNtCs1p6hG0j9t4b_18dsc_lib_jsonschema6vscode8keywords14do_not_suggestNtB5_19DoNotSuggestKeywordNtNtNtCskyI9PLifvdp_10jsonschema8keywords6custom7Keyword8validate
FN:47,_RNvXs_NtNtNtCs1p6hG0j9t4b_18dsc_lib_jsonschema6vscode8keywords14do_not_suggestNtB4_19DoNotSuggestKeywordNtCsdG7205R6am3_8schemars10JsonSchema11json_schema
FN:59,_RNvXs_NtNtNtCs1p6hG0j9t4b_18dsc_lib_jsonschema6vscode8keywords14do_not_suggestNtB4_19DoNotSuggestKeywordNtCsdG7205R6am3_8schemars10JsonSchema11schema_name
FN:28,_RNvXNtNtNtCs8FPg1R8LBRe_18dsc_lib_jsonschema6vscode8keywords14do_not_suggestNtB2_19DoNotSuggestKeywordNtNtB4_25vscode_keyword_definition23VSCodeKeywordDefinition15keyword_factory
FN:72,_RNvXs0_NtNtNtCs8FPg1R8LBRe_18dsc_lib_jsonschema6vscode8keywords14do_not_suggestNtB5_19DoNotSuggestKeywordNtNtNtCskyI9PLifvdp_10jsonschema8keywords6custom7Keyword8is_valid
FN:65,_RNvXs0_NtNtNtCs8FPg1R8LBRe_18dsc_lib_jsonschema6vscode8keywords14do_not_suggestNtB5_19DoNotSuggestKeywordNtNtNtCskyI9PLifvdp_10jsonschema8keywords6custom7Keyword8validate
FN:47,_RNvXs_NtNtNtCs8FPg1R8LBRe_18dsc_lib_jsonschema6vscode8keywords14do_not_suggestNtB4_19DoNotSuggestKeywordNtCsdG7205R6am3_8schemars10JsonSchema11json_schema
FN:59,_RNvXs_NtNtNtCs8FPg1R8LBRe_18dsc_lib_jsonschema6vscode8keywords14do_not_suggestNtB4_19DoNotSuggestKeywordNtCsdG7205R6am3_8schemars10JsonSchema11schema_name
FN:59,_RNvXs_NtNtNtCs6DmBUIV3MEM_18dsc_lib_jsonschema6vscode8keywords14do_not_suggestNtB4_19DoNotSuggestKeywordNtCsdG7205R6am3_8schemars10JsonSchema11schema_name
FN:28,_RNvXNtNtNtCs6DmBUIV3MEM_18dsc_lib_jsonschema6vscode8keywords14do_not_suggestNtB2_19DoNotSuggestKeywordNtNtB4_25vscode_keyword_definition23VSCodeKeywordDefinition15keyword_factory
FN:72,_RNvXs0_NtNtNtCs6DmBUIV3MEM_18dsc_lib_jsonschema6vscode8keywords14do_not_suggestNtB5_19DoNotSuggestKeywordNtNtNtCs1pVHw2aflQo_10jsonschema8keywords6custom7Keyword8is_valid
FN:65,_RNvXs0_NtNtNtCs6DmBUIV3MEM_18dsc_lib_jsonschema6vscode8keywords14do_not_suggestNtB5_19DoNotSuggestKeywordNtNtNtCs1pVHw2aflQo_10jsonschema8keywords6custom7Keyword8validate
FN:47,_RNvXs_NtNtNtCs6DmBUIV3MEM_18dsc_lib_jsonschema6vscode8keywords14do_not_suggestNtB4_19DoNotSuggestKeywordNtCsdG7205R6am3_8schemars10JsonSchema11json_schema
FN:59,_RNvXs_NtNtNtCs92r3DgzGcjh_18dsc_lib_jsonschema6vscode8keywords14do_not_suggestNtB4_19DoNotSuggestKeywordNtCsdG7205R6am3_8schemars10JsonSchema11schema_name
FN:28,_RNvXNtNtNtCs92r3DgzGcjh_18dsc_lib_jsonschema6vscode8keywords14do_not_suggestNtB2_19DoNotSuggestKeywordNtNtB4_25vscode_keyword_definition23VSCodeKeywordDefinition15keyword_factory
FN:72,_RNvXs0_NtNtNtCs92r3DgzGcjh_18dsc_lib_jsonschema6vscode8keywords14do_not_suggestNtB5_19DoNotSuggestKeywordNtNtNtCskyI9PLifvdp_10jsonschema8keywords6custom7Keyword8is_valid
FN:65,_RNvXs0_NtNtNtCs92r3DgzGcjh_18dsc_lib_jsonschema6vscode8keywords14do_not_suggestNtB5_19DoNotSuggestKeywordNtNtNtCskyI9PLifvdp_10jsonschema8keywords6custom7Keyword8validate
FN:47,_RNvXs_NtNtNtCs92r3DgzGcjh_18dsc_lib_jsonschema6vscode8keywords14do_not_suggestNtB4_19DoNotSuggestKeywordNtCsdG7205R6am3_8schemars10JsonSchema11json_schema
FNDA:0,_RNvXNtNtNtCse9HBjRuE3ke_18dsc_lib_jsonschema6vscode8keywords14do_not_suggestNtB2_19DoNotSuggestKeywordNtNtB4_25vscode_keyword_definition23VSCodeKeywordDefinition15keyword_factory
FNDA:0,_RNvXs0_NtNtNtCse9HBjRuE3ke_18dsc_lib_jsonschema6vscode8keywords14do_not_suggestNtB5_19DoNotSuggestKeywordNtNtNtCs1pVHw2aflQo_10jsonschema8keywords6custom7Keyword8is_valid
FNDA:0,_RNvXs0_NtNtNtCse9HBjRuE3ke_18dsc_lib_jsonschema6vscode8keywords14do_not_suggestNtB5_19DoNotSuggestKeywordNtNtNtCs1pVHw2aflQo_10jsonschema8keywords6custom7Keyword8validate
FNDA:0,_RNvXs_NtNtNtCse9HBjRuE3ke_18dsc_lib_jsonschema6vscode8keywords14do_not_suggestNtB4_19DoNotSuggestKeywordNtCsdG7205R6am3_8schemars10JsonSchema11json_schema
FNDA:0,_RNvXs_NtNtNtCse9HBjRuE3ke_18dsc_lib_jsonschema6vscode8keywords14do_not_suggestNtB4_19DoNotSuggestKeywordNtCsdG7205R6am3_8schemars10JsonSchema11schema_name
FNDA:0,_RNvXNtNtNtCs1p6hG0j9t4b_18dsc_lib_jsonschema6vscode8keywords14do_not_suggestNtB2_19DoNotSuggestKeywordNtNtB4_25vscode_keyword_definition23VSCodeKeywordDefinition15keyword_factory
FNDA:0,_RNvXs0_NtNtNtCs1p6hG0j9t4b_18dsc_lib_jsonschema6vscode8keywords14do_not_suggestNtB5_19DoNotSuggestKeywordNtNtNtCskyI9PLifvdp_10jsonschema8keywords6custom7Keyword8is_valid
FNDA:0,_RNvXs0_NtNtNtCs1p6hG0j9t4b_18dsc_lib_jsonschema6vscode8keywords14do_not_suggestNtB5_19DoNotSuggestKeywordNtNtNtCskyI9PLifvdp_10jsonschema8keywords6custom7Keyword8validate
FNDA:0,_RNvXs_NtNtNtCs1p6hG0j9t4b_18dsc_lib_jsonschema6vscode8keywords14do_not_suggestNtB4_19DoNotSuggestKeywordNtCsdG7205R6am3_8schemars10JsonSchema11json_schema
FNDA:0,_RNvXs_NtNtNtCs1p6hG0j9t4b_18dsc_lib_jsonschema6vscode8keywords14do_not_suggestNtB4_19DoNotSuggestKeywordNtCsdG7205R6am3_8schemars10JsonSchema11schema_name
FNDA:0,_RNvXNtNtNtCs8FPg1R8LBRe_18dsc_lib_jsonschema6vscode8keywords14do_not_suggestNtB2_19DoNotSuggestKeywordNtNtB4_25vscode_keyword_definition23VSCodeKeywordDefinition15keyword_factory
FNDA:0,_RNvXs0_NtNtNtCs8FPg1R8LBRe_18dsc_lib_jsonschema6vscode8keywords14do_not_suggestNtB5_19DoNotSuggestKeywordNtNtNtCskyI9PLifvdp_10jsonschema8keywords6custom7Keyword8is_valid
FNDA:0,_RNvXs0_NtNtNtCs8FPg1R8LBRe_18dsc_lib_jsonschema6vscode8keywords14do_not_suggestNtB5_19DoNotSuggestKeywordNtNtNtCskyI9PLifvdp_10jsonschema8keywords6custom7Keyword8validate
FNDA:0,_RNvXs_NtNtNtCs8FPg1R8LBRe_18dsc_lib_jsonschema6vscode8keywords14do_not_suggestNtB4_19DoNotSuggestKeywordNtCsdG7205R6am3_8schemars10JsonSchema11json_schema
FNDA:0,_RNvXs_NtNtNtCs8FPg1R8LBRe_18dsc_lib_jsonschema6vscode8keywords14do_not_suggestNtB4_19DoNotSuggestKeywordNtCsdG7205R6am3_8schemars10JsonSchema11schema_name
FNDA:0,_RNvXs_NtNtNtCs6DmBUIV3MEM_18dsc_lib_jsonschema6vscode8keywords14do_not_suggestNtB4_19DoNotSuggestKeywordNtCsdG7205R6am3_8schemars10JsonSchema11schema_name
FNDA:2,_RNvXNtNtNtCs6DmBUIV3MEM_18dsc_lib_jsonschema6vscode8keywords14do_not_suggestNtB2_19DoNotSuggestKeywordNtNtB4_25vscode_keyword_definition23VSCodeKeywordDefinition15keyword_factory
FNDA:0,_RNvXs0_NtNtNtCs6DmBUIV3MEM_18dsc_lib_jsonschema6vscode8keywords14do_not_suggestNtB5_19DoNotSuggestKeywordNtNtNtCs1pVHw2aflQo_10jsonschema8keywords6custom7Keyword8is_valid
FNDA:0,_RNvXs0_NtNtNtCs6DmBUIV3MEM_18dsc_lib_jsonschema6vscode8keywords14do_not_suggestNtB5_19DoNotSuggestKeywordNtNtNtCs1pVHw2aflQo_10jsonschema8keywords6custom7Keyword8validate
FNDA:76,_RNvXs_NtNtNtCs6DmBUIV3MEM_18dsc_lib_jsonschema6vscode8keywords14do_not_suggestNtB4_19DoNotSuggestKeywordNtCsdG7205R6am3_8schemars10JsonSchema11json_schema
FNDA:0,_RNvXs_NtNtNtCs92r3DgzGcjh_18dsc_lib_jsonschema6vscode8keywords14do_not_suggestNtB4_19DoNotSuggestKeywordNtCsdG7205R6am3_8schemars10JsonSchema11schema_name
FNDA:2,_RNvXNtNtNtCs92r3DgzGcjh_18dsc_lib_jsonschema6vscode8keywords14do_not_suggestNtB2_19DoNotSuggestKeywordNtNtB4_25vscode_keyword_definition23VSCodeKeywordDefinition15keyword_factory
FNDA:0,_RNvXs0_NtNtNtCs92r3DgzGcjh_18dsc_lib_jsonschema6vscode8keywords14do_not_suggestNtB5_19DoNotSuggestKeywordNtNtNtCskyI9PLifvdp_10jsonschema8keywords6custom7Keyword8is_valid
FNDA:0,_RNvXs0_NtNtNtCs92r3DgzGcjh_18dsc_lib_jsonschema6vscode8keywords14do_not_suggestNtB5_19DoNotSuggestKeywordNtNtNtCskyI9PLifvdp_10jsonschema8keywords6custom7Keyword8validate
FNDA:76,_RNvXs_NtNtNtCs92r3DgzGcjh_18dsc_lib_jsonschema6vscode8keywords14do_not_suggestNtB4_19DoNotSuggestKeywordNtCsdG7205R6am3_8schemars10JsonSchema11json_schema
FNF:5
FNH:2
DA:28,4
DA:29,4
DA:30,4
DA:31,4
DA:32,4
DA:33,4
DA:34,2
DA:36,2
DA:37,2
DA:38,2
DA:39,2
DA:40,2
DA:43,4
DA:47,152
DA:48,152
DA:49,152
DA:50,152
DA:51,152
DA:52,152
DA:53,152
DA:54,152
DA:55,152
DA:57,152
DA:59,0
DA:60,0
DA:61,0
DA:65,0
DA:66,0
DA:67,0
DA:68,0
DA:69,0
DA:70,0
DA:71,0
DA:72,0
DA:73,0
DA:74,0
BRF:0
BRH:0
LF:36
LH:23
end_of_record
SF:/Users/steve/repos/DSC/lib/dsc-lib-jsonschema/src/vscode/keywords/enum_descriptions.rs
FN:46,_RNCNvXNtNtNtCse9HBjRuE3ke_18dsc_lib_jsonschema6vscode8keywords17enum_descriptionsNtB4_23EnumDescriptionsKeywordNtNtB6_25vscode_keyword_definition23VSCodeKeywordDefinition15keyword_factory0Ba_
FN:48,_RNCNvXNtNtNtCse9HBjRuE3ke_18dsc_lib_jsonschema6vscode8keywords17enum_descriptionsNtB4_23EnumDescriptionsKeywordNtNtB6_25vscode_keyword_definition23VSCodeKeywordDefinition15keyword_factorys_0Ba_
FN:40,_RNvXNtNtNtCse9HBjRuE3ke_18dsc_lib_jsonschema6vscode8keywords17enum_descriptionsNtB2_23EnumDescriptionsKeywordNtNtB4_25vscode_keyword_definition23VSCodeKeywordDefinition15keyword_factory
FN:105,_RNvXs0_NtNtNtCse9HBjRuE3ke_18dsc_lib_jsonschema6vscode8keywords17enum_descriptionsNtB5_23EnumDescriptionsKeywordNtNtNtCs1pVHw2aflQo_10jsonschema8keywords6custom7Keyword8is_valid
FN:98,_RNvXs0_NtNtNtCse9HBjRuE3ke_18dsc_lib_jsonschema6vscode8keywords17enum_descriptionsNtB5_23EnumDescriptionsKeywordNtNtNtCs1pVHw2aflQo_10jsonschema8keywords6custom7Keyword8validate
FN:78,_RNvXs_NtNtNtCse9HBjRuE3ke_18dsc_lib_jsonschema6vscode8keywords17enum_descriptionsNtB4_23EnumDescriptionsKeywordNtCsdG7205R6am3_8schemars10JsonSchema11json_schema
FN:92,_RNvXs_NtNtNtCse9HBjRuE3ke_18dsc_lib_jsonschema6vscode8keywords17enum_descriptionsNtB4_23EnumDescriptionsKeywordNtCsdG7205R6am3_8schemars10JsonSchema11schema_name
FN:46,_RNCNvXNtNtNtCs1p6hG0j9t4b_18dsc_lib_jsonschema6vscode8keywords17enum_descriptionsNtB4_23EnumDescriptionsKeywordNtNtB6_25vscode_keyword_definition23VSCodeKeywordDefinition15keyword_factory0Ba_
FN:48,_RNCNvXNtNtNtCs1p6hG0j9t4b_18dsc_lib_jsonschema6vscode8keywords17enum_descriptionsNtB4_23EnumDescriptionsKeywordNtNtB6_25vscode_keyword_definition23VSCodeKeywordDefinition15keyword_factorys_0Ba_
FN:40,_RNvXNtNtNtCs1p6hG0j9t4b_18dsc_lib_jsonschema6vscode8keywords17enum_descriptionsNtB2_23EnumDescriptionsKeywordNtNtB4_25vscode_keyword_definition23VSCodeKeywordDefinition15keyword_factory
FN:105,_RNvXs0_NtNtNtCs1p6hG0j9t4b_18dsc_lib_jsonschema6vscode8keywords17enum_descriptionsNtB5_23EnumDescriptionsKeywordNtNtNtCskyI9PLifvdp_10jsonschema8keywords6custom7Keyword8is_valid
FN:98,_RNvXs0_NtNtNtCs1p6hG0j9t4b_18dsc_lib_jsonschema6vscode8keywords17enum_descriptionsNtB5_23EnumDescriptionsKeywordNtNtNtCskyI9PLifvdp_10jsonschema8keywords6custom7Keyword8validate
FN:78,_RNvXs_NtNtNtCs1p6hG0j9t4b_18dsc_lib_jsonschema6vscode8keywords17enum_descriptionsNtB4_23EnumDescriptionsKeywordNtCsdG7205R6am3_8schemars10JsonSchema11json_schema
FN:92,_RNvXs_NtNtNtCs1p6hG0j9t4b_18dsc_lib_jsonschema6vscode8keywords17enum_descriptionsNtB4_23EnumDescriptionsKeywordNtCsdG7205R6am3_8schemars10JsonSchema11schema_name
FN:40,_RNvXNtNtNtCs8FPg1R8LBRe_18dsc_lib_jsonschema6vscode8keywords17enum_descriptionsNtB2_23EnumDescriptionsKeywordNtNtB4_25vscode_keyword_definition23VSCodeKeywordDefinition15keyword_factory
FN:105,_RNvXs0_NtNtNtCs8FPg1R8LBRe_18dsc_lib_jsonschema6vscode8keywords17enum_descriptionsNtB5_23EnumDescriptionsKeywordNtNtNtCskyI9PLifvdp_10jsonschema8keywords6custom7Keyword8is_valid
FN:98,_RNvXs0_NtNtNtCs8FPg1R8LBRe_18dsc_lib_jsonschema6vscode8keywords17enum_descriptionsNtB5_23EnumDescriptionsKeywordNtNtNtCskyI9PLifvdp_10jsonschema8keywords6custom7Keyword8validate
FN:78,_RNvXs_NtNtNtCs8FPg1R8LBRe_18dsc_lib_jsonschema6vscode8keywords17enum_descriptionsNtB4_23EnumDescriptionsKeywordNtCsdG7205R6am3_8schemars10JsonSchema11json_schema
FN:92,_RNvXs_NtNtNtCs8FPg1R8LBRe_18dsc_lib_jsonschema6vscode8keywords17enum_descriptionsNtB4_23EnumDescriptionsKeywordNtCsdG7205R6am3_8schemars10JsonSchema11schema_name
FN:46,_RNCNvXNtNtNtCs8FPg1R8LBRe_18dsc_lib_jsonschema6vscode8keywords17enum_descriptionsNtB4_23EnumDescriptionsKeywordNtNtB6_25vscode_keyword_definition23VSCodeKeywordDefinition15keyword_factory0Ba_
FN:48,_RNCNvXNtNtNtCs8FPg1R8LBRe_18dsc_lib_jsonschema6vscode8keywords17enum_descriptionsNtB4_23EnumDescriptionsKeywordNtNtB6_25vscode_keyword_definition23VSCodeKeywordDefinition15keyword_factorys_0Ba_
FN:92,_RNvXs_NtNtNtCs6DmBUIV3MEM_18dsc_lib_jsonschema6vscode8keywords17enum_descriptionsNtB4_23EnumDescriptionsKeywordNtCsdG7205R6am3_8schemars10JsonSchema11schema_name
FN:46,_RNCNvXNtNtNtCs6DmBUIV3MEM_18dsc_lib_jsonschema6vscode8keywords17enum_descriptionsNtB4_23EnumDescriptionsKeywordNtNtB6_25vscode_keyword_definition23VSCodeKeywordDefinition15keyword_factory0Ba_
FN:48,_RNCNvXNtNtNtCs6DmBUIV3MEM_18dsc_lib_jsonschema6vscode8keywords17enum_descriptionsNtB4_23EnumDescriptionsKeywordNtNtB6_25vscode_keyword_definition23VSCodeKeywordDefinition15keyword_factorys_0Ba_
FN:40,_RNvXNtNtNtCs6DmBUIV3MEM_18dsc_lib_jsonschema6vscode8keywords17enum_descriptionsNtB2_23EnumDescriptionsKeywordNtNtB4_25vscode_keyword_definition23VSCodeKeywordDefinition15keyword_factory
FN:105,_RNvXs0_NtNtNtCs6DmBUIV3MEM_18dsc_lib_jsonschema6vscode8keywords17enum_descriptionsNtB5_23EnumDescriptionsKeywordNtNtNtCs1pVHw2aflQo_10jsonschema8keywords6custom7Keyword8is_valid
FN:98,_RNvXs0_NtNtNtCs6DmBUIV3MEM_18dsc_lib_jsonschema6vscode8keywords17enum_descriptionsNtB5_23EnumDescriptionsKeywordNtNtNtCs1pVHw2aflQo_10jsonschema8keywords6custom7Keyword8validate
FN:78,_RNvXs_NtNtNtCs6DmBUIV3MEM_18dsc_lib_jsonschema6vscode8keywords17enum_descriptionsNtB4_23EnumDescriptionsKeywordNtCsdG7205R6am3_8schemars10JsonSchema11json_schema
FN:40,_RNvXNtNtNtCs92r3DgzGcjh_18dsc_lib_jsonschema6vscode8keywords17enum_descriptionsNtB2_23EnumDescriptionsKeywordNtNtB4_25vscode_keyword_definition23VSCodeKeywordDefinition15keyword_factory
FN:105,_RNvXs0_NtNtNtCs92r3DgzGcjh_18dsc_lib_jsonschema6vscode8keywords17enum_descriptionsNtB5_23EnumDescriptionsKeywordNtNtNtCskyI9PLifvdp_10jsonschema8keywords6custom7Keyword8is_valid
FN:98,_RNvXs0_NtNtNtCs92r3DgzGcjh_18dsc_lib_jsonschema6vscode8keywords17enum_descriptionsNtB5_23EnumDescriptionsKeywordNtNtNtCskyI9PLifvdp_10jsonschema8keywords6custom7Keyword8validate
FN:78,_RNvXs_NtNtNtCs92r3DgzGcjh_18dsc_lib_jsonschema6vscode8keywords17enum_descriptionsNtB4_23EnumDescriptionsKeywordNtCsdG7205R6am3_8schemars10JsonSchema11json_schema
FN:92,_RNvXs_NtNtNtCs92r3DgzGcjh_18dsc_lib_jsonschema6vscode8keywords17enum_descriptionsNtB4_23EnumDescriptionsKeywordNtCsdG7205R6am3_8schemars10JsonSchema11schema_name
FN:46,_RNCNvXNtNtNtCs92r3DgzGcjh_18dsc_lib_jsonschema6vscode8keywords17enum_descriptionsNtB4_23EnumDescriptionsKeywordNtNtB6_25vscode_keyword_definition23VSCodeKeywordDefinition15keyword_factory0Ba_
FN:48,_RNCNvXNtNtNtCs92r3DgzGcjh_18dsc_lib_jsonschema6vscode8keywords17enum_descriptionsNtB4_23EnumDescriptionsKeywordNtNtB6_25vscode_keyword_definition23VSCodeKeywordDefinition15keyword_factorys_0Ba_
FNDA:0,_RNCNvXNtNtNtCse9HBjRuE3ke_18dsc_lib_jsonschema6vscode8keywords17enum_descriptionsNtB4_23EnumDescriptionsKeywordNtNtB6_25vscode_keyword_definition23VSCodeKeywordDefinition15keyword_factory0Ba_
FNDA:0,_RNCNvXNtNtNtCse9HBjRuE3ke_18dsc_lib_jsonschema6vscode8keywords17enum_descriptionsNtB4_23EnumDescriptionsKeywordNtNtB6_25vscode_keyword_definition23VSCodeKeywordDefinition15keyword_factorys_0Ba_
FNDA:0,_RNvXNtNtNtCse9HBjRuE3ke_18dsc_lib_jsonschema6vscode8keywords17enum_descriptionsNtB2_23EnumDescriptionsKeywordNtNtB4_25vscode_keyword_definition23VSCodeKeywordDefinition15keyword_factory
FNDA:0,_RNvXs0_NtNtNtCse9HBjRuE3ke_18dsc_lib_jsonschema6vscode8keywords17enum_descriptionsNtB5_23EnumDescriptionsKeywordNtNtNtCs1pVHw2aflQo_10jsonschema8keywords6custom7Keyword8is_valid
FNDA:0,_RNvXs0_NtNtNtCse9HBjRuE3ke_18dsc_lib_jsonschema6vscode8keywords17enum_descriptionsNtB5_23EnumDescriptionsKeywordNtNtNtCs1pVHw2aflQo_10jsonschema8keywords6custom7Keyword8validate
FNDA:0,_RNvXs_NtNtNtCse9HBjRuE3ke_18dsc_lib_jsonschema6vscode8keywords17enum_descriptionsNtB4_23EnumDescriptionsKeywordNtCsdG7205R6am3_8schemars10JsonSchema11json_schema
FNDA:0,_RNvXs_NtNtNtCse9HBjRuE3ke_18dsc_lib_jsonschema6vscode8keywords17enum_descriptionsNtB4_23EnumDescriptionsKeywordNtCsdG7205R6am3_8schemars10JsonSchema11schema_name
FNDA:0,_RNCNvXNtNtNtCs1p6hG0j9t4b_18dsc_lib_jsonschema6vscode8keywords17enum_descriptionsNtB4_23EnumDescriptionsKeywordNtNtB6_25vscode_keyword_definition23VSCodeKeywordDefinition15keyword_factory0Ba_
FNDA:0,_RNCNvXNtNtNtCs1p6hG0j9t4b_18dsc_lib_jsonschema6vscode8keywords17enum_descriptionsNtB4_23EnumDescriptionsKeywordNtNtB6_25vscode_keyword_definition23VSCodeKeywordDefinition15keyword_factorys_0Ba_
FNDA:0,_RNvXNtNtNtCs1p6hG0j9t4b_18dsc_lib_jsonschema6vscode8keywords17enum_descriptionsNtB2_23EnumDescriptionsKeywordNtNtB4_25vscode_keyword_definition23VSCodeKeywordDefinition15keyword_factory
FNDA:0,_RNvXs0_NtNtNtCs1p6hG0j9t4b_18dsc_lib_jsonschema6vscode8keywords17enum_descriptionsNtB5_23EnumDescriptionsKeywordNtNtNtCskyI9PLifvdp_10jsonschema8keywords6custom7Keyword8is_valid
FNDA:0,_RNvXs0_NtNtNtCs1p6hG0j9t4b_18dsc_lib_jsonschema6vscode8keywords17enum_descriptionsNtB5_23EnumDescriptionsKeywordNtNtNtCskyI9PLifvdp_10jsonschema8keywords6custom7Keyword8validate
FNDA:0,_RNvXs_NtNtNtCs1p6hG0j9t4b_18dsc_lib_jsonschema6vscode8keywords17enum_descriptionsNtB4_23EnumDescriptionsKeywordNtCsdG7205R6am3_8schemars10JsonSchema11json_schema
FNDA:0,_RNvXs_NtNtNtCs1p6hG0j9t4b_18dsc_lib_jsonschema6vscode8keywords17enum_descriptionsNtB4_23EnumDescriptionsKeywordNtCsdG7205R6am3_8schemars10JsonSchema11schema_name
FNDA:0,_RNvXNtNtNtCs8FPg1R8LBRe_18dsc_lib_jsonschema6vscode8keywords17enum_descriptionsNtB2_23EnumDescriptionsKeywordNtNtB4_25vscode_keyword_definition23VSCodeKeywordDefinition15keyword_factory
FNDA:0,_RNvXs0_NtNtNtCs8FPg1R8LBRe_18dsc_lib_jsonschema6vscode8keywords17enum_descriptionsNtB5_23EnumDescriptionsKeywordNtNtNtCskyI9PLifvdp_10jsonschema8keywords6custom7Keyword8is_valid
FNDA:0,_RNvXs0_NtNtNtCs8FPg1R8LBRe_18dsc_lib_jsonschema6vscode8keywords17enum_descriptionsNtB5_23EnumDescriptionsKeywordNtNtNtCskyI9PLifvdp_10jsonschema8keywords6custom7Keyword8validate
FNDA:0,_RNvXs_NtNtNtCs8FPg1R8LBRe_18dsc_lib_jsonschema6vscode8keywords17enum_descriptionsNtB4_23EnumDescriptionsKeywordNtCsdG7205R6am3_8schemars10JsonSchema11json_schema
FNDA:0,_RNvXs_NtNtNtCs8FPg1R8LBRe_18dsc_lib_jsonschema6vscode8keywords17enum_descriptionsNtB4_23EnumDescriptionsKeywordNtCsdG7205R6am3_8schemars10JsonSchema11schema_name
FNDA:0,_RNCNvXNtNtNtCs8FPg1R8LBRe_18dsc_lib_jsonschema6vscode8keywords17enum_descriptionsNtB4_23EnumDescriptionsKeywordNtNtB6_25vscode_keyword_definition23VSCodeKeywordDefinition15keyword_factory0Ba_
FNDA:0,_RNCNvXNtNtNtCs8FPg1R8LBRe_18dsc_lib_jsonschema6vscode8keywords17enum_descriptionsNtB4_23EnumDescriptionsKeywordNtNtB6_25vscode_keyword_definition23VSCodeKeywordDefinition15keyword_factorys_0Ba_
FNDA:0,_RNvXs_NtNtNtCs6DmBUIV3MEM_18dsc_lib_jsonschema6vscode8keywords17enum_descriptionsNtB4_23EnumDescriptionsKeywordNtCsdG7205R6am3_8schemars10JsonSchema11schema_name
FNDA:5,_RNCNvXNtNtNtCs6DmBUIV3MEM_18dsc_lib_jsonschema6vscode8keywords17enum_descriptionsNtB4_23EnumDescriptionsKeywordNtNtB6_25vscode_keyword_definition23VSCodeKeywordDefinition15keyword_factory0Ba_
FNDA:3,_RNCNvXNtNtNtCs6DmBUIV3MEM_18dsc_lib_jsonschema6vscode8keywords17enum_descriptionsNtB4_23EnumDescriptionsKeywordNtNtB6_25vscode_keyword_definition23VSCodeKeywordDefinition15keyword_factorys_0Ba_
FNDA:3,_RNvXNtNtNtCs6DmBUIV3MEM_18dsc_lib_jsonschema6vscode8keywords17enum_descriptionsNtB2_23EnumDescriptionsKeywordNtNtB4_25vscode_keyword_definition23VSCodeKeywordDefinition15keyword_factory
FNDA:0,_RNvXs0_NtNtNtCs6DmBUIV3MEM_18dsc_lib_jsonschema6vscode8keywords17enum_descriptionsNtB5_23EnumDescriptionsKeywordNtNtNtCs1pVHw2aflQo_10jsonschema8keywords6custom7Keyword8is_valid
FNDA:0,_RNvXs0_NtNtNtCs6DmBUIV3MEM_18dsc_lib_jsonschema6vscode8keywords17enum_descriptionsNtB5_23EnumDescriptionsKeywordNtNtNtCs1pVHw2aflQo_10jsonschema8keywords6custom7Keyword8validate
FNDA:74,_RNvXs_NtNtNtCs6DmBUIV3MEM_18dsc_lib_jsonschema6vscode8keywords17enum_descriptionsNtB4_23EnumDescriptionsKeywordNtCsdG7205R6am3_8schemars10JsonSchema11json_schema
FNDA:3,_RNvXNtNtNtCs92r3DgzGcjh_18dsc_lib_jsonschema6vscode8keywords17enum_descriptionsNtB2_23EnumDescriptionsKeywordNtNtB4_25vscode_keyword_definition23VSCodeKeywordDefinition15keyword_factory
FNDA:0,_RNvXs0_NtNtNtCs92r3DgzGcjh_18dsc_lib_jsonschema6vscode8keywords17enum_descriptionsNtB5_23EnumDescriptionsKeywordNtNtNtCskyI9PLifvdp_10jsonschema8keywords6custom7Keyword8is_valid
FNDA:0,_RNvXs0_NtNtNtCs92r3DgzGcjh_18dsc_lib_jsonschema6vscode8keywords17enum_descriptionsNtB5_23EnumDescriptionsKeywordNtNtNtCskyI9PLifvdp_10jsonschema8keywords6custom7Keyword8validate
FNDA:74,_RNvXs_NtNtNtCs92r3DgzGcjh_18dsc_lib_jsonschema6vscode8keywords17enum_descriptionsNtB4_23EnumDescriptionsKeywordNtCsdG7205R6am3_8schemars10JsonSchema11json_schema
FNDA:0,_RNvXs_NtNtNtCs92r3DgzGcjh_18dsc_lib_jsonschema6vscode8keywords17enum_descriptionsNtB4_23EnumDescriptionsKeywordNtCsdG7205R6am3_8schemars10JsonSchema11schema_name
FNDA:5,_RNCNvXNtNtNtCs92r3DgzGcjh_18dsc_lib_jsonschema6vscode8keywords17enum_descriptionsNtB4_23EnumDescriptionsKeywordNtNtB6_25vscode_keyword_definition23VSCodeKeywordDefinition15keyword_factory0Ba_
FNDA:3,_RNCNvXNtNtNtCs92r3DgzGcjh_18dsc_lib_jsonschema6vscode8keywords17enum_descriptionsNtB4_23EnumDescriptionsKeywordNtNtB6_25vscode_keyword_definition23VSCodeKeywordDefinition15keyword_factorys_0Ba_
FNF:7
FNH:4
DA:40,6
DA:41,6
DA:42,6
DA:43,6
DA:44,6
DA:45,6
DA:46,10
DA:47,2
DA:48,6
DA:51,2
DA:52,2
DA:53,2
DA:54,2
DA:55,2
DA:57,2
DA:58,2
DA:63,2
DA:64,2
DA:65,2
DA:66,2
DA:67,2
DA:69,2
DA:70,2
DA:74,6
DA:78,148
DA:79,148
DA:80,148
DA:81,148
DA:82,148
DA:83,148
DA:84,148
DA:85,148
DA:86,148
DA:87,148
DA:90,148
DA:92,0
DA:93,0
DA:94,0
DA:98,0
DA:99,0
DA:100,0
DA:101,0
DA:102,0
DA:103,0
DA:104,0
DA:105,0
DA:106,0
DA:107,0
BRF:0
BRH:0
LF:50
LH:37
end_of_record
SF:/Users/steve/repos/DSC/lib/dsc-lib-jsonschema/src/vscode/keywords/enum_details.rs
FN:41,_RNCNvXNtNtNtCse9HBjRuE3ke_18dsc_lib_jsonschema6vscode8keywords12enum_detailsNtB4_18EnumDetailsKeywordNtNtB6_25vscode_keyword_definition23VSCodeKeywordDefinition15keyword_factory0Ba_
FN:43,_RNCNvXNtNtNtCse9HBjRuE3ke_18dsc_lib_jsonschema6vscode8keywords12enum_detailsNtB4_18EnumDetailsKeywordNtNtB6_25vscode_keyword_definition23VSCodeKeywordDefinition15keyword_factorys_0Ba_
FN:35,_RNvXNtNtNtCse9HBjRuE3ke_18dsc_lib_jsonschema6vscode8keywords12enum_detailsNtB2_18EnumDetailsKeywordNtNtB4_25vscode_keyword_definition23VSCodeKeywordDefinition15keyword_factory
FN:100,_RNvXs0_NtNtNtCse9HBjRuE3ke_18dsc_lib_jsonschema6vscode8keywords12enum_detailsNtB5_18EnumDetailsKeywordNtNtNtCs1pVHw2aflQo_10jsonschema8keywords6custom7Keyword8is_valid
FN:93,_RNvXs0_NtNtNtCse9HBjRuE3ke_18dsc_lib_jsonschema6vscode8keywords12enum_detailsNtB5_18EnumDetailsKeywordNtNtNtCs1pVHw2aflQo_10jsonschema8keywords6custom7Keyword8validate
FN:73,_RNvXs_NtNtNtCse9HBjRuE3ke_18dsc_lib_jsonschema6vscode8keywords12enum_detailsNtB4_18EnumDetailsKeywordNtCsdG7205R6am3_8schemars10JsonSchema11json_schema
FN:87,_RNvXs_NtNtNtCse9HBjRuE3ke_18dsc_lib_jsonschema6vscode8keywords12enum_detailsNtB4_18EnumDetailsKeywordNtCsdG7205R6am3_8schemars10JsonSchema11schema_name
FN:35,_RNvXNtNtNtCs1p6hG0j9t4b_18dsc_lib_jsonschema6vscode8keywords12enum_detailsNtB2_18EnumDetailsKeywordNtNtB4_25vscode_keyword_definition23VSCodeKeywordDefinition15keyword_factory
FN:100,_RNvXs0_NtNtNtCs1p6hG0j9t4b_18dsc_lib_jsonschema6vscode8keywords12enum_detailsNtB5_18EnumDetailsKeywordNtNtNtCskyI9PLifvdp_10jsonschema8keywords6custom7Keyword8is_valid
FN:93,_RNvXs0_NtNtNtCs1p6hG0j9t4b_18dsc_lib_jsonschema6vscode8keywords12enum_detailsNtB5_18EnumDetailsKeywordNtNtNtCskyI9PLifvdp_10jsonschema8keywords6custom7Keyword8validate
FN:73,_RNvXs_NtNtNtCs1p6hG0j9t4b_18dsc_lib_jsonschema6vscode8keywords12enum_detailsNtB4_18EnumDetailsKeywordNtCsdG7205R6am3_8schemars10JsonSchema11json_schema
FN:87,_RNvXs_NtNtNtCs1p6hG0j9t4b_18dsc_lib_jsonschema6vscode8keywords12enum_detailsNtB4_18EnumDetailsKeywordNtCsdG7205R6am3_8schemars10JsonSchema11schema_name
FN:41,_RNCNvXNtNtNtCs1p6hG0j9t4b_18dsc_lib_jsonschema6vscode8keywords12enum_detailsNtB4_18EnumDetailsKeywordNtNtB6_25vscode_keyword_definition23VSCodeKeywordDefinition15keyword_factory0Ba_
FN:43,_RNCNvXNtNtNtCs1p6hG0j9t4b_18dsc_lib_jsonschema6vscode8keywords12enum_detailsNtB4_18EnumDetailsKeywordNtNtB6_25vscode_keyword_definition23VSCodeKeywordDefinition15keyword_factorys_0Ba_
FN:35,_RNvXNtNtNtCs8FPg1R8LBRe_18dsc_lib_jsonschema6vscode8keywords12enum_detailsNtB2_18EnumDetailsKeywordNtNtB4_25vscode_keyword_definition23VSCodeKeywordDefinition15keyword_factory
FN:100,_RNvXs0_NtNtNtCs8FPg1R8LBRe_18dsc_lib_jsonschema6vscode8keywords12enum_detailsNtB5_18EnumDetailsKeywordNtNtNtCskyI9PLifvdp_10jsonschema8keywords6custom7Keyword8is_valid
FN:93,_RNvXs0_NtNtNtCs8FPg1R8LBRe_18dsc_lib_jsonschema6vscode8keywords12enum_detailsNtB5_18EnumDetailsKeywordNtNtNtCskyI9PLifvdp_10jsonschema8keywords6custom7Keyword8validate
FN:73,_RNvXs_NtNtNtCs8FPg1R8LBRe_18dsc_lib_jsonschema6vscode8keywords12enum_detailsNtB4_18EnumDetailsKeywordNtCsdG7205R6am3_8schemars10JsonSchema11json_schema
FN:87,_RNvXs_NtNtNtCs8FPg1R8LBRe_18dsc_lib_jsonschema6vscode8keywords12enum_detailsNtB4_18EnumDetailsKeywordNtCsdG7205R6am3_8schemars10JsonSchema11schema_name
FN:41,_RNCNvXNtNtNtCs8FPg1R8LBRe_18dsc_lib_jsonschema6vscode8keywords12enum_detailsNtB4_18EnumDetailsKeywordNtNtB6_25vscode_keyword_definition23VSCodeKeywordDefinition15keyword_factory0Ba_
FN:43,_RNCNvXNtNtNtCs8FPg1R8LBRe_18dsc_lib_jsonschema6vscode8keywords12enum_detailsNtB4_18EnumDetailsKeywordNtNtB6_25vscode_keyword_definition23VSCodeKeywordDefinition15keyword_factorys_0Ba_
FN:87,_RNvXs_NtNtNtCs6DmBUIV3MEM_18dsc_lib_jsonschema6vscode8keywords12enum_detailsNtB4_18EnumDetailsKeywordNtCsdG7205R6am3_8schemars10JsonSchema11schema_name
FN:35,_RNvXNtNtNtCs6DmBUIV3MEM_18dsc_lib_jsonschema6vscode8keywords12enum_detailsNtB2_18EnumDetailsKeywordNtNtB4_25vscode_keyword_definition23VSCodeKeywordDefinition15keyword_factory
FN:100,_RNvXs0_NtNtNtCs6DmBUIV3MEM_18dsc_lib_jsonschema6vscode8keywords12enum_detailsNtB5_18EnumDetailsKeywordNtNtNtCs1pVHw2aflQo_10jsonschema8keywords6custom7Keyword8is_valid
FN:93,_RNvXs0_NtNtNtCs6DmBUIV3MEM_18dsc_lib_jsonschema6vscode8keywords12enum_detailsNtB5_18EnumDetailsKeywordNtNtNtCs1pVHw2aflQo_10jsonschema8keywords6custom7Keyword8validate
FN:73,_RNvXs_NtNtNtCs6DmBUIV3MEM_18dsc_lib_jsonschema6vscode8keywords12enum_detailsNtB4_18EnumDetailsKeywordNtCsdG7205R6am3_8schemars10JsonSchema11json_schema
FN:41,_RNCNvXNtNtNtCs6DmBUIV3MEM_18dsc_lib_jsonschema6vscode8keywords12enum_detailsNtB4_18EnumDetailsKeywordNtNtB6_25vscode_keyword_definition23VSCodeKeywordDefinition15keyword_factory0Ba_
FN:43,_RNCNvXNtNtNtCs6DmBUIV3MEM_18dsc_lib_jsonschema6vscode8keywords12enum_detailsNtB4_18EnumDetailsKeywordNtNtB6_25vscode_keyword_definition23VSCodeKeywordDefinition15keyword_factorys_0Ba_
FN:87,_RNvXs_NtNtNtCs92r3DgzGcjh_18dsc_lib_jsonschema6vscode8keywords12enum_detailsNtB4_18EnumDetailsKeywordNtCsdG7205R6am3_8schemars10JsonSchema11schema_name
FN:41,_RNCNvXNtNtNtCs92r3DgzGcjh_18dsc_lib_jsonschema6vscode8keywords12enum_detailsNtB4_18EnumDetailsKeywordNtNtB6_25vscode_keyword_definition23VSCodeKeywordDefinition15keyword_factory0Ba_
FN:43,_RNCNvXNtNtNtCs92r3DgzGcjh_18dsc_lib_jsonschema6vscode8keywords12enum_detailsNtB4_18EnumDetailsKeywordNtNtB6_25vscode_keyword_definition23VSCodeKeywordDefinition15keyword_factorys_0Ba_
FN:35,_RNvXNtNtNtCs92r3DgzGcjh_18dsc_lib_jsonschema6vscode8keywords12enum_detailsNtB2_18EnumDetailsKeywordNtNtB4_25vscode_keyword_definition23VSCodeKeywordDefinition15keyword_factory
FN:100,_RNvXs0_NtNtNtCs92r3DgzGcjh_18dsc_lib_jsonschema6vscode8keywords12enum_detailsNtB5_18EnumDetailsKeywordNtNtNtCskyI9PLifvdp_10jsonschema8keywords6custom7Keyword8is_valid
FN:93,_RNvXs0_NtNtNtCs92r3DgzGcjh_18dsc_lib_jsonschema6vscode8keywords12enum_detailsNtB5_18EnumDetailsKeywordNtNtNtCskyI9PLifvdp_10jsonschema8keywords6custom7Keyword8validate
FN:73,_RNvXs_NtNtNtCs92r3DgzGcjh_18dsc_lib_jsonschema6vscode8keywords12enum_detailsNtB4_18EnumDetailsKeywordNtCsdG7205R6am3_8schemars10JsonSchema11json_schema
FNDA:0,_RNCNvXNtNtNtCse9HBjRuE3ke_18dsc_lib_jsonschema6vscode8keywords12enum_detailsNtB4_18EnumDetailsKeywordNtNtB6_25vscode_keyword_definition23VSCodeKeywordDefinition15keyword_factory0Ba_
FNDA:0,_RNCNvXNtNtNtCse9HBjRuE3ke_18dsc_lib_jsonschema6vscode8keywords12enum_detailsNtB4_18EnumDetailsKeywordNtNtB6_25vscode_keyword_definition23VSCodeKeywordDefinition15keyword_factorys_0Ba_
FNDA:0,_RNvXNtNtNtCse9HBjRuE3ke_18dsc_lib_jsonschema6vscode8keywords12enum_detailsNtB2_18EnumDetailsKeywordNtNtB4_25vscode_keyword_definition23VSCodeKeywordDefinition15keyword_factory
FNDA:0,_RNvXs0_NtNtNtCse9HBjRuE3ke_18dsc_lib_jsonschema6vscode8keywords12enum_detailsNtB5_18EnumDetailsKeywordNtNtNtCs1pVHw2aflQo_10jsonschema8keywords6custom7Keyword8is_valid
FNDA:0,_RNvXs0_NtNtNtCse9HBjRuE3ke_18dsc_lib_jsonschema6vscode8keywords12enum_detailsNtB5_18EnumDetailsKeywordNtNtNtCs1pVHw2aflQo_10jsonschema8keywords6custom7Keyword8validate
FNDA:0,_RNvXs_NtNtNtCse9HBjRuE3ke_18dsc_lib_jsonschema6vscode8keywords12enum_detailsNtB4_18EnumDetailsKeywordNtCsdG7205R6am3_8schemars10JsonSchema11json_schema
FNDA:0,_RNvXs_NtNtNtCse9HBjRuE3ke_18dsc_lib_jsonschema6vscode8keywords12enum_detailsNtB4_18EnumDetailsKeywordNtCsdG7205R6am3_8schemars10JsonSchema11schema_name
FNDA:0,_RNvXNtNtNtCs1p6hG0j9t4b_18dsc_lib_jsonschema6vscode8keywords12enum_detailsNtB2_18EnumDetailsKeywordNtNtB4_25vscode_keyword_definition23VSCodeKeywordDefinition15keyword_factory
FNDA:0,_RNvXs0_NtNtNtCs1p6hG0j9t4b_18dsc_lib_jsonschema6vscode8keywords12enum_detailsNtB5_18EnumDetailsKeywordNtNtNtCskyI9PLifvdp_10jsonschema8keywords6custom7Keyword8is_valid
FNDA:0,_RNvXs0_NtNtNtCs1p6hG0j9t4b_18dsc_lib_jsonschema6vscode8keywords12enum_detailsNtB5_18EnumDetailsKeywordNtNtNtCskyI9PLifvdp_10jsonschema8keywords6custom7Keyword8validate
FNDA:0,_RNvXs_NtNtNtCs1p6hG0j9t4b_18dsc_lib_jsonschema6vscode8keywords12enum_detailsNtB4_18EnumDetailsKeywordNtCsdG7205R6am3_8schemars10JsonSchema11json_schema
FNDA:0,_RNvXs_NtNtNtCs1p6hG0j9t4b_18dsc_lib_jsonschema6vscode8keywords12enum_detailsNtB4_18EnumDetailsKeywordNtCsdG7205R6am3_8schemars10JsonSchema11schema_name
FNDA:0,_RNCNvXNtNtNtCs1p6hG0j9t4b_18dsc_lib_jsonschema6vscode8keywords12enum_detailsNtB4_18EnumDetailsKeywordNtNtB6_25vscode_keyword_definition23VSCodeKeywordDefinition15keyword_factory0Ba_
FNDA:0,_RNCNvXNtNtNtCs1p6hG0j9t4b_18dsc_lib_jsonschema6vscode8keywords12enum_detailsNtB4_18EnumDetailsKeywordNtNtB6_25vscode_keyword_definition23VSCodeKeywordDefinition15keyword_factorys_0Ba_
FNDA:0,_RNvXNtNtNtCs8FPg1R8LBRe_18dsc_lib_jsonschema6vscode8keywords12enum_detailsNtB2_18EnumDetailsKeywordNtNtB4_25vscode_keyword_definition23VSCodeKeywordDefinition15keyword_factory
FNDA:0,_RNvXs0_NtNtNtCs8FPg1R8LBRe_18dsc_lib_jsonschema6vscode8keywords12enum_detailsNtB5_18EnumDetailsKeywordNtNtNtCskyI9PLifvdp_10jsonschema8keywords6custom7Keyword8is_valid
FNDA:0,_RNvXs0_NtNtNtCs8FPg1R8LBRe_18dsc_lib_jsonschema6vscode8keywords12enum_detailsNtB5_18EnumDetailsKeywordNtNtNtCskyI9PLifvdp_10jsonschema8keywords6custom7Keyword8validate
FNDA:0,_RNvXs_NtNtNtCs8FPg1R8LBRe_18dsc_lib_jsonschema6vscode8keywords12enum_detailsNtB4_18EnumDetailsKeywordNtCsdG7205R6am3_8schemars10JsonSchema11json_schema
FNDA:0,_RNvXs_NtNtNtCs8FPg1R8LBRe_18dsc_lib_jsonschema6vscode8keywords12enum_detailsNtB4_18EnumDetailsKeywordNtCsdG7205R6am3_8schemars10JsonSchema11schema_name
FNDA:0,_RNCNvXNtNtNtCs8FPg1R8LBRe_18dsc_lib_jsonschema6vscode8keywords12enum_detailsNtB4_18EnumDetailsKeywordNtNtB6_25vscode_keyword_definition23VSCodeKeywordDefinition15keyword_factory0Ba_
FNDA:0,_RNCNvXNtNtNtCs8FPg1R8LBRe_18dsc_lib_jsonschema6vscode8keywords12enum_detailsNtB4_18EnumDetailsKeywordNtNtB6_25vscode_keyword_definition23VSCodeKeywordDefinition15keyword_factorys_0Ba_
FNDA:0,_RNvXs_NtNtNtCs6DmBUIV3MEM_18dsc_lib_jsonschema6vscode8keywords12enum_detailsNtB4_18EnumDetailsKeywordNtCsdG7205R6am3_8schemars10JsonSchema11schema_name
FNDA:3,_RNvXNtNtNtCs6DmBUIV3MEM_18dsc_lib_jsonschema6vscode8keywords12enum_detailsNtB2_18EnumDetailsKeywordNtNtB4_25vscode_keyword_definition23VSCodeKeywordDefinition15keyword_factory
FNDA:0,_RNvXs0_NtNtNtCs6DmBUIV3MEM_18dsc_lib_jsonschema6vscode8keywords12enum_detailsNtB5_18EnumDetailsKeywordNtNtNtCs1pVHw2aflQo_10jsonschema8keywords6custom7Keyword8is_valid
FNDA:0,_RNvXs0_NtNtNtCs6DmBUIV3MEM_18dsc_lib_jsonschema6vscode8keywords12enum_detailsNtB5_18EnumDetailsKeywordNtNtNtCs1pVHw2aflQo_10jsonschema8keywords6custom7Keyword8validate
FNDA:76,_RNvXs_NtNtNtCs6DmBUIV3MEM_18dsc_lib_jsonschema6vscode8keywords12enum_detailsNtB4_18EnumDetailsKeywordNtCsdG7205R6am3_8schemars10JsonSchema11json_schema
FNDA:5,_RNCNvXNtNtNtCs6DmBUIV3MEM_18dsc_lib_jsonschema6vscode8keywords12enum_detailsNtB4_18EnumDetailsKeywordNtNtB6_25vscode_keyword_definition23VSCodeKeywordDefinition15keyword_factory0Ba_
FNDA:3,_RNCNvXNtNtNtCs6DmBUIV3MEM_18dsc_lib_jsonschema6vscode8keywords12enum_detailsNtB4_18EnumDetailsKeywordNtNtB6_25vscode_keyword_definition23VSCodeKeywordDefinition15keyword_factorys_0Ba_
FNDA:0,_RNvXs_NtNtNtCs92r3DgzGcjh_18dsc_lib_jsonschema6vscode8keywords12enum_detailsNtB4_18EnumDetailsKeywordNtCsdG7205R6am3_8schemars10JsonSchema11schema_name
FNDA:5,_RNCNvXNtNtNtCs92r3DgzGcjh_18dsc_lib_jsonschema6vscode8keywords12enum_detailsNtB4_18EnumDetailsKeywordNtNtB6_25vscode_keyword_definition23VSCodeKeywordDefinition15keyword_factory0Ba_
FNDA:3,_RNCNvXNtNtNtCs92r3DgzGcjh_18dsc_lib_jsonschema6vscode8keywords12enum_detailsNtB4_18EnumDetailsKeywordNtNtB6_25vscode_keyword_definition23VSCodeKeywordDefinition15keyword_factorys_0Ba_
FNDA:3,_RNvXNtNtNtCs92r3DgzGcjh_18dsc_lib_jsonschema6vscode8keywords12enum_detailsNtB2_18EnumDetailsKeywordNtNtB4_25vscode_keyword_definition23VSCodeKeywordDefinition15keyword_factory
FNDA:0,_RNvXs0_NtNtNtCs92r3DgzGcjh_18dsc_lib_jsonschema6vscode8keywords12enum_detailsNtB5_18EnumDetailsKeywordNtNtNtCskyI9PLifvdp_10jsonschema8keywords6custom7Keyword8is_valid
FNDA:0,_RNvXs0_NtNtNtCs92r3DgzGcjh_18dsc_lib_jsonschema6vscode8keywords12enum_detailsNtB5_18EnumDetailsKeywordNtNtNtCskyI9PLifvdp_10jsonschema8keywords6custom7Keyword8validate
FNDA:76,_RNvXs_NtNtNtCs92r3DgzGcjh_18dsc_lib_jsonschema6vscode8keywords12enum_detailsNtB4_18EnumDetailsKeywordNtCsdG7205R6am3_8schemars10JsonSchema11json_schema
FNF:7
FNH:4
DA:35,6
DA:36,6
DA:37,6
DA:38,6
DA:39,6
DA:40,6
DA:41,10
DA:42,2
DA:43,6
DA:46,2
DA:47,2
DA:48,2
DA:49,2
DA:50,2
DA:52,2
DA:53,2
DA:58,2
DA:59,2
DA:60,2
DA:61,2
DA:62,2
DA:64,2
DA:65,2
DA:69,6
DA:73,152
DA:74,152
DA:75,152
DA:76,152
DA:77,152
DA:78,152
DA:79,152
DA:80,152
DA:81,152
DA:82,152
DA:85,152
DA:87,0
DA:88,0
DA:89,0
DA:93,0
DA:94,0
DA:95,0
DA:96,0
DA:97,0
DA:98,0
DA:99,0
DA:100,0
DA:101,0
DA:102,0
BRF:0
BRH:0
LF:50
LH:37
end_of_record
SF:/Users/steve/repos/DSC/lib/dsc-lib-jsonschema/src/vscode/keywords/enum_sort_texts.rs
FN:48,_RNCNvXNtNtNtCse9HBjRuE3ke_18dsc_lib_jsonschema6vscode8keywords15enum_sort_textsNtB4_20EnumSortTextsKeywordNtNtB6_25vscode_keyword_definition23VSCodeKeywordDefinition15keyword_factory0Ba_
FN:50,_RNCNvXNtNtNtCse9HBjRuE3ke_18dsc_lib_jsonschema6vscode8keywords15enum_sort_textsNtB4_20EnumSortTextsKeywordNtNtB6_25vscode_keyword_definition23VSCodeKeywordDefinition15keyword_factorys_0Ba_
FN:42,_RNvXNtNtNtCse9HBjRuE3ke_18dsc_lib_jsonschema6vscode8keywords15enum_sort_textsNtB2_20EnumSortTextsKeywordNtNtB4_25vscode_keyword_definition23VSCodeKeywordDefinition15keyword_factory
FN:107,_RNvXs0_NtNtNtCse9HBjRuE3ke_18dsc_lib_jsonschema6vscode8keywords15enum_sort_textsNtB5_20EnumSortTextsKeywordNtNtNtCs1pVHw2aflQo_10jsonschema8keywords6custom7Keyword8is_valid
FN:100,_RNvXs0_NtNtNtCse9HBjRuE3ke_18dsc_lib_jsonschema6vscode8keywords15enum_sort_textsNtB5_20EnumSortTextsKeywordNtNtNtCs1pVHw2aflQo_10jsonschema8keywords6custom7Keyword8validate
FN:80,_RNvXs_NtNtNtCse9HBjRuE3ke_18dsc_lib_jsonschema6vscode8keywords15enum_sort_textsNtB4_20EnumSortTextsKeywordNtCsdG7205R6am3_8schemars10JsonSchema11json_schema
FN:94,_RNvXs_NtNtNtCse9HBjRuE3ke_18dsc_lib_jsonschema6vscode8keywords15enum_sort_textsNtB4_20EnumSortTextsKeywordNtCsdG7205R6am3_8schemars10JsonSchema11schema_name
FN:42,_RNvXNtNtNtCs1p6hG0j9t4b_18dsc_lib_jsonschema6vscode8keywords15enum_sort_textsNtB2_20EnumSortTextsKeywordNtNtB4_25vscode_keyword_definition23VSCodeKeywordDefinition15keyword_factory
FN:107,_RNvXs0_NtNtNtCs1p6hG0j9t4b_18dsc_lib_jsonschema6vscode8keywords15enum_sort_textsNtB5_20EnumSortTextsKeywordNtNtNtCskyI9PLifvdp_10jsonschema8keywords6custom7Keyword8is_valid
FN:100,_RNvXs0_NtNtNtCs1p6hG0j9t4b_18dsc_lib_jsonschema6vscode8keywords15enum_sort_textsNtB5_20EnumSortTextsKeywordNtNtNtCskyI9PLifvdp_10jsonschema8keywords6custom7Keyword8validate
FN:80,_RNvXs_NtNtNtCs1p6hG0j9t4b_18dsc_lib_jsonschema6vscode8keywords15enum_sort_textsNtB4_20EnumSortTextsKeywordNtCsdG7205R6am3_8schemars10JsonSchema11json_schema
FN:94,_RNvXs_NtNtNtCs1p6hG0j9t4b_18dsc_lib_jsonschema6vscode8keywords15enum_sort_textsNtB4_20EnumSortTextsKeywordNtCsdG7205R6am3_8schemars10JsonSchema11schema_name
FN:48,_RNCNvXNtNtNtCs1p6hG0j9t4b_18dsc_lib_jsonschema6vscode8keywords15enum_sort_textsNtB4_20EnumSortTextsKeywordNtNtB6_25vscode_keyword_definition23VSCodeKeywordDefinition15keyword_factory0Ba_
FN:50,_RNCNvXNtNtNtCs1p6hG0j9t4b_18dsc_lib_jsonschema6vscode8keywords15enum_sort_textsNtB4_20EnumSortTextsKeywordNtNtB6_25vscode_keyword_definition23VSCodeKeywordDefinition15keyword_factorys_0Ba_
FN:42,_RNvXNtNtNtCs8FPg1R8LBRe_18dsc_lib_jsonschema6vscode8keywords15enum_sort_textsNtB2_20EnumSortTextsKeywordNtNtB4_25vscode_keyword_definition23VSCodeKeywordDefinition15keyword_factory
FN:107,_RNvXs0_NtNtNtCs8FPg1R8LBRe_18dsc_lib_jsonschema6vscode8keywords15enum_sort_textsNtB5_20EnumSortTextsKeywordNtNtNtCskyI9PLifvdp_10jsonschema8keywords6custom7Keyword8is_valid
FN:100,_RNvXs0_NtNtNtCs8FPg1R8LBRe_18dsc_lib_jsonschema6vscode8keywords15enum_sort_textsNtB5_20EnumSortTextsKeywordNtNtNtCskyI9PLifvdp_10jsonschema8keywords6custom7Keyword8validate
FN:80,_RNvXs_NtNtNtCs8FPg1R8LBRe_18dsc_lib_jsonschema6vscode8keywords15enum_sort_textsNtB4_20EnumSortTextsKeywordNtCsdG7205R6am3_8schemars10JsonSchema11json_schema
FN:94,_RNvXs_NtNtNtCs8FPg1R8LBRe_18dsc_lib_jsonschema6vscode8keywords15enum_sort_textsNtB4_20EnumSortTextsKeywordNtCsdG7205R6am3_8schemars10JsonSchema11schema_name
FN:48,_RNCNvXNtNtNtCs8FPg1R8LBRe_18dsc_lib_jsonschema6vscode8keywords15enum_sort_textsNtB4_20EnumSortTextsKeywordNtNtB6_25vscode_keyword_definition23VSCodeKeywordDefinition15keyword_factory0Ba_
FN:50,_RNCNvXNtNtNtCs8FPg1R8LBRe_18dsc_lib_jsonschema6vscode8keywords15enum_sort_textsNtB4_20EnumSortTextsKeywordNtNtB6_25vscode_keyword_definition23VSCodeKeywordDefinition15keyword_factorys_0Ba_
FN:42,_RNvXNtNtNtCs6DmBUIV3MEM_18dsc_lib_jsonschema6vscode8keywords15enum_sort_textsNtB2_20EnumSortTextsKeywordNtNtB4_25vscode_keyword_definition23VSCodeKeywordDefinition15keyword_factory
FN:107,_RNvXs0_NtNtNtCs6DmBUIV3MEM_18dsc_lib_jsonschema6vscode8keywords15enum_sort_textsNtB5_20EnumSortTextsKeywordNtNtNtCs1pVHw2aflQo_10jsonschema8keywords6custom7Keyword8is_valid
FN:100,_RNvXs0_NtNtNtCs6DmBUIV3MEM_18dsc_lib_jsonschema6vscode8keywords15enum_sort_textsNtB5_20EnumSortTextsKeywordNtNtNtCs1pVHw2aflQo_10jsonschema8keywords6custom7Keyword8validate
FN:80,_RNvXs_NtNtNtCs6DmBUIV3MEM_18dsc_lib_jsonschema6vscode8keywords15enum_sort_textsNtB4_20EnumSortTextsKeywordNtCsdG7205R6am3_8schemars10JsonSchema11json_schema
FN:94,_RNvXs_NtNtNtCs6DmBUIV3MEM_18dsc_lib_jsonschema6vscode8keywords15enum_sort_textsNtB4_20EnumSortTextsKeywordNtCsdG7205R6am3_8schemars10JsonSchema11schema_name
FN:48,_RNCNvXNtNtNtCs6DmBUIV3MEM_18dsc_lib_jsonschema6vscode8keywords15enum_sort_textsNtB4_20EnumSortTextsKeywordNtNtB6_25vscode_keyword_definition23VSCodeKeywordDefinition15keyword_factory0Ba_
FN:50,_RNCNvXNtNtNtCs6DmBUIV3MEM_18dsc_lib_jsonschema6vscode8keywords15enum_sort_textsNtB4_20EnumSortTextsKeywordNtNtB6_25vscode_keyword_definition23VSCodeKeywordDefinition15keyword_factorys_0Ba_
FN:94,_RNvXs_NtNtNtCs92r3DgzGcjh_18dsc_lib_jsonschema6vscode8keywords15enum_sort_textsNtB4_20EnumSortTextsKeywordNtCsdG7205R6am3_8schemars10JsonSchema11schema_name
FN:42,_RNvXNtNtNtCs92r3DgzGcjh_18dsc_lib_jsonschema6vscode8keywords15enum_sort_textsNtB2_20EnumSortTextsKeywordNtNtB4_25vscode_keyword_definition23VSCodeKeywordDefinition15keyword_factory
FN:107,_RNvXs0_NtNtNtCs92r3DgzGcjh_18dsc_lib_jsonschema6vscode8keywords15enum_sort_textsNtB5_20EnumSortTextsKeywordNtNtNtCskyI9PLifvdp_10jsonschema8keywords6custom7Keyword8is_valid
FN:100,_RNvXs0_NtNtNtCs92r3DgzGcjh_18dsc_lib_jsonschema6vscode8keywords15enum_sort_textsNtB5_20EnumSortTextsKeywordNtNtNtCskyI9PLifvdp_10jsonschema8keywords6custom7Keyword8validate
FN:80,_RNvXs_NtNtNtCs92r3DgzGcjh_18dsc_lib_jsonschema6vscode8keywords15enum_sort_textsNtB4_20EnumSortTextsKeywordNtCsdG7205R6am3_8schemars10JsonSchema11json_schema
FN:48,_RNCNvXNtNtNtCs92r3DgzGcjh_18dsc_lib_jsonschema6vscode8keywords15enum_sort_textsNtB4_20EnumSortTextsKeywordNtNtB6_25vscode_keyword_definition23VSCodeKeywordDefinition15keyword_factory0Ba_
FN:50,_RNCNvXNtNtNtCs92r3DgzGcjh_18dsc_lib_jsonschema6vscode8keywords15enum_sort_textsNtB4_20EnumSortTextsKeywordNtNtB6_25vscode_keyword_definition23VSCodeKeywordDefinition15keyword_factorys_0Ba_
FNDA:0,_RNCNvXNtNtNtCse9HBjRuE3ke_18dsc_lib_jsonschema6vscode8keywords15enum_sort_textsNtB4_20EnumSortTextsKeywordNtNtB6_25vscode_keyword_definition23VSCodeKeywordDefinition15keyword_factory0Ba_
FNDA:0,_RNCNvXNtNtNtCse9HBjRuE3ke_18dsc_lib_jsonschema6vscode8keywords15enum_sort_textsNtB4_20EnumSortTextsKeywordNtNtB6_25vscode_keyword_definition23VSCodeKeywordDefinition15keyword_factorys_0Ba_
FNDA:0,_RNvXNtNtNtCse9HBjRuE3ke_18dsc_lib_jsonschema6vscode8keywords15enum_sort_textsNtB2_20EnumSortTextsKeywordNtNtB4_25vscode_keyword_definition23VSCodeKeywordDefinition15keyword_factory
FNDA:0,_RNvXs0_NtNtNtCse9HBjRuE3ke_18dsc_lib_jsonschema6vscode8keywords15enum_sort_textsNtB5_20EnumSortTextsKeywordNtNtNtCs1pVHw2aflQo_10jsonschema8keywords6custom7Keyword8is_valid
FNDA:0,_RNvXs0_NtNtNtCse9HBjRuE3ke_18dsc_lib_jsonschema6vscode8keywords15enum_sort_textsNtB5_20EnumSortTextsKeywordNtNtNtCs1pVHw2aflQo_10jsonschema8keywords6custom7Keyword8validate
FNDA:0,_RNvXs_NtNtNtCse9HBjRuE3ke_18dsc_lib_jsonschema6vscode8keywords15enum_sort_textsNtB4_20EnumSortTextsKeywordNtCsdG7205R6am3_8schemars10JsonSchema11json_schema
FNDA:0,_RNvXs_NtNtNtCse9HBjRuE3ke_18dsc_lib_jsonschema6vscode8keywords15enum_sort_textsNtB4_20EnumSortTextsKeywordNtCsdG7205R6am3_8schemars10JsonSchema11schema_name
FNDA:0,_RNvXNtNtNtCs1p6hG0j9t4b_18dsc_lib_jsonschema6vscode8keywords15enum_sort_textsNtB2_20EnumSortTextsKeywordNtNtB4_25vscode_keyword_definition23VSCodeKeywordDefinition15keyword_factory
FNDA:0,_RNvXs0_NtNtNtCs1p6hG0j9t4b_18dsc_lib_jsonschema6vscode8keywords15enum_sort_textsNtB5_20EnumSortTextsKeywordNtNtNtCskyI9PLifvdp_10jsonschema8keywords6custom7Keyword8is_valid
FNDA:0,_RNvXs0_NtNtNtCs1p6hG0j9t4b_18dsc_lib_jsonschema6vscode8keywords15enum_sort_textsNtB5_20EnumSortTextsKeywordNtNtNtCskyI9PLifvdp_10jsonschema8keywords6custom7Keyword8validate
FNDA:0,_RNvXs_NtNtNtCs1p6hG0j9t4b_18dsc_lib_jsonschema6vscode8keywords15enum_sort_textsNtB4_20EnumSortTextsKeywordNtCsdG7205R6am3_8schemars10JsonSchema11json_schema
FNDA:0,_RNvXs_NtNtNtCs1p6hG0j9t4b_18dsc_lib_jsonschema6vscode8keywords15enum_sort_textsNtB4_20EnumSortTextsKeywordNtCsdG7205R6am3_8schemars10JsonSchema11schema_name
FNDA:0,_RNCNvXNtNtNtCs1p6hG0j9t4b_18dsc_lib_jsonschema6vscode8keywords15enum_sort_textsNtB4_20EnumSortTextsKeywordNtNtB6_25vscode_keyword_definition23VSCodeKeywordDefinition15keyword_factory0Ba_
FNDA:0,_RNCNvXNtNtNtCs1p6hG0j9t4b_18dsc_lib_jsonschema6vscode8keywords15enum_sort_textsNtB4_20EnumSortTextsKeywordNtNtB6_25vscode_keyword_definition23VSCodeKeywordDefinition15keyword_factorys_0Ba_
FNDA:0,_RNvXNtNtNtCs8FPg1R8LBRe_18dsc_lib_jsonschema6vscode8keywords15enum_sort_textsNtB2_20EnumSortTextsKeywordNtNtB4_25vscode_keyword_definition23VSCodeKeywordDefinition15keyword_factory
FNDA:0,_RNvXs0_NtNtNtCs8FPg1R8LBRe_18dsc_lib_jsonschema6vscode8keywords15enum_sort_textsNtB5_20EnumSortTextsKeywordNtNtNtCskyI9PLifvdp_10jsonschema8keywords6custom7Keyword8is_valid
FNDA:0,_RNvXs0_NtNtNtCs8FPg1R8LBRe_18dsc_lib_jsonschema6vscode8keywords15enum_sort_textsNtB5_20EnumSortTextsKeywordNtNtNtCskyI9PLifvdp_10jsonschema8keywords6custom7Keyword8validate
FNDA:0,_RNvXs_NtNtNtCs8FPg1R8LBRe_18dsc_lib_jsonschema6vscode8keywords15enum_sort_textsNtB4_20EnumSortTextsKeywordNtCsdG7205R6am3_8schemars10JsonSchema11json_schema
FNDA:0,_RNvXs_NtNtNtCs8FPg1R8LBRe_18dsc_lib_jsonschema6vscode8keywords15enum_sort_textsNtB4_20EnumSortTextsKeywordNtCsdG7205R6am3_8schemars10JsonSchema11schema_name
FNDA:0,_RNCNvXNtNtNtCs8FPg1R8LBRe_18dsc_lib_jsonschema6vscode8keywords15enum_sort_textsNtB4_20EnumSortTextsKeywordNtNtB6_25vscode_keyword_definition23VSCodeKeywordDefinition15keyword_factory0Ba_
FNDA:0,_RNCNvXNtNtNtCs8FPg1R8LBRe_18dsc_lib_jsonschema6vscode8keywords15enum_sort_textsNtB4_20EnumSortTextsKeywordNtNtB6_25vscode_keyword_definition23VSCodeKeywordDefinition15keyword_factorys_0Ba_
FNDA:3,_RNvXNtNtNtCs6DmBUIV3MEM_18dsc_lib_jsonschema6vscode8keywords15enum_sort_textsNtB2_20EnumSortTextsKeywordNtNtB4_25vscode_keyword_definition23VSCodeKeywordDefinition15keyword_factory
FNDA:0,_RNvXs0_NtNtNtCs6DmBUIV3MEM_18dsc_lib_jsonschema6vscode8keywords15enum_sort_textsNtB5_20EnumSortTextsKeywordNtNtNtCs1pVHw2aflQo_10jsonschema8keywords6custom7Keyword8is_valid
FNDA:0,_RNvXs0_NtNtNtCs6DmBUIV3MEM_18dsc_lib_jsonschema6vscode8keywords15enum_sort_textsNtB5_20EnumSortTextsKeywordNtNtNtCs1pVHw2aflQo_10jsonschema8keywords6custom7Keyword8validate
FNDA:76,_RNvXs_NtNtNtCs6DmBUIV3MEM_18dsc_lib_jsonschema6vscode8keywords15enum_sort_textsNtB4_20EnumSortTextsKeywordNtCsdG7205R6am3_8schemars10JsonSchema11json_schema
FNDA:0,_RNvXs_NtNtNtCs6DmBUIV3MEM_18dsc_lib_jsonschema6vscode8keywords15enum_sort_textsNtB4_20EnumSortTextsKeywordNtCsdG7205R6am3_8schemars10JsonSchema11schema_name
FNDA:5,_RNCNvXNtNtNtCs6DmBUIV3MEM_18dsc_lib_jsonschema6vscode8keywords15enum_sort_textsNtB4_20EnumSortTextsKeywordNtNtB6_25vscode_keyword_definition23VSCodeKeywordDefinition15keyword_factory0Ba_
FNDA:3,_RNCNvXNtNtNtCs6DmBUIV3MEM_18dsc_lib_jsonschema6vscode8keywords15enum_sort_textsNtB4_20EnumSortTextsKeywordNtNtB6_25vscode_keyword_definition23VSCodeKeywordDefinition15keyword_factorys_0Ba_
FNDA:0,_RNvXs_NtNtNtCs92r3DgzGcjh_18dsc_lib_jsonschema6vscode8keywords15enum_sort_textsNtB4_20EnumSortTextsKeywordNtCsdG7205R6am3_8schemars10JsonSchema11schema_name
FNDA:3,_RNvXNtNtNtCs92r3DgzGcjh_18dsc_lib_jsonschema6vscode8keywords15enum_sort_textsNtB2_20EnumSortTextsKeywordNtNtB4_25vscode_keyword_definition23VSCodeKeywordDefinition15keyword_factory
FNDA:0,_RNvXs0_NtNtNtCs92r3DgzGcjh_18dsc_lib_jsonschema6vscode8keywords15enum_sort_textsNtB5_20EnumSortTextsKeywordNtNtNtCskyI9PLifvdp_10jsonschema8keywords6custom7Keyword8is_valid
FNDA:0,_RNvXs0_NtNtNtCs92r3DgzGcjh_18dsc_lib_jsonschema6vscode8keywords15enum_sort_textsNtB5_20EnumSortTextsKeywordNtNtNtCskyI9PLifvdp_10jsonschema8keywords6custom7Keyword8validate
FNDA:76,_RNvXs_NtNtNtCs92r3DgzGcjh_18dsc_lib_jsonschema6vscode8keywords15enum_sort_textsNtB4_20EnumSortTextsKeywordNtCsdG7205R6am3_8schemars10JsonSchema11json_schema
FNDA:5,_RNCNvXNtNtNtCs92r3DgzGcjh_18dsc_lib_jsonschema6vscode8keywords15enum_sort_textsNtB4_20EnumSortTextsKeywordNtNtB6_25vscode_keyword_definition23VSCodeKeywordDefinition15keyword_factory0Ba_
FNDA:3,_RNCNvXNtNtNtCs92r3DgzGcjh_18dsc_lib_jsonschema6vscode8keywords15enum_sort_textsNtB4_20EnumSortTextsKeywordNtNtB6_25vscode_keyword_definition23VSCodeKeywordDefinition15keyword_factorys_0Ba_
FNF:7
FNH:4
DA:42,6
DA:43,6
DA:44,6
DA:45,6
DA:46,6
DA:47,6
DA:48,10
DA:49,2
DA:50,6
DA:53,2
DA:54,2
DA:55,2
DA:56,2
DA:57,2
DA:59,2
DA:60,2
DA:65,2
DA:66,2
DA:67,2
DA:68,2
DA:69,2
DA:71,2
DA:72,2
DA:76,6
DA:80,152
DA:81,152
DA:82,152
DA:83,152
DA:84,152
DA:85,152
DA:86,152
DA:87,152
DA:88,152
DA:89,152
DA:92,152
DA:94,0
DA:95,0
DA:96,0
DA:100,0
DA:101,0
DA:102,0
DA:103,0
DA:104,0
DA:105,0
DA:106,0
DA:107,0
DA:108,0
DA:109,0
BRF:0
BRH:0
LF:50
LH:37
end_of_record
SF:/Users/steve/repos/DSC/lib/dsc-lib-jsonschema/src/vscode/keywords/error_message.rs
FN:51,_RNvXNtNtNtCse9HBjRuE3ke_18dsc_lib_jsonschema6vscode8keywords13error_messageNtB2_19ErrorMessageKeywordNtNtB4_25vscode_keyword_definition23VSCodeKeywordDefinition15keyword_factory
FN:94,_RNvXs0_NtNtNtCse9HBjRuE3ke_18dsc_lib_jsonschema6vscode8keywords13error_messageNtB5_19ErrorMessageKeywordNtNtNtCs1pVHw2aflQo_10jsonschema8keywords6custom7Keyword8is_valid
FN:87,_RNvXs0_NtNtNtCse9HBjRuE3ke_18dsc_lib_jsonschema6vscode8keywords13error_messageNtB5_19ErrorMessageKeywordNtNtNtCs1pVHw2aflQo_10jsonschema8keywords6custom7Keyword8validate
FN:70,_RNvXs_NtNtNtCse9HBjRuE3ke_18dsc_lib_jsonschema6vscode8keywords13error_messageNtB4_19ErrorMessageKeywordNtCsdG7205R6am3_8schemars10JsonSchema11json_schema
FN:81,_RNvXs_NtNtNtCse9HBjRuE3ke_18dsc_lib_jsonschema6vscode8keywords13error_messageNtB4_19ErrorMessageKeywordNtCsdG7205R6am3_8schemars10JsonSchema11schema_name
FN:51,_RNvXNtNtNtCs1p6hG0j9t4b_18dsc_lib_jsonschema6vscode8keywords13error_messageNtB2_19ErrorMessageKeywordNtNtB4_25vscode_keyword_definition23VSCodeKeywordDefinition15keyword_factory
FN:94,_RNvXs0_NtNtNtCs1p6hG0j9t4b_18dsc_lib_jsonschema6vscode8keywords13error_messageNtB5_19ErrorMessageKeywordNtNtNtCskyI9PLifvdp_10jsonschema8keywords6custom7Keyword8is_valid
FN:87,_RNvXs0_NtNtNtCs1p6hG0j9t4b_18dsc_lib_jsonschema6vscode8keywords13error_messageNtB5_19ErrorMessageKeywordNtNtNtCskyI9PLifvdp_10jsonschema8keywords6custom7Keyword8validate
FN:70,_RNvXs_NtNtNtCs1p6hG0j9t4b_18dsc_lib_jsonschema6vscode8keywords13error_messageNtB4_19ErrorMessageKeywordNtCsdG7205R6am3_8schemars10JsonSchema11json_schema
FN:81,_RNvXs_NtNtNtCs1p6hG0j9t4b_18dsc_lib_jsonschema6vscode8keywords13error_messageNtB4_19ErrorMessageKeywordNtCsdG7205R6am3_8schemars10JsonSchema11schema_name
FN:51,_RNvXNtNtNtCs8FPg1R8LBRe_18dsc_lib_jsonschema6vscode8keywords13error_messageNtB2_19ErrorMessageKeywordNtNtB4_25vscode_keyword_definition23VSCodeKeywordDefinition15keyword_factory
FN:94,_RNvXs0_NtNtNtCs8FPg1R8LBRe_18dsc_lib_jsonschema6vscode8keywords13error_messageNtB5_19ErrorMessageKeywordNtNtNtCskyI9PLifvdp_10jsonschema8keywords6custom7Keyword8is_valid
FN:87,_RNvXs0_NtNtNtCs8FPg1R8LBRe_18dsc_lib_jsonschema6vscode8keywords13error_messageNtB5_19ErrorMessageKeywordNtNtNtCskyI9PLifvdp_10jsonschema8keywords6custom7Keyword8validate
FN:70,_RNvXs_NtNtNtCs8FPg1R8LBRe_18dsc_lib_jsonschema6vscode8keywords13error_messageNtB4_19ErrorMessageKeywordNtCsdG7205R6am3_8schemars10JsonSchema11json_schema
FN:81,_RNvXs_NtNtNtCs8FPg1R8LBRe_18dsc_lib_jsonschema6vscode8keywords13error_messageNtB4_19ErrorMessageKeywordNtCsdG7205R6am3_8schemars10JsonSchema11schema_name
FN:81,_RNvXs_NtNtNtCs6DmBUIV3MEM_18dsc_lib_jsonschema6vscode8keywords13error_messageNtB4_19ErrorMessageKeywordNtCsdG7205R6am3_8schemars10JsonSchema11schema_name
FN:51,_RNvXNtNtNtCs6DmBUIV3MEM_18dsc_lib_jsonschema6vscode8keywords13error_messageNtB2_19ErrorMessageKeywordNtNtB4_25vscode_keyword_definition23VSCodeKeywordDefinition15keyword_factory
FN:94,_RNvXs0_NtNtNtCs6DmBUIV3MEM_18dsc_lib_jsonschema6vscode8keywords13error_messageNtB5_19ErrorMessageKeywordNtNtNtCs1pVHw2aflQo_10jsonschema8keywords6custom7Keyword8is_valid
FN:87,_RNvXs0_NtNtNtCs6DmBUIV3MEM_18dsc_lib_jsonschema6vscode8keywords13error_messageNtB5_19ErrorMessageKeywordNtNtNtCs1pVHw2aflQo_10jsonschema8keywords6custom7Keyword8validate
FN:70,_RNvXs_NtNtNtCs6DmBUIV3MEM_18dsc_lib_jsonschema6vscode8keywords13error_messageNtB4_19ErrorMessageKeywordNtCsdG7205R6am3_8schemars10JsonSchema11json_schema
FN:81,_RNvXs_NtNtNtCs92r3DgzGcjh_18dsc_lib_jsonschema6vscode8keywords13error_messageNtB4_19ErrorMessageKeywordNtCsdG7205R6am3_8schemars10JsonSchema11schema_name
FN:51,_RNvXNtNtNtCs92r3DgzGcjh_18dsc_lib_jsonschema6vscode8keywords13error_messageNtB2_19ErrorMessageKeywordNtNtB4_25vscode_keyword_definition23VSCodeKeywordDefinition15keyword_factory
FN:94,_RNvXs0_NtNtNtCs92r3DgzGcjh_18dsc_lib_jsonschema6vscode8keywords13error_messageNtB5_19ErrorMessageKeywordNtNtNtCskyI9PLifvdp_10jsonschema8keywords6custom7Keyword8is_valid
FN:87,_RNvXs0_NtNtNtCs92r3DgzGcjh_18dsc_lib_jsonschema6vscode8keywords13error_messageNtB5_19ErrorMessageKeywordNtNtNtCskyI9PLifvdp_10jsonschema8keywords6custom7Keyword8validate
FN:70,_RNvXs_NtNtNtCs92r3DgzGcjh_18dsc_lib_jsonschema6vscode8keywords13error_messageNtB4_19ErrorMessageKeywordNtCsdG7205R6am3_8schemars10JsonSchema11json_schema
FNDA:0,_RNvXNtNtNtCse9HBjRuE3ke_18dsc_lib_jsonschema6vscode8keywords13error_messageNtB2_19ErrorMessageKeywordNtNtB4_25vscode_keyword_definition23VSCodeKeywordDefinition15keyword_factory
FNDA:0,_RNvXs0_NtNtNtCse9HBjRuE3ke_18dsc_lib_jsonschema6vscode8keywords13error_messageNtB5_19ErrorMessageKeywordNtNtNtCs1pVHw2aflQo_10jsonschema8keywords6custom7Keyword8is_valid
FNDA:0,_RNvXs0_NtNtNtCse9HBjRuE3ke_18dsc_lib_jsonschema6vscode8keywords13error_messageNtB5_19ErrorMessageKeywordNtNtNtCs1pVHw2aflQo_10jsonschema8keywords6custom7Keyword8validate
FNDA:0,_RNvXs_NtNtNtCse9HBjRuE3ke_18dsc_lib_jsonschema6vscode8keywords13error_messageNtB4_19ErrorMessageKeywordNtCsdG7205R6am3_8schemars10JsonSchema11json_schema
FNDA:0,_RNvXs_NtNtNtCse9HBjRuE3ke_18dsc_lib_jsonschema6vscode8keywords13error_messageNtB4_19ErrorMessageKeywordNtCsdG7205R6am3_8schemars10JsonSchema11schema_name
FNDA:0,_RNvXNtNtNtCs1p6hG0j9t4b_18dsc_lib_jsonschema6vscode8keywords13error_messageNtB2_19ErrorMessageKeywordNtNtB4_25vscode_keyword_definition23VSCodeKeywordDefinition15keyword_factory
FNDA:0,_RNvXs0_NtNtNtCs1p6hG0j9t4b_18dsc_lib_jsonschema6vscode8keywords13error_messageNtB5_19ErrorMessageKeywordNtNtNtCskyI9PLifvdp_10jsonschema8keywords6custom7Keyword8is_valid
FNDA:0,_RNvXs0_NtNtNtCs1p6hG0j9t4b_18dsc_lib_jsonschema6vscode8keywords13error_messageNtB5_19ErrorMessageKeywordNtNtNtCskyI9PLifvdp_10jsonschema8keywords6custom7Keyword8validate
FNDA:0,_RNvXs_NtNtNtCs1p6hG0j9t4b_18dsc_lib_jsonschema6vscode8keywords13error_messageNtB4_19ErrorMessageKeywordNtCsdG7205R6am3_8schemars10JsonSchema11json_schema
FNDA:0,_RNvXs_NtNtNtCs1p6hG0j9t4b_18dsc_lib_jsonschema6vscode8keywords13error_messageNtB4_19ErrorMessageKeywordNtCsdG7205R6am3_8schemars10JsonSchema11schema_name
FNDA:0,_RNvXNtNtNtCs8FPg1R8LBRe_18dsc_lib_jsonschema6vscode8keywords13error_messageNtB2_19ErrorMessageKeywordNtNtB4_25vscode_keyword_definition23VSCodeKeywordDefinition15keyword_factory
FNDA:0,_RNvXs0_NtNtNtCs8FPg1R8LBRe_18dsc_lib_jsonschema6vscode8keywords13error_messageNtB5_19ErrorMessageKeywordNtNtNtCskyI9PLifvdp_10jsonschema8keywords6custom7Keyword8is_valid
FNDA:0,_RNvXs0_NtNtNtCs8FPg1R8LBRe_18dsc_lib_jsonschema6vscode8keywords13error_messageNtB5_19ErrorMessageKeywordNtNtNtCskyI9PLifvdp_10jsonschema8keywords6custom7Keyword8validate
FNDA:0,_RNvXs_NtNtNtCs8FPg1R8LBRe_18dsc_lib_jsonschema6vscode8keywords13error_messageNtB4_19ErrorMessageKeywordNtCsdG7205R6am3_8schemars10JsonSchema11json_schema
FNDA:0,_RNvXs_NtNtNtCs8FPg1R8LBRe_18dsc_lib_jsonschema6vscode8keywords13error_messageNtB4_19ErrorMessageKeywordNtCsdG7205R6am3_8schemars10JsonSchema11schema_name
FNDA:0,_RNvXs_NtNtNtCs6DmBUIV3MEM_18dsc_lib_jsonschema6vscode8keywords13error_messageNtB4_19ErrorMessageKeywordNtCsdG7205R6am3_8schemars10JsonSchema11schema_name
FNDA:2,_RNvXNtNtNtCs6DmBUIV3MEM_18dsc_lib_jsonschema6vscode8keywords13error_messageNtB2_19ErrorMessageKeywordNtNtB4_25vscode_keyword_definition23VSCodeKeywordDefinition15keyword_factory
FNDA:0,_RNvXs0_NtNtNtCs6DmBUIV3MEM_18dsc_lib_jsonschema6vscode8keywords13error_messageNtB5_19ErrorMessageKeywordNtNtNtCs1pVHw2aflQo_10jsonschema8keywords6custom7Keyword8is_valid
FNDA:0,_RNvXs0_NtNtNtCs6DmBUIV3MEM_18dsc_lib_jsonschema6vscode8keywords13error_messageNtB5_19ErrorMessageKeywordNtNtNtCs1pVHw2aflQo_10jsonschema8keywords6custom7Keyword8validate
FNDA:72,_RNvXs_NtNtNtCs6DmBUIV3MEM_18dsc_lib_jsonschema6vscode8keywords13error_messageNtB4_19ErrorMessageKeywordNtCsdG7205R6am3_8schemars10JsonSchema11json_schema
FNDA:0,_RNvXs_NtNtNtCs92r3DgzGcjh_18dsc_lib_jsonschema6vscode8keywords13error_messageNtB4_19ErrorMessageKeywordNtCsdG7205R6am3_8schemars10JsonSchema11schema_name
FNDA:2,_RNvXNtNtNtCs92r3DgzGcjh_18dsc_lib_jsonschema6vscode8keywords13error_messageNtB2_19ErrorMessageKeywordNtNtB4_25vscode_keyword_definition23VSCodeKeywordDefinition15keyword_factory
FNDA:0,_RNvXs0_NtNtNtCs92r3DgzGcjh_18dsc_lib_jsonschema6vscode8keywords13error_messageNtB5_19ErrorMessageKeywordNtNtNtCskyI9PLifvdp_10jsonschema8keywords6custom7Keyword8is_valid
FNDA:0,_RNvXs0_NtNtNtCs92r3DgzGcjh_18dsc_lib_jsonschema6vscode8keywords13error_messageNtB5_19ErrorMessageKeywordNtNtNtCskyI9PLifvdp_10jsonschema8keywords6custom7Keyword8validate
FNDA:72,_RNvXs_NtNtNtCs92r3DgzGcjh_18dsc_lib_jsonschema6vscode8keywords13error_messageNtB4_19ErrorMessageKeywordNtCsdG7205R6am3_8schemars10JsonSchema11json_schema
FNF:5
FNH:2
DA:51,4
DA:52,4
DA:53,4
DA:54,4
DA:55,4
DA:56,4
DA:57,2
DA:59,2
DA:60,2
DA:61,2
DA:62,2
DA:63,2
DA:66,4
DA:70,144
DA:71,144
DA:72,144
DA:73,144
DA:74,144
DA:75,144
DA:76,144
DA:77,144
DA:79,144
DA:81,0
DA:82,0
DA:83,0
DA:87,0
DA:88,0
DA:89,0
DA:90,0
DA:91,0
DA:92,0
DA:93,0
DA:94,0
DA:95,0
DA:96,0
BRF:0
BRH:0
LF:35
LH:22
end_of_record
SF:/Users/steve/repos/DSC/lib/dsc-lib-jsonschema/src/vscode/keywords/markdown_description.rs
FN:39,_RNvXNtNtNtCse9HBjRuE3ke_18dsc_lib_jsonschema6vscode8keywords20markdown_descriptionNtB2_26MarkdownDescriptionKeywordNtNtB4_25vscode_keyword_definition23VSCodeKeywordDefinition15keyword_factory
FN:82,_RNvXs0_NtNtNtCse9HBjRuE3ke_18dsc_lib_jsonschema6vscode8keywords20markdown_descriptionNtB5_26MarkdownDescriptionKeywordNtNtNtCs1pVHw2aflQo_10jsonschema8keywords6custom7Keyword8is_valid
FN:75,_RNvXs0_NtNtNtCse9HBjRuE3ke_18dsc_lib_jsonschema6vscode8keywords20markdown_descriptionNtB5_26MarkdownDescriptionKeywordNtNtNtCs1pVHw2aflQo_10jsonschema8keywords6custom7Keyword8validate
FN:58,_RNvXs_NtNtNtCse9HBjRuE3ke_18dsc_lib_jsonschema6vscode8keywords20markdown_descriptionNtB4_26MarkdownDescriptionKeywordNtCsdG7205R6am3_8schemars10JsonSchema11json_schema
FN:69,_RNvXs_NtNtNtCse9HBjRuE3ke_18dsc_lib_jsonschema6vscode8keywords20markdown_descriptionNtB4_26MarkdownDescriptionKeywordNtCsdG7205R6am3_8schemars10JsonSchema11schema_name
FN:39,_RNvXNtNtNtCs1p6hG0j9t4b_18dsc_lib_jsonschema6vscode8keywords20markdown_descriptionNtB2_26MarkdownDescriptionKeywordNtNtB4_25vscode_keyword_definition23VSCodeKeywordDefinition15keyword_factory
FN:82,_RNvXs0_NtNtNtCs1p6hG0j9t4b_18dsc_lib_jsonschema6vscode8keywords20markdown_descriptionNtB5_26MarkdownDescriptionKeywordNtNtNtCskyI9PLifvdp_10jsonschema8keywords6custom7Keyword8is_valid
FN:75,_RNvXs0_NtNtNtCs1p6hG0j9t4b_18dsc_lib_jsonschema6vscode8keywords20markdown_descriptionNtB5_26MarkdownDescriptionKeywordNtNtNtCskyI9PLifvdp_10jsonschema8keywords6custom7Keyword8validate
FN:58,_RNvXs_NtNtNtCs1p6hG0j9t4b_18dsc_lib_jsonschema6vscode8keywords20markdown_descriptionNtB4_26MarkdownDescriptionKeywordNtCsdG7205R6am3_8schemars10JsonSchema11json_schema
FN:69,_RNvXs_NtNtNtCs1p6hG0j9t4b_18dsc_lib_jsonschema6vscode8keywords20markdown_descriptionNtB4_26MarkdownDescriptionKeywordNtCsdG7205R6am3_8schemars10JsonSchema11schema_name
FN:39,_RNvXNtNtNtCs8FPg1R8LBRe_18dsc_lib_jsonschema6vscode8keywords20markdown_descriptionNtB2_26MarkdownDescriptionKeywordNtNtB4_25vscode_keyword_definition23VSCodeKeywordDefinition15keyword_factory
FN:82,_RNvXs0_NtNtNtCs8FPg1R8LBRe_18dsc_lib_jsonschema6vscode8keywords20markdown_descriptionNtB5_26MarkdownDescriptionKeywordNtNtNtCskyI9PLifvdp_10jsonschema8keywords6custom7Keyword8is_valid
FN:75,_RNvXs0_NtNtNtCs8FPg1R8LBRe_18dsc_lib_jsonschema6vscode8keywords20markdown_descriptionNtB5_26MarkdownDescriptionKeywordNtNtNtCskyI9PLifvdp_10jsonschema8keywords6custom7Keyword8validate
FN:58,_RNvXs_NtNtNtCs8FPg1R8LBRe_18dsc_lib_jsonschema6vscode8keywords20markdown_descriptionNtB4_26MarkdownDescriptionKeywordNtCsdG7205R6am3_8schemars10JsonSchema11json_schema
FN:69,_RNvXs_NtNtNtCs8FPg1R8LBRe_18dsc_lib_jsonschema6vscode8keywords20markdown_descriptionNtB4_26MarkdownDescriptionKeywordNtCsdG7205R6am3_8schemars10JsonSchema11schema_name
FN:69,_RNvXs_NtNtNtCs6DmBUIV3MEM_18dsc_lib_jsonschema6vscode8keywords20markdown_descriptionNtB4_26MarkdownDescriptionKeywordNtCsdG7205R6am3_8schemars10JsonSchema11schema_name
FN:39,_RNvXNtNtNtCs6DmBUIV3MEM_18dsc_lib_jsonschema6vscode8keywords20markdown_descriptionNtB2_26MarkdownDescriptionKeywordNtNtB4_25vscode_keyword_definition23VSCodeKeywordDefinition15keyword_factory
FN:82,_RNvXs0_NtNtNtCs6DmBUIV3MEM_18dsc_lib_jsonschema6vscode8keywords20markdown_descriptionNtB5_26MarkdownDescriptionKeywordNtNtNtCs1pVHw2aflQo_10jsonschema8keywords6custom7Keyword8is_valid
FN:75,_RNvXs0_NtNtNtCs6DmBUIV3MEM_18dsc_lib_jsonschema6vscode8keywords20markdown_descriptionNtB5_26MarkdownDescriptionKeywordNtNtNtCs1pVHw2aflQo_10jsonschema8keywords6custom7Keyword8validate
FN:58,_RNvXs_NtNtNtCs6DmBUIV3MEM_18dsc_lib_jsonschema6vscode8keywords20markdown_descriptionNtB4_26MarkdownDescriptionKeywordNtCsdG7205R6am3_8schemars10JsonSchema11json_schema
FN:69,_RNvXs_NtNtNtCs92r3DgzGcjh_18dsc_lib_jsonschema6vscode8keywords20markdown_descriptionNtB4_26MarkdownDescriptionKeywordNtCsdG7205R6am3_8schemars10JsonSchema11schema_name
FN:39,_RNvXNtNtNtCs92r3DgzGcjh_18dsc_lib_jsonschema6vscode8keywords20markdown_descriptionNtB2_26MarkdownDescriptionKeywordNtNtB4_25vscode_keyword_definition23VSCodeKeywordDefinition15keyword_factory
FN:82,_RNvXs0_NtNtNtCs92r3DgzGcjh_18dsc_lib_jsonschema6vscode8keywords20markdown_descriptionNtB5_26MarkdownDescriptionKeywordNtNtNtCskyI9PLifvdp_10jsonschema8keywords6custom7Keyword8is_valid
FN:75,_RNvXs0_NtNtNtCs92r3DgzGcjh_18dsc_lib_jsonschema6vscode8keywords20markdown_descriptionNtB5_26MarkdownDescriptionKeywordNtNtNtCskyI9PLifvdp_10jsonschema8keywords6custom7Keyword8validate
FN:58,_RNvXs_NtNtNtCs92r3DgzGcjh_18dsc_lib_jsonschema6vscode8keywords20markdown_descriptionNtB4_26MarkdownDescriptionKeywordNtCsdG7205R6am3_8schemars10JsonSchema11json_schema
FNDA:0,_RNvXNtNtNtCse9HBjRuE3ke_18dsc_lib_jsonschema6vscode8keywords20markdown_descriptionNtB2_26MarkdownDescriptionKeywordNtNtB4_25vscode_keyword_definition23VSCodeKeywordDefinition15keyword_factory
FNDA:0,_RNvXs0_NtNtNtCse9HBjRuE3ke_18dsc_lib_jsonschema6vscode8keywords20markdown_descriptionNtB5_26MarkdownDescriptionKeywordNtNtNtCs1pVHw2aflQo_10jsonschema8keywords6custom7Keyword8is_valid
FNDA:0,_RNvXs0_NtNtNtCse9HBjRuE3ke_18dsc_lib_jsonschema6vscode8keywords20markdown_descriptionNtB5_26MarkdownDescriptionKeywordNtNtNtCs1pVHw2aflQo_10jsonschema8keywords6custom7Keyword8validate
FNDA:0,_RNvXs_NtNtNtCse9HBjRuE3ke_18dsc_lib_jsonschema6vscode8keywords20markdown_descriptionNtB4_26MarkdownDescriptionKeywordNtCsdG7205R6am3_8schemars10JsonSchema11json_schema
FNDA:0,_RNvXs_NtNtNtCse9HBjRuE3ke_18dsc_lib_jsonschema6vscode8keywords20markdown_descriptionNtB4_26MarkdownDescriptionKeywordNtCsdG7205R6am3_8schemars10JsonSchema11schema_name
FNDA:0,_RNvXNtNtNtCs1p6hG0j9t4b_18dsc_lib_jsonschema6vscode8keywords20markdown_descriptionNtB2_26MarkdownDescriptionKeywordNtNtB4_25vscode_keyword_definition23VSCodeKeywordDefinition15keyword_factory
FNDA:0,_RNvXs0_NtNtNtCs1p6hG0j9t4b_18dsc_lib_jsonschema6vscode8keywords20markdown_descriptionNtB5_26MarkdownDescriptionKeywordNtNtNtCskyI9PLifvdp_10jsonschema8keywords6custom7Keyword8is_valid
FNDA:0,_RNvXs0_NtNtNtCs1p6hG0j9t4b_18dsc_lib_jsonschema6vscode8keywords20markdown_descriptionNtB5_26MarkdownDescriptionKeywordNtNtNtCskyI9PLifvdp_10jsonschema8keywords6custom7Keyword8validate
FNDA:0,_RNvXs_NtNtNtCs1p6hG0j9t4b_18dsc_lib_jsonschema6vscode8keywords20markdown_descriptionNtB4_26MarkdownDescriptionKeywordNtCsdG7205R6am3_8schemars10JsonSchema11json_schema
FNDA:0,_RNvXs_NtNtNtCs1p6hG0j9t4b_18dsc_lib_jsonschema6vscode8keywords20markdown_descriptionNtB4_26MarkdownDescriptionKeywordNtCsdG7205R6am3_8schemars10JsonSchema11schema_name
FNDA:0,_RNvXNtNtNtCs8FPg1R8LBRe_18dsc_lib_jsonschema6vscode8keywords20markdown_descriptionNtB2_26MarkdownDescriptionKeywordNtNtB4_25vscode_keyword_definition23VSCodeKeywordDefinition15keyword_factory
FNDA:0,_RNvXs0_NtNtNtCs8FPg1R8LBRe_18dsc_lib_jsonschema6vscode8keywords20markdown_descriptionNtB5_26MarkdownDescriptionKeywordNtNtNtCskyI9PLifvdp_10jsonschema8keywords6custom7Keyword8is_valid
FNDA:0,_RNvXs0_NtNtNtCs8FPg1R8LBRe_18dsc_lib_jsonschema6vscode8keywords20markdown_descriptionNtB5_26MarkdownDescriptionKeywordNtNtNtCskyI9PLifvdp_10jsonschema8keywords6custom7Keyword8validate
FNDA:0,_RNvXs_NtNtNtCs8FPg1R8LBRe_18dsc_lib_jsonschema6vscode8keywords20markdown_descriptionNtB4_26MarkdownDescriptionKeywordNtCsdG7205R6am3_8schemars10JsonSchema11json_schema
FNDA:0,_RNvXs_NtNtNtCs8FPg1R8LBRe_18dsc_lib_jsonschema6vscode8keywords20markdown_descriptionNtB4_26MarkdownDescriptionKeywordNtCsdG7205R6am3_8schemars10JsonSchema11schema_name
FNDA:0,_RNvXs_NtNtNtCs6DmBUIV3MEM_18dsc_lib_jsonschema6vscode8keywords20markdown_descriptionNtB4_26MarkdownDescriptionKeywordNtCsdG7205R6am3_8schemars10JsonSchema11schema_name
FNDA:1012,_RNvXNtNtNtCs6DmBUIV3MEM_18dsc_lib_jsonschema6vscode8keywords20markdown_descriptionNtB2_26MarkdownDescriptionKeywordNtNtB4_25vscode_keyword_definition23VSCodeKeywordDefinition15keyword_factory
FNDA:154,_RNvXs0_NtNtNtCs6DmBUIV3MEM_18dsc_lib_jsonschema6vscode8keywords20markdown_descriptionNtB5_26MarkdownDescriptionKeywordNtNtNtCs1pVHw2aflQo_10jsonschema8keywords6custom7Keyword8is_valid
FNDA:0,_RNvXs0_NtNtNtCs6DmBUIV3MEM_18dsc_lib_jsonschema6vscode8keywords20markdown_descriptionNtB5_26MarkdownDescriptionKeywordNtNtNtCs1pVHw2aflQo_10jsonschema8keywords6custom7Keyword8validate
FNDA:74,_RNvXs_NtNtNtCs6DmBUIV3MEM_18dsc_lib_jsonschema6vscode8keywords20markdown_descriptionNtB4_26MarkdownDescriptionKeywordNtCsdG7205R6am3_8schemars10JsonSchema11json_schema
FNDA:0,_RNvXs_NtNtNtCs92r3DgzGcjh_18dsc_lib_jsonschema6vscode8keywords20markdown_descriptionNtB4_26MarkdownDescriptionKeywordNtCsdG7205R6am3_8schemars10JsonSchema11schema_name
FNDA:1012,_RNvXNtNtNtCs92r3DgzGcjh_18dsc_lib_jsonschema6vscode8keywords20markdown_descriptionNtB2_26MarkdownDescriptionKeywordNtNtB4_25vscode_keyword_definition23VSCodeKeywordDefinition15keyword_factory
FNDA:154,_RNvXs0_NtNtNtCs92r3DgzGcjh_18dsc_lib_jsonschema6vscode8keywords20markdown_descriptionNtB5_26MarkdownDescriptionKeywordNtNtNtCskyI9PLifvdp_10jsonschema8keywords6custom7Keyword8is_valid
FNDA:0,_RNvXs0_NtNtNtCs92r3DgzGcjh_18dsc_lib_jsonschema6vscode8keywords20markdown_descriptionNtB5_26MarkdownDescriptionKeywordNtNtNtCskyI9PLifvdp_10jsonschema8keywords6custom7Keyword8validate
FNDA:74,_RNvXs_NtNtNtCs92r3DgzGcjh_18dsc_lib_jsonschema6vscode8keywords20markdown_descriptionNtB4_26MarkdownDescriptionKeywordNtCsdG7205R6am3_8schemars10JsonSchema11json_schema
FNF:5
FNH:3
DA:39,2024
DA:40,2024
DA:41,2024
DA:42,2024
DA:43,2024
DA:44,2024
DA:45,2022
DA:47,2
DA:48,2
DA:49,2
DA:50,2
DA:51,2
DA:54,2024
DA:58,148
DA:59,148
DA:60,148
DA:61,148
DA:62,148
DA:63,148
DA:64,148
DA:65,148
DA:67,148
DA:69,0
DA:70,0
DA:71,0
DA:75,0
DA:76,0
DA:77,0
DA:78,0
DA:79,0
DA:80,0
DA:81,0
DA:82,308
DA:83,308
DA:84,308
BRF:0
BRH:0
LF:35
LH:25
end_of_record
SF:/Users/steve/repos/DSC/lib/dsc-lib-jsonschema/src/vscode/keywords/markdown_enum_descriptions.rs
FN:42,_RNCNvXNtNtNtCse9HBjRuE3ke_18dsc_lib_jsonschema6vscode8keywords26markdown_enum_descriptionsNtB4_31MarkdownEnumDescriptionsKeywordNtNtB6_25vscode_keyword_definition23VSCodeKeywordDefinition15keyword_factory0Ba_
FN:44,_RNCNvXNtNtNtCse9HBjRuE3ke_18dsc_lib_jsonschema6vscode8keywords26markdown_enum_descriptionsNtB4_31MarkdownEnumDescriptionsKeywordNtNtB6_25vscode_keyword_definition23VSCodeKeywordDefinition15keyword_factorys_0Ba_
FN:36,_RNvXNtNtNtCse9HBjRuE3ke_18dsc_lib_jsonschema6vscode8keywords26markdown_enum_descriptionsNtB2_31MarkdownEnumDescriptionsKeywordNtNtB4_25vscode_keyword_definition23VSCodeKeywordDefinition15keyword_factory
FN:101,_RNvXs0_NtNtNtCse9HBjRuE3ke_18dsc_lib_jsonschema6vscode8keywords26markdown_enum_descriptionsNtB5_31MarkdownEnumDescriptionsKeywordNtNtNtCs1pVHw2aflQo_10jsonschema8keywords6custom7Keyword8is_valid
FN:94,_RNvXs0_NtNtNtCse9HBjRuE3ke_18dsc_lib_jsonschema6vscode8keywords26markdown_enum_descriptionsNtB5_31MarkdownEnumDescriptionsKeywordNtNtNtCs1pVHw2aflQo_10jsonschema8keywords6custom7Keyword8validate
FN:74,_RNvXs_NtNtNtCse9HBjRuE3ke_18dsc_lib_jsonschema6vscode8keywords26markdown_enum_descriptionsNtB4_31MarkdownEnumDescriptionsKeywordNtCsdG7205R6am3_8schemars10JsonSchema11json_schema
FN:88,_RNvXs_NtNtNtCse9HBjRuE3ke_18dsc_lib_jsonschema6vscode8keywords26markdown_enum_descriptionsNtB4_31MarkdownEnumDescriptionsKeywordNtCsdG7205R6am3_8schemars10JsonSchema11schema_name
FN:36,_RNvXNtNtNtCs1p6hG0j9t4b_18dsc_lib_jsonschema6vscode8keywords26markdown_enum_descriptionsNtB2_31MarkdownEnumDescriptionsKeywordNtNtB4_25vscode_keyword_definition23VSCodeKeywordDefinition15keyword_factory
FN:101,_RNvXs0_NtNtNtCs1p6hG0j9t4b_18dsc_lib_jsonschema6vscode8keywords26markdown_enum_descriptionsNtB5_31MarkdownEnumDescriptionsKeywordNtNtNtCskyI9PLifvdp_10jsonschema8keywords6custom7Keyword8is_valid
FN:94,_RNvXs0_NtNtNtCs1p6hG0j9t4b_18dsc_lib_jsonschema6vscode8keywords26markdown_enum_descriptionsNtB5_31MarkdownEnumDescriptionsKeywordNtNtNtCskyI9PLifvdp_10jsonschema8keywords6custom7Keyword8validate
FN:74,_RNvXs_NtNtNtCs1p6hG0j9t4b_18dsc_lib_jsonschema6vscode8keywords26markdown_enum_descriptionsNtB4_31MarkdownEnumDescriptionsKeywordNtCsdG7205R6am3_8schemars10JsonSchema11json_schema
FN:88,_RNvXs_NtNtNtCs1p6hG0j9t4b_18dsc_lib_jsonschema6vscode8keywords26markdown_enum_descriptionsNtB4_31MarkdownEnumDescriptionsKeywordNtCsdG7205R6am3_8schemars10JsonSchema11schema_name
FN:42,_RNCNvXNtNtNtCs1p6hG0j9t4b_18dsc_lib_jsonschema6vscode8keywords26markdown_enum_descriptionsNtB4_31MarkdownEnumDescriptionsKeywordNtNtB6_25vscode_keyword_definition23VSCodeKeywordDefinition15keyword_factory0Ba_
FN:44,_RNCNvXNtNtNtCs1p6hG0j9t4b_18dsc_lib_jsonschema6vscode8keywords26markdown_enum_descriptionsNtB4_31MarkdownEnumDescriptionsKeywordNtNtB6_25vscode_keyword_definition23VSCodeKeywordDefinition15keyword_factorys_0Ba_
FN:36,_RNvXNtNtNtCs8FPg1R8LBRe_18dsc_lib_jsonschema6vscode8keywords26markdown_enum_descriptionsNtB2_31MarkdownEnumDescriptionsKeywordNtNtB4_25vscode_keyword_definition23VSCodeKeywordDefinition15keyword_factory
FN:101,_RNvXs0_NtNtNtCs8FPg1R8LBRe_18dsc_lib_jsonschema6vscode8keywords26markdown_enum_descriptionsNtB5_31MarkdownEnumDescriptionsKeywordNtNtNtCskyI9PLifvdp_10jsonschema8keywords6custom7Keyword8is_valid
FN:94,_RNvXs0_NtNtNtCs8FPg1R8LBRe_18dsc_lib_jsonschema6vscode8keywords26markdown_enum_descriptionsNtB5_31MarkdownEnumDescriptionsKeywordNtNtNtCskyI9PLifvdp_10jsonschema8keywords6custom7Keyword8validate
FN:74,_RNvXs_NtNtNtCs8FPg1R8LBRe_18dsc_lib_jsonschema6vscode8keywords26markdown_enum_descriptionsNtB4_31MarkdownEnumDescriptionsKeywordNtCsdG7205R6am3_8schemars10JsonSchema11json_schema
FN:88,_RNvXs_NtNtNtCs8FPg1R8LBRe_18dsc_lib_jsonschema6vscode8keywords26markdown_enum_descriptionsNtB4_31MarkdownEnumDescriptionsKeywordNtCsdG7205R6am3_8schemars10JsonSchema11schema_name
FN:42,_RNCNvXNtNtNtCs8FPg1R8LBRe_18dsc_lib_jsonschema6vscode8keywords26markdown_enum_descriptionsNtB4_31MarkdownEnumDescriptionsKeywordNtNtB6_25vscode_keyword_definition23VSCodeKeywordDefinition15keyword_factory0Ba_
FN:44,_RNCNvXNtNtNtCs8FPg1R8LBRe_18dsc_lib_jsonschema6vscode8keywords26markdown_enum_descriptionsNtB4_31MarkdownEnumDescriptionsKeywordNtNtB6_25vscode_keyword_definition23VSCodeKeywordDefinition15keyword_factorys_0Ba_
FN:88,_RNvXs_NtNtNtCs6DmBUIV3MEM_18dsc_lib_jsonschema6vscode8keywords26markdown_enum_descriptionsNtB4_31MarkdownEnumDescriptionsKeywordNtCsdG7205R6am3_8schemars10JsonSchema11schema_name
FN:36,_RNvXNtNtNtCs6DmBUIV3MEM_18dsc_lib_jsonschema6vscode8keywords26markdown_enum_descriptionsNtB2_31MarkdownEnumDescriptionsKeywordNtNtB4_25vscode_keyword_definition23VSCodeKeywordDefinition15keyword_factory
FN:101,_RNvXs0_NtNtNtCs6DmBUIV3MEM_18dsc_lib_jsonschema6vscode8keywords26markdown_enum_descriptionsNtB5_31MarkdownEnumDescriptionsKeywordNtNtNtCs1pVHw2aflQo_10jsonschema8keywords6custom7Keyword8is_valid
FN:94,_RNvXs0_NtNtNtCs6DmBUIV3MEM_18dsc_lib_jsonschema6vscode8keywords26markdown_enum_descriptionsNtB5_31MarkdownEnumDescriptionsKeywordNtNtNtCs1pVHw2aflQo_10jsonschema8keywords6custom7Keyword8validate
FN:74,_RNvXs_NtNtNtCs6DmBUIV3MEM_18dsc_lib_jsonschema6vscode8keywords26markdown_enum_descriptionsNtB4_31MarkdownEnumDescriptionsKeywordNtCsdG7205R6am3_8schemars10JsonSchema11json_schema
FN:42,_RNCNvXNtNtNtCs6DmBUIV3MEM_18dsc_lib_jsonschema6vscode8keywords26markdown_enum_descriptionsNtB4_31MarkdownEnumDescriptionsKeywordNtNtB6_25vscode_keyword_definition23VSCodeKeywordDefinition15keyword_factory0Ba_
FN:44,_RNCNvXNtNtNtCs6DmBUIV3MEM_18dsc_lib_jsonschema6vscode8keywords26markdown_enum_descriptionsNtB4_31MarkdownEnumDescriptionsKeywordNtNtB6_25vscode_keyword_definition23VSCodeKeywordDefinition15keyword_factorys_0Ba_
FN:42,_RNCNvXNtNtNtCs92r3DgzGcjh_18dsc_lib_jsonschema6vscode8keywords26markdown_enum_descriptionsNtB4_31MarkdownEnumDescriptionsKeywordNtNtB6_25vscode_keyword_definition23VSCodeKeywordDefinition15keyword_factory0Ba_
FN:44,_RNCNvXNtNtNtCs92r3DgzGcjh_18dsc_lib_jsonschema6vscode8keywords26markdown_enum_descriptionsNtB4_31MarkdownEnumDescriptionsKeywordNtNtB6_25vscode_keyword_definition23VSCodeKeywordDefinition15keyword_factorys_0Ba_
FN:88,_RNvXs_NtNtNtCs92r3DgzGcjh_18dsc_lib_jsonschema6vscode8keywords26markdown_enum_descriptionsNtB4_31MarkdownEnumDescriptionsKeywordNtCsdG7205R6am3_8schemars10JsonSchema11schema_name
FN:36,_RNvXNtNtNtCs92r3DgzGcjh_18dsc_lib_jsonschema6vscode8keywords26markdown_enum_descriptionsNtB2_31MarkdownEnumDescriptionsKeywordNtNtB4_25vscode_keyword_definition23VSCodeKeywordDefinition15keyword_factory
FN:101,_RNvXs0_NtNtNtCs92r3DgzGcjh_18dsc_lib_jsonschema6vscode8keywords26markdown_enum_descriptionsNtB5_31MarkdownEnumDescriptionsKeywordNtNtNtCskyI9PLifvdp_10jsonschema8keywords6custom7Keyword8is_valid
FN:94,_RNvXs0_NtNtNtCs92r3DgzGcjh_18dsc_lib_jsonschema6vscode8keywords26markdown_enum_descriptionsNtB5_31MarkdownEnumDescriptionsKeywordNtNtNtCskyI9PLifvdp_10jsonschema8keywords6custom7Keyword8validate
FN:74,_RNvXs_NtNtNtCs92r3DgzGcjh_18dsc_lib_jsonschema6vscode8keywords26markdown_enum_descriptionsNtB4_31MarkdownEnumDescriptionsKeywordNtCsdG7205R6am3_8schemars10JsonSchema11json_schema
FNDA:0,_RNCNvXNtNtNtCse9HBjRuE3ke_18dsc_lib_jsonschema6vscode8keywords26markdown_enum_descriptionsNtB4_31MarkdownEnumDescriptionsKeywordNtNtB6_25vscode_keyword_definition23VSCodeKeywordDefinition15keyword_factory0Ba_
FNDA:0,_RNCNvXNtNtNtCse9HBjRuE3ke_18dsc_lib_jsonschema6vscode8keywords26markdown_enum_descriptionsNtB4_31MarkdownEnumDescriptionsKeywordNtNtB6_25vscode_keyword_definition23VSCodeKeywordDefinition15keyword_factorys_0Ba_
FNDA:0,_RNvXNtNtNtCse9HBjRuE3ke_18dsc_lib_jsonschema6vscode8keywords26markdown_enum_descriptionsNtB2_31MarkdownEnumDescriptionsKeywordNtNtB4_25vscode_keyword_definition23VSCodeKeywordDefinition15keyword_factory
FNDA:0,_RNvXs0_NtNtNtCse9HBjRuE3ke_18dsc_lib_jsonschema6vscode8keywords26markdown_enum_descriptionsNtB5_31MarkdownEnumDescriptionsKeywordNtNtNtCs1pVHw2aflQo_10jsonschema8keywords6custom7Keyword8is_valid
FNDA:0,_RNvXs0_NtNtNtCse9HBjRuE3ke_18dsc_lib_jsonschema6vscode8keywords26markdown_enum_descriptionsNtB5_31MarkdownEnumDescriptionsKeywordNtNtNtCs1pVHw2aflQo_10jsonschema8keywords6custom7Keyword8validate
FNDA:0,_RNvXs_NtNtNtCse9HBjRuE3ke_18dsc_lib_jsonschema6vscode8keywords26markdown_enum_descriptionsNtB4_31MarkdownEnumDescriptionsKeywordNtCsdG7205R6am3_8schemars10JsonSchema11json_schema
FNDA:0,_RNvXs_NtNtNtCse9HBjRuE3ke_18dsc_lib_jsonschema6vscode8keywords26markdown_enum_descriptionsNtB4_31MarkdownEnumDescriptionsKeywordNtCsdG7205R6am3_8schemars10JsonSchema11schema_name
FNDA:0,_RNvXNtNtNtCs1p6hG0j9t4b_18dsc_lib_jsonschema6vscode8keywords26markdown_enum_descriptionsNtB2_31MarkdownEnumDescriptionsKeywordNtNtB4_25vscode_keyword_definition23VSCodeKeywordDefinition15keyword_factory
FNDA:0,_RNvXs0_NtNtNtCs1p6hG0j9t4b_18dsc_lib_jsonschema6vscode8keywords26markdown_enum_descriptionsNtB5_31MarkdownEnumDescriptionsKeywordNtNtNtCskyI9PLifvdp_10jsonschema8keywords6custom7Keyword8is_valid
FNDA:0,_RNvXs0_NtNtNtCs1p6hG0j9t4b_18dsc_lib_jsonschema6vscode8keywords26markdown_enum_descriptionsNtB5_31MarkdownEnumDescriptionsKeywordNtNtNtCskyI9PLifvdp_10jsonschema8keywords6custom7Keyword8validate
FNDA:0,_RNvXs_NtNtNtCs1p6hG0j9t4b_18dsc_lib_jsonschema6vscode8keywords26markdown_enum_descriptionsNtB4_31MarkdownEnumDescriptionsKeywordNtCsdG7205R6am3_8schemars10JsonSchema11json_schema
FNDA:0,_RNvXs_NtNtNtCs1p6hG0j9t4b_18dsc_lib_jsonschema6vscode8keywords26markdown_enum_descriptionsNtB4_31MarkdownEnumDescriptionsKeywordNtCsdG7205R6am3_8schemars10JsonSchema11schema_name
FNDA:0,_RNCNvXNtNtNtCs1p6hG0j9t4b_18dsc_lib_jsonschema6vscode8keywords26markdown_enum_descriptionsNtB4_31MarkdownEnumDescriptionsKeywordNtNtB6_25vscode_keyword_definition23VSCodeKeywordDefinition15keyword_factory0Ba_
FNDA:0,_RNCNvXNtNtNtCs1p6hG0j9t4b_18dsc_lib_jsonschema6vscode8keywords26markdown_enum_descriptionsNtB4_31MarkdownEnumDescriptionsKeywordNtNtB6_25vscode_keyword_definition23VSCodeKeywordDefinition15keyword_factorys_0Ba_
FNDA:0,_RNvXNtNtNtCs8FPg1R8LBRe_18dsc_lib_jsonschema6vscode8keywords26markdown_enum_descriptionsNtB2_31MarkdownEnumDescriptionsKeywordNtNtB4_25vscode_keyword_definition23VSCodeKeywordDefinition15keyword_factory
FNDA:0,_RNvXs0_NtNtNtCs8FPg1R8LBRe_18dsc_lib_jsonschema6vscode8keywords26markdown_enum_descriptionsNtB5_31MarkdownEnumDescriptionsKeywordNtNtNtCskyI9PLifvdp_10jsonschema8keywords6custom7Keyword8is_valid
FNDA:0,_RNvXs0_NtNtNtCs8FPg1R8LBRe_18dsc_lib_jsonschema6vscode8keywords26markdown_enum_descriptionsNtB5_31MarkdownEnumDescriptionsKeywordNtNtNtCskyI9PLifvdp_10jsonschema8keywords6custom7Keyword8validate
FNDA:0,_RNvXs_NtNtNtCs8FPg1R8LBRe_18dsc_lib_jsonschema6vscode8keywords26markdown_enum_descriptionsNtB4_31MarkdownEnumDescriptionsKeywordNtCsdG7205R6am3_8schemars10JsonSchema11json_schema
FNDA:0,_RNvXs_NtNtNtCs8FPg1R8LBRe_18dsc_lib_jsonschema6vscode8keywords26markdown_enum_descriptionsNtB4_31MarkdownEnumDescriptionsKeywordNtCsdG7205R6am3_8schemars10JsonSchema11schema_name
FNDA:0,_RNCNvXNtNtNtCs8FPg1R8LBRe_18dsc_lib_jsonschema6vscode8keywords26markdown_enum_descriptionsNtB4_31MarkdownEnumDescriptionsKeywordNtNtB6_25vscode_keyword_definition23VSCodeKeywordDefinition15keyword_factory0Ba_
FNDA:0,_RNCNvXNtNtNtCs8FPg1R8LBRe_18dsc_lib_jsonschema6vscode8keywords26markdown_enum_descriptionsNtB4_31MarkdownEnumDescriptionsKeywordNtNtB6_25vscode_keyword_definition23VSCodeKeywordDefinition15keyword_factorys_0Ba_
FNDA:0,_RNvXs_NtNtNtCs6DmBUIV3MEM_18dsc_lib_jsonschema6vscode8keywords26markdown_enum_descriptionsNtB4_31MarkdownEnumDescriptionsKeywordNtCsdG7205R6am3_8schemars10JsonSchema11schema_name
FNDA:3,_RNvXNtNtNtCs6DmBUIV3MEM_18dsc_lib_jsonschema6vscode8keywords26markdown_enum_descriptionsNtB2_31MarkdownEnumDescriptionsKeywordNtNtB4_25vscode_keyword_definition23VSCodeKeywordDefinition15keyword_factory
FNDA:0,_RNvXs0_NtNtNtCs6DmBUIV3MEM_18dsc_lib_jsonschema6vscode8keywords26markdown_enum_descriptionsNtB5_31MarkdownEnumDescriptionsKeywordNtNtNtCs1pVHw2aflQo_10jsonschema8keywords6custom7Keyword8is_valid
FNDA:0,_RNvXs0_NtNtNtCs6DmBUIV3MEM_18dsc_lib_jsonschema6vscode8keywords26markdown_enum_descriptionsNtB5_31MarkdownEnumDescriptionsKeywordNtNtNtCs1pVHw2aflQo_10jsonschema8keywords6custom7Keyword8validate
FNDA:74,_RNvXs_NtNtNtCs6DmBUIV3MEM_18dsc_lib_jsonschema6vscode8keywords26markdown_enum_descriptionsNtB4_31MarkdownEnumDescriptionsKeywordNtCsdG7205R6am3_8schemars10JsonSchema11json_schema
FNDA:5,_RNCNvXNtNtNtCs6DmBUIV3MEM_18dsc_lib_jsonschema6vscode8keywords26markdown_enum_descriptionsNtB4_31MarkdownEnumDescriptionsKeywordNtNtB6_25vscode_keyword_definition23VSCodeKeywordDefinition15keyword_factory0Ba_
FNDA:3,_RNCNvXNtNtNtCs6DmBUIV3MEM_18dsc_lib_jsonschema6vscode8keywords26markdown_enum_descriptionsNtB4_31MarkdownEnumDescriptionsKeywordNtNtB6_25vscode_keyword_definition23VSCodeKeywordDefinition15keyword_factorys_0Ba_
FNDA:5,_RNCNvXNtNtNtCs92r3DgzGcjh_18dsc_lib_jsonschema6vscode8keywords26markdown_enum_descriptionsNtB4_31MarkdownEnumDescriptionsKeywordNtNtB6_25vscode_keyword_definition23VSCodeKeywordDefinition15keyword_factory0Ba_
FNDA:3,_RNCNvXNtNtNtCs92r3DgzGcjh_18dsc_lib_jsonschema6vscode8keywords26markdown_enum_descriptionsNtB4_31MarkdownEnumDescriptionsKeywordNtNtB6_25vscode_keyword_definition23VSCodeKeywordDefinition15keyword_factorys_0Ba_
FNDA:0,_RNvXs_NtNtNtCs92r3DgzGcjh_18dsc_lib_jsonschema6vscode8keywords26markdown_enum_descriptionsNtB4_31MarkdownEnumDescriptionsKeywordNtCsdG7205R6am3_8schemars10JsonSchema11schema_name
FNDA:3,_RNvXNtNtNtCs92r3DgzGcjh_18dsc_lib_jsonschema6vscode8keywords26markdown_enum_descriptionsNtB2_31MarkdownEnumDescriptionsKeywordNtNtB4_25vscode_keyword_definition23VSCodeKeywordDefinition15keyword_factory
FNDA:0,_RNvXs0_NtNtNtCs92r3DgzGcjh_18dsc_lib_jsonschema6vscode8keywords26markdown_enum_descriptionsNtB5_31MarkdownEnumDescriptionsKeywordNtNtNtCskyI9PLifvdp_10jsonschema8keywords6custom7Keyword8is_valid
FNDA:0,_RNvXs0_NtNtNtCs92r3DgzGcjh_18dsc_lib_jsonschema6vscode8keywords26markdown_enum_descriptionsNtB5_31MarkdownEnumDescriptionsKeywordNtNtNtCskyI9PLifvdp_10jsonschema8keywords6custom7Keyword8validate
FNDA:74,_RNvXs_NtNtNtCs92r3DgzGcjh_18dsc_lib_jsonschema6vscode8keywords26markdown_enum_descriptionsNtB4_31MarkdownEnumDescriptionsKeywordNtCsdG7205R6am3_8schemars10JsonSchema11json_schema
FNF:7
FNH:4
DA:36,6
DA:37,6
DA:38,6
DA:39,6
DA:40,6
DA:41,6
DA:42,10
DA:43,2
DA:44,6
DA:47,2
DA:48,2
DA:49,2
DA:50,2
DA:51,2
DA:53,2
DA:54,2
DA:59,2
DA:60,2
DA:61,2
DA:62,2
DA:63,2
DA:65,2
DA:66,2
DA:70,6
DA:74,148
DA:75,148
DA:76,148
DA:77,148
DA:78,148
DA:79,148
DA:80,148
DA:81,148
DA:82,148
DA:83,148
DA:86,148
DA:88,0
DA:89,0
DA:90,0
DA:94,0
DA:95,0
DA:96,0
DA:97,0
DA:98,0
DA:99,0
DA:100,0
DA:101,0
DA:102,0
DA:103,0
BRF:0
BRH:0
LF:50
LH:37
end_of_record
SF:/Users/steve/repos/DSC/lib/dsc-lib-jsonschema/src/vscode/keywords/pattern_error_message.rs
FN:32,_RNvXNtNtNtCse9HBjRuE3ke_18dsc_lib_jsonschema6vscode8keywords21pattern_error_messageNtB2_26PatternErrorMessageKeywordNtNtB4_25vscode_keyword_definition23VSCodeKeywordDefinition15keyword_factory
FN:75,_RNvXs0_NtNtNtCse9HBjRuE3ke_18dsc_lib_jsonschema6vscode8keywords21pattern_error_messageNtB5_26PatternErrorMessageKeywordNtNtNtCs1pVHw2aflQo_10jsonschema8keywords6custom7Keyword8is_valid
FN:68,_RNvXs0_NtNtNtCse9HBjRuE3ke_18dsc_lib_jsonschema6vscode8keywords21pattern_error_messageNtB5_26PatternErrorMessageKeywordNtNtNtCs1pVHw2aflQo_10jsonschema8keywords6custom7Keyword8validate
FN:51,_RNvXs_NtNtNtCse9HBjRuE3ke_18dsc_lib_jsonschema6vscode8keywords21pattern_error_messageNtB4_26PatternErrorMessageKeywordNtCsdG7205R6am3_8schemars10JsonSchema11json_schema
FN:62,_RNvXs_NtNtNtCse9HBjRuE3ke_18dsc_lib_jsonschema6vscode8keywords21pattern_error_messageNtB4_26PatternErrorMessageKeywordNtCsdG7205R6am3_8schemars10JsonSchema11schema_name
FN:32,_RNvXNtNtNtCs1p6hG0j9t4b_18dsc_lib_jsonschema6vscode8keywords21pattern_error_messageNtB2_26PatternErrorMessageKeywordNtNtB4_25vscode_keyword_definition23VSCodeKeywordDefinition15keyword_factory
FN:75,_RNvXs0_NtNtNtCs1p6hG0j9t4b_18dsc_lib_jsonschema6vscode8keywords21pattern_error_messageNtB5_26PatternErrorMessageKeywordNtNtNtCskyI9PLifvdp_10jsonschema8keywords6custom7Keyword8is_valid
FN:68,_RNvXs0_NtNtNtCs1p6hG0j9t4b_18dsc_lib_jsonschema6vscode8keywords21pattern_error_messageNtB5_26PatternErrorMessageKeywordNtNtNtCskyI9PLifvdp_10jsonschema8keywords6custom7Keyword8validate
FN:51,_RNvXs_NtNtNtCs1p6hG0j9t4b_18dsc_lib_jsonschema6vscode8keywords21pattern_error_messageNtB4_26PatternErrorMessageKeywordNtCsdG7205R6am3_8schemars10JsonSchema11json_schema
FN:62,_RNvXs_NtNtNtCs1p6hG0j9t4b_18dsc_lib_jsonschema6vscode8keywords21pattern_error_messageNtB4_26PatternErrorMessageKeywordNtCsdG7205R6am3_8schemars10JsonSchema11schema_name
FN:32,_RNvXNtNtNtCs8FPg1R8LBRe_18dsc_lib_jsonschema6vscode8keywords21pattern_error_messageNtB2_26PatternErrorMessageKeywordNtNtB4_25vscode_keyword_definition23VSCodeKeywordDefinition15keyword_factory
FN:75,_RNvXs0_NtNtNtCs8FPg1R8LBRe_18dsc_lib_jsonschema6vscode8keywords21pattern_error_messageNtB5_26PatternErrorMessageKeywordNtNtNtCskyI9PLifvdp_10jsonschema8keywords6custom7Keyword8is_valid
FN:68,_RNvXs0_NtNtNtCs8FPg1R8LBRe_18dsc_lib_jsonschema6vscode8keywords21pattern_error_messageNtB5_26PatternErrorMessageKeywordNtNtNtCskyI9PLifvdp_10jsonschema8keywords6custom7Keyword8validate
FN:51,_RNvXs_NtNtNtCs8FPg1R8LBRe_18dsc_lib_jsonschema6vscode8keywords21pattern_error_messageNtB4_26PatternErrorMessageKeywordNtCsdG7205R6am3_8schemars10JsonSchema11json_schema
FN:62,_RNvXs_NtNtNtCs8FPg1R8LBRe_18dsc_lib_jsonschema6vscode8keywords21pattern_error_messageNtB4_26PatternErrorMessageKeywordNtCsdG7205R6am3_8schemars10JsonSchema11schema_name
FN:62,_RNvXs_NtNtNtCs6DmBUIV3MEM_18dsc_lib_jsonschema6vscode8keywords21pattern_error_messageNtB4_26PatternErrorMessageKeywordNtCsdG7205R6am3_8schemars10JsonSchema11schema_name
FN:32,_RNvXNtNtNtCs6DmBUIV3MEM_18dsc_lib_jsonschema6vscode8keywords21pattern_error_messageNtB2_26PatternErrorMessageKeywordNtNtB4_25vscode_keyword_definition23VSCodeKeywordDefinition15keyword_factory
FN:75,_RNvXs0_NtNtNtCs6DmBUIV3MEM_18dsc_lib_jsonschema6vscode8keywords21pattern_error_messageNtB5_26PatternErrorMessageKeywordNtNtNtCs1pVHw2aflQo_10jsonschema8keywords6custom7Keyword8is_valid
FN:68,_RNvXs0_NtNtNtCs6DmBUIV3MEM_18dsc_lib_jsonschema6vscode8keywords21pattern_error_messageNtB5_26PatternErrorMessageKeywordNtNtNtCs1pVHw2aflQo_10jsonschema8keywords6custom7Keyword8validate
FN:51,_RNvXs_NtNtNtCs6DmBUIV3MEM_18dsc_lib_jsonschema6vscode8keywords21pattern_error_messageNtB4_26PatternErrorMessageKeywordNtCsdG7205R6am3_8schemars10JsonSchema11json_schema
FN:32,_RNvXNtNtNtCs92r3DgzGcjh_18dsc_lib_jsonschema6vscode8keywords21pattern_error_messageNtB2_26PatternErrorMessageKeywordNtNtB4_25vscode_keyword_definition23VSCodeKeywordDefinition15keyword_factory
FN:75,_RNvXs0_NtNtNtCs92r3DgzGcjh_18dsc_lib_jsonschema6vscode8keywords21pattern_error_messageNtB5_26PatternErrorMessageKeywordNtNtNtCskyI9PLifvdp_10jsonschema8keywords6custom7Keyword8is_valid
FN:68,_RNvXs0_NtNtNtCs92r3DgzGcjh_18dsc_lib_jsonschema6vscode8keywords21pattern_error_messageNtB5_26PatternErrorMessageKeywordNtNtNtCskyI9PLifvdp_10jsonschema8keywords6custom7Keyword8validate
FN:51,_RNvXs_NtNtNtCs92r3DgzGcjh_18dsc_lib_jsonschema6vscode8keywords21pattern_error_messageNtB4_26PatternErrorMessageKeywordNtCsdG7205R6am3_8schemars10JsonSchema11json_schema
FN:62,_RNvXs_NtNtNtCs92r3DgzGcjh_18dsc_lib_jsonschema6vscode8keywords21pattern_error_messageNtB4_26PatternErrorMessageKeywordNtCsdG7205R6am3_8schemars10JsonSchema11schema_name
FNDA:0,_RNvXNtNtNtCse9HBjRuE3ke_18dsc_lib_jsonschema6vscode8keywords21pattern_error_messageNtB2_26PatternErrorMessageKeywordNtNtB4_25vscode_keyword_definition23VSCodeKeywordDefinition15keyword_factory
FNDA:0,_RNvXs0_NtNtNtCse9HBjRuE3ke_18dsc_lib_jsonschema6vscode8keywords21pattern_error_messageNtB5_26PatternErrorMessageKeywordNtNtNtCs1pVHw2aflQo_10jsonschema8keywords6custom7Keyword8is_valid
FNDA:0,_RNvXs0_NtNtNtCse9HBjRuE3ke_18dsc_lib_jsonschema6vscode8keywords21pattern_error_messageNtB5_26PatternErrorMessageKeywordNtNtNtCs1pVHw2aflQo_10jsonschema8keywords6custom7Keyword8validate
FNDA:0,_RNvXs_NtNtNtCse9HBjRuE3ke_18dsc_lib_jsonschema6vscode8keywords21pattern_error_messageNtB4_26PatternErrorMessageKeywordNtCsdG7205R6am3_8schemars10JsonSchema11json_schema
FNDA:0,_RNvXs_NtNtNtCse9HBjRuE3ke_18dsc_lib_jsonschema6vscode8keywords21pattern_error_messageNtB4_26PatternErrorMessageKeywordNtCsdG7205R6am3_8schemars10JsonSchema11schema_name
FNDA:0,_RNvXNtNtNtCs1p6hG0j9t4b_18dsc_lib_jsonschema6vscode8keywords21pattern_error_messageNtB2_26PatternErrorMessageKeywordNtNtB4_25vscode_keyword_definition23VSCodeKeywordDefinition15keyword_factory
FNDA:0,_RNvXs0_NtNtNtCs1p6hG0j9t4b_18dsc_lib_jsonschema6vscode8keywords21pattern_error_messageNtB5_26PatternErrorMessageKeywordNtNtNtCskyI9PLifvdp_10jsonschema8keywords6custom7Keyword8is_valid
FNDA:0,_RNvXs0_NtNtNtCs1p6hG0j9t4b_18dsc_lib_jsonschema6vscode8keywords21pattern_error_messageNtB5_26PatternErrorMessageKeywordNtNtNtCskyI9PLifvdp_10jsonschema8keywords6custom7Keyword8validate
FNDA:0,_RNvXs_NtNtNtCs1p6hG0j9t4b_18dsc_lib_jsonschema6vscode8keywords21pattern_error_messageNtB4_26PatternErrorMessageKeywordNtCsdG7205R6am3_8schemars10JsonSchema11json_schema
FNDA:0,_RNvXs_NtNtNtCs1p6hG0j9t4b_18dsc_lib_jsonschema6vscode8keywords21pattern_error_messageNtB4_26PatternErrorMessageKeywordNtCsdG7205R6am3_8schemars10JsonSchema11schema_name
FNDA:0,_RNvXNtNtNtCs8FPg1R8LBRe_18dsc_lib_jsonschema6vscode8keywords21pattern_error_messageNtB2_26PatternErrorMessageKeywordNtNtB4_25vscode_keyword_definition23VSCodeKeywordDefinition15keyword_factory
FNDA:0,_RNvXs0_NtNtNtCs8FPg1R8LBRe_18dsc_lib_jsonschema6vscode8keywords21pattern_error_messageNtB5_26PatternErrorMessageKeywordNtNtNtCskyI9PLifvdp_10jsonschema8keywords6custom7Keyword8is_valid
FNDA:0,_RNvXs0_NtNtNtCs8FPg1R8LBRe_18dsc_lib_jsonschema6vscode8keywords21pattern_error_messageNtB5_26PatternErrorMessageKeywordNtNtNtCskyI9PLifvdp_10jsonschema8keywords6custom7Keyword8validate
FNDA:0,_RNvXs_NtNtNtCs8FPg1R8LBRe_18dsc_lib_jsonschema6vscode8keywords21pattern_error_messageNtB4_26PatternErrorMessageKeywordNtCsdG7205R6am3_8schemars10JsonSchema11json_schema
FNDA:0,_RNvXs_NtNtNtCs8FPg1R8LBRe_18dsc_lib_jsonschema6vscode8keywords21pattern_error_messageNtB4_26PatternErrorMessageKeywordNtCsdG7205R6am3_8schemars10JsonSchema11schema_name
FNDA:0,_RNvXs_NtNtNtCs6DmBUIV3MEM_18dsc_lib_jsonschema6vscode8keywords21pattern_error_messageNtB4_26PatternErrorMessageKeywordNtCsdG7205R6am3_8schemars10JsonSchema11schema_name
FNDA:2,_RNvXNtNtNtCs6DmBUIV3MEM_18dsc_lib_jsonschema6vscode8keywords21pattern_error_messageNtB2_26PatternErrorMessageKeywordNtNtB4_25vscode_keyword_definition23VSCodeKeywordDefinition15keyword_factory
FNDA:0,_RNvXs0_NtNtNtCs6DmBUIV3MEM_18dsc_lib_jsonschema6vscode8keywords21pattern_error_messageNtB5_26PatternErrorMessageKeywordNtNtNtCs1pVHw2aflQo_10jsonschema8keywords6custom7Keyword8is_valid
FNDA:0,_RNvXs0_NtNtNtCs6DmBUIV3MEM_18dsc_lib_jsonschema6vscode8keywords21pattern_error_messageNtB5_26PatternErrorMessageKeywordNtNtNtCs1pVHw2aflQo_10jsonschema8keywords6custom7Keyword8validate
FNDA:72,_RNvXs_NtNtNtCs6DmBUIV3MEM_18dsc_lib_jsonschema6vscode8keywords21pattern_error_messageNtB4_26PatternErrorMessageKeywordNtCsdG7205R6am3_8schemars10JsonSchema11json_schema
FNDA:2,_RNvXNtNtNtCs92r3DgzGcjh_18dsc_lib_jsonschema6vscode8keywords21pattern_error_messageNtB2_26PatternErrorMessageKeywordNtNtB4_25vscode_keyword_definition23VSCodeKeywordDefinition15keyword_factory
FNDA:0,_RNvXs0_NtNtNtCs92r3DgzGcjh_18dsc_lib_jsonschema6vscode8keywords21pattern_error_messageNtB5_26PatternErrorMessageKeywordNtNtNtCskyI9PLifvdp_10jsonschema8keywords6custom7Keyword8is_valid
FNDA:0,_RNvXs0_NtNtNtCs92r3DgzGcjh_18dsc_lib_jsonschema6vscode8keywords21pattern_error_messageNtB5_26PatternErrorMessageKeywordNtNtNtCskyI9PLifvdp_10jsonschema8keywords6custom7Keyword8validate
FNDA:72,_RNvXs_NtNtNtCs92r3DgzGcjh_18dsc_lib_jsonschema6vscode8keywords21pattern_error_messageNtB4_26PatternErrorMessageKeywordNtCsdG7205R6am3_8schemars10JsonSchema11json_schema
FNDA:0,_RNvXs_NtNtNtCs92r3DgzGcjh_18dsc_lib_jsonschema6vscode8keywords21pattern_error_messageNtB4_26PatternErrorMessageKeywordNtCsdG7205R6am3_8schemars10JsonSchema11schema_name
FNF:5
FNH:2
DA:32,4
DA:33,4
DA:34,4
DA:35,4
DA:36,4
DA:37,4
DA:38,2
DA:40,2
DA:41,2
DA:42,2
DA:43,2
DA:44,2
DA:47,4
DA:51,144
DA:52,144
DA:53,144
DA:54,144
DA:55,144
DA:56,144
DA:57,144
DA:58,144
DA:60,144
DA:62,0
DA:63,0
DA:64,0
DA:68,0
DA:69,0
DA:70,0
DA:71,0
DA:72,0
DA:73,0
DA:74,0
DA:75,0
DA:76,0
DA:77,0
BRF:0
BRH:0
LF:35
LH:22
end_of_record
SF:/Users/steve/repos/DSC/lib/dsc-lib-jsonschema/src/vscode/keywords/suggest_sort_text.rs
FN:44,_RNvXNtNtNtCse9HBjRuE3ke_18dsc_lib_jsonschema6vscode8keywords17suggest_sort_textNtB2_22SuggestSortTextKeywordNtNtB4_25vscode_keyword_definition23VSCodeKeywordDefinition15keyword_factory
FN:87,_RNvXs0_NtNtNtCse9HBjRuE3ke_18dsc_lib_jsonschema6vscode8keywords17suggest_sort_textNtB5_22SuggestSortTextKeywordNtNtNtCs1pVHw2aflQo_10jsonschema8keywords6custom7Keyword8is_valid
FN:80,_RNvXs0_NtNtNtCse9HBjRuE3ke_18dsc_lib_jsonschema6vscode8keywords17suggest_sort_textNtB5_22SuggestSortTextKeywordNtNtNtCs1pVHw2aflQo_10jsonschema8keywords6custom7Keyword8validate
FN:63,_RNvXs_NtNtNtCse9HBjRuE3ke_18dsc_lib_jsonschema6vscode8keywords17suggest_sort_textNtB4_22SuggestSortTextKeywordNtCsdG7205R6am3_8schemars10JsonSchema11json_schema
FN:74,_RNvXs_NtNtNtCse9HBjRuE3ke_18dsc_lib_jsonschema6vscode8keywords17suggest_sort_textNtB4_22SuggestSortTextKeywordNtCsdG7205R6am3_8schemars10JsonSchema11schema_name
FN:44,_RNvXNtNtNtCs1p6hG0j9t4b_18dsc_lib_jsonschema6vscode8keywords17suggest_sort_textNtB2_22SuggestSortTextKeywordNtNtB4_25vscode_keyword_definition23VSCodeKeywordDefinition15keyword_factory
FN:87,_RNvXs0_NtNtNtCs1p6hG0j9t4b_18dsc_lib_jsonschema6vscode8keywords17suggest_sort_textNtB5_22SuggestSortTextKeywordNtNtNtCskyI9PLifvdp_10jsonschema8keywords6custom7Keyword8is_valid
FN:80,_RNvXs0_NtNtNtCs1p6hG0j9t4b_18dsc_lib_jsonschema6vscode8keywords17suggest_sort_textNtB5_22SuggestSortTextKeywordNtNtNtCskyI9PLifvdp_10jsonschema8keywords6custom7Keyword8validate
FN:63,_RNvXs_NtNtNtCs1p6hG0j9t4b_18dsc_lib_jsonschema6vscode8keywords17suggest_sort_textNtB4_22SuggestSortTextKeywordNtCsdG7205R6am3_8schemars10JsonSchema11json_schema
FN:74,_RNvXs_NtNtNtCs1p6hG0j9t4b_18dsc_lib_jsonschema6vscode8keywords17suggest_sort_textNtB4_22SuggestSortTextKeywordNtCsdG7205R6am3_8schemars10JsonSchema11schema_name
FN:44,_RNvXNtNtNtCs8FPg1R8LBRe_18dsc_lib_jsonschema6vscode8keywords17suggest_sort_textNtB2_22SuggestSortTextKeywordNtNtB4_25vscode_keyword_definition23VSCodeKeywordDefinition15keyword_factory
FN:87,_RNvXs0_NtNtNtCs8FPg1R8LBRe_18dsc_lib_jsonschema6vscode8keywords17suggest_sort_textNtB5_22SuggestSortTextKeywordNtNtNtCskyI9PLifvdp_10jsonschema8keywords6custom7Keyword8is_valid
FN:80,_RNvXs0_NtNtNtCs8FPg1R8LBRe_18dsc_lib_jsonschema6vscode8keywords17suggest_sort_textNtB5_22SuggestSortTextKeywordNtNtNtCskyI9PLifvdp_10jsonschema8keywords6custom7Keyword8validate
FN:63,_RNvXs_NtNtNtCs8FPg1R8LBRe_18dsc_lib_jsonschema6vscode8keywords17suggest_sort_textNtB4_22SuggestSortTextKeywordNtCsdG7205R6am3_8schemars10JsonSchema11json_schema
FN:74,_RNvXs_NtNtNtCs8FPg1R8LBRe_18dsc_lib_jsonschema6vscode8keywords17suggest_sort_textNtB4_22SuggestSortTextKeywordNtCsdG7205R6am3_8schemars10JsonSchema11schema_name
FN:74,_RNvXs_NtNtNtCs6DmBUIV3MEM_18dsc_lib_jsonschema6vscode8keywords17suggest_sort_textNtB4_22SuggestSortTextKeywordNtCsdG7205R6am3_8schemars10JsonSchema11schema_name
FN:44,_RNvXNtNtNtCs6DmBUIV3MEM_18dsc_lib_jsonschema6vscode8keywords17suggest_sort_textNtB2_22SuggestSortTextKeywordNtNtB4_25vscode_keyword_definition23VSCodeKeywordDefinition15keyword_factory
FN:87,_RNvXs0_NtNtNtCs6DmBUIV3MEM_18dsc_lib_jsonschema6vscode8keywords17suggest_sort_textNtB5_22SuggestSortTextKeywordNtNtNtCs1pVHw2aflQo_10jsonschema8keywords6custom7Keyword8is_valid
FN:80,_RNvXs0_NtNtNtCs6DmBUIV3MEM_18dsc_lib_jsonschema6vscode8keywords17suggest_sort_textNtB5_22SuggestSortTextKeywordNtNtNtCs1pVHw2aflQo_10jsonschema8keywords6custom7Keyword8validate
FN:63,_RNvXs_NtNtNtCs6DmBUIV3MEM_18dsc_lib_jsonschema6vscode8keywords17suggest_sort_textNtB4_22SuggestSortTextKeywordNtCsdG7205R6am3_8schemars10JsonSchema11json_schema
FN:74,_RNvXs_NtNtNtCs92r3DgzGcjh_18dsc_lib_jsonschema6vscode8keywords17suggest_sort_textNtB4_22SuggestSortTextKeywordNtCsdG7205R6am3_8schemars10JsonSchema11schema_name
FN:44,_RNvXNtNtNtCs92r3DgzGcjh_18dsc_lib_jsonschema6vscode8keywords17suggest_sort_textNtB2_22SuggestSortTextKeywordNtNtB4_25vscode_keyword_definition23VSCodeKeywordDefinition15keyword_factory
FN:87,_RNvXs0_NtNtNtCs92r3DgzGcjh_18dsc_lib_jsonschema6vscode8keywords17suggest_sort_textNtB5_22SuggestSortTextKeywordNtNtNtCskyI9PLifvdp_10jsonschema8keywords6custom7Keyword8is_valid
FN:80,_RNvXs0_NtNtNtCs92r3DgzGcjh_18dsc_lib_jsonschema6vscode8keywords17suggest_sort_textNtB5_22SuggestSortTextKeywordNtNtNtCskyI9PLifvdp_10jsonschema8keywords6custom7Keyword8validate
FN:63,_RNvXs_NtNtNtCs92r3DgzGcjh_18dsc_lib_jsonschema6vscode8keywords17suggest_sort_textNtB4_22SuggestSortTextKeywordNtCsdG7205R6am3_8schemars10JsonSchema11json_schema
FNDA:0,_RNvXNtNtNtCse9HBjRuE3ke_18dsc_lib_jsonschema6vscode8keywords17suggest_sort_textNtB2_22SuggestSortTextKeywordNtNtB4_25vscode_keyword_definition23VSCodeKeywordDefinition15keyword_factory
FNDA:0,_RNvXs0_NtNtNtCse9HBjRuE3ke_18dsc_lib_jsonschema6vscode8keywords17suggest_sort_textNtB5_22SuggestSortTextKeywordNtNtNtCs1pVHw2aflQo_10jsonschema8keywords6custom7Keyword8is_valid
FNDA:0,_RNvXs0_NtNtNtCse9HBjRuE3ke_18dsc_lib_jsonschema6vscode8keywords17suggest_sort_textNtB5_22SuggestSortTextKeywordNtNtNtCs1pVHw2aflQo_10jsonschema8keywords6custom7Keyword8validate
FNDA:0,_RNvXs_NtNtNtCse9HBjRuE3ke_18dsc_lib_jsonschema6vscode8keywords17suggest_sort_textNtB4_22SuggestSortTextKeywordNtCsdG7205R6am3_8schemars10JsonSchema11json_schema
FNDA:0,_RNvXs_NtNtNtCse9HBjRuE3ke_18dsc_lib_jsonschema6vscode8keywords17suggest_sort_textNtB4_22SuggestSortTextKeywordNtCsdG7205R6am3_8schemars10JsonSchema11schema_name
FNDA:0,_RNvXNtNtNtCs1p6hG0j9t4b_18dsc_lib_jsonschema6vscode8keywords17suggest_sort_textNtB2_22SuggestSortTextKeywordNtNtB4_25vscode_keyword_definition23VSCodeKeywordDefinition15keyword_factory
FNDA:0,_RNvXs0_NtNtNtCs1p6hG0j9t4b_18dsc_lib_jsonschema6vscode8keywords17suggest_sort_textNtB5_22SuggestSortTextKeywordNtNtNtCskyI9PLifvdp_10jsonschema8keywords6custom7Keyword8is_valid
FNDA:0,_RNvXs0_NtNtNtCs1p6hG0j9t4b_18dsc_lib_jsonschema6vscode8keywords17suggest_sort_textNtB5_22SuggestSortTextKeywordNtNtNtCskyI9PLifvdp_10jsonschema8keywords6custom7Keyword8validate
FNDA:0,_RNvXs_NtNtNtCs1p6hG0j9t4b_18dsc_lib_jsonschema6vscode8keywords17suggest_sort_textNtB4_22SuggestSortTextKeywordNtCsdG7205R6am3_8schemars10JsonSchema11json_schema
FNDA:0,_RNvXs_NtNtNtCs1p6hG0j9t4b_18dsc_lib_jsonschema6vscode8keywords17suggest_sort_textNtB4_22SuggestSortTextKeywordNtCsdG7205R6am3_8schemars10JsonSchema11schema_name
FNDA:0,_RNvXNtNtNtCs8FPg1R8LBRe_18dsc_lib_jsonschema6vscode8keywords17suggest_sort_textNtB2_22SuggestSortTextKeywordNtNtB4_25vscode_keyword_definition23VSCodeKeywordDefinition15keyword_factory
FNDA:0,_RNvXs0_NtNtNtCs8FPg1R8LBRe_18dsc_lib_jsonschema6vscode8keywords17suggest_sort_textNtB5_22SuggestSortTextKeywordNtNtNtCskyI9PLifvdp_10jsonschema8keywords6custom7Keyword8is_valid
FNDA:0,_RNvXs0_NtNtNtCs8FPg1R8LBRe_18dsc_lib_jsonschema6vscode8keywords17suggest_sort_textNtB5_22SuggestSortTextKeywordNtNtNtCskyI9PLifvdp_10jsonschema8keywords6custom7Keyword8validate
FNDA:0,_RNvXs_NtNtNtCs8FPg1R8LBRe_18dsc_lib_jsonschema6vscode8keywords17suggest_sort_textNtB4_22SuggestSortTextKeywordNtCsdG7205R6am3_8schemars10JsonSchema11json_schema
FNDA:0,_RNvXs_NtNtNtCs8FPg1R8LBRe_18dsc_lib_jsonschema6vscode8keywords17suggest_sort_textNtB4_22SuggestSortTextKeywordNtCsdG7205R6am3_8schemars10JsonSchema11schema_name
FNDA:0,_RNvXs_NtNtNtCs6DmBUIV3MEM_18dsc_lib_jsonschema6vscode8keywords17suggest_sort_textNtB4_22SuggestSortTextKeywordNtCsdG7205R6am3_8schemars10JsonSchema11schema_name
FNDA:2,_RNvXNtNtNtCs6DmBUIV3MEM_18dsc_lib_jsonschema6vscode8keywords17suggest_sort_textNtB2_22SuggestSortTextKeywordNtNtB4_25vscode_keyword_definition23VSCodeKeywordDefinition15keyword_factory
FNDA:0,_RNvXs0_NtNtNtCs6DmBUIV3MEM_18dsc_lib_jsonschema6vscode8keywords17suggest_sort_textNtB5_22SuggestSortTextKeywordNtNtNtCs1pVHw2aflQo_10jsonschema8keywords6custom7Keyword8is_valid
FNDA:0,_RNvXs0_NtNtNtCs6DmBUIV3MEM_18dsc_lib_jsonschema6vscode8keywords17suggest_sort_textNtB5_22SuggestSortTextKeywordNtNtNtCs1pVHw2aflQo_10jsonschema8keywords6custom7Keyword8validate
FNDA:76,_RNvXs_NtNtNtCs6DmBUIV3MEM_18dsc_lib_jsonschema6vscode8keywords17suggest_sort_textNtB4_22SuggestSortTextKeywordNtCsdG7205R6am3_8schemars10JsonSchema11json_schema
FNDA:0,_RNvXs_NtNtNtCs92r3DgzGcjh_18dsc_lib_jsonschema6vscode8keywords17suggest_sort_textNtB4_22SuggestSortTextKeywordNtCsdG7205R6am3_8schemars10JsonSchema11schema_name
FNDA:2,_RNvXNtNtNtCs92r3DgzGcjh_18dsc_lib_jsonschema6vscode8keywords17suggest_sort_textNtB2_22SuggestSortTextKeywordNtNtB4_25vscode_keyword_definition23VSCodeKeywordDefinition15keyword_factory
FNDA:0,_RNvXs0_NtNtNtCs92r3DgzGcjh_18dsc_lib_jsonschema6vscode8keywords17suggest_sort_textNtB5_22SuggestSortTextKeywordNtNtNtCskyI9PLifvdp_10jsonschema8keywords6custom7Keyword8is_valid
FNDA:0,_RNvXs0_NtNtNtCs92r3DgzGcjh_18dsc_lib_jsonschema6vscode8keywords17suggest_sort_textNtB5_22SuggestSortTextKeywordNtNtNtCskyI9PLifvdp_10jsonschema8keywords6custom7Keyword8validate
FNDA:76,_RNvXs_NtNtNtCs92r3DgzGcjh_18dsc_lib_jsonschema6vscode8keywords17suggest_sort_textNtB4_22SuggestSortTextKeywordNtCsdG7205R6am3_8schemars10JsonSchema11json_schema
FNF:5
FNH:2
DA:44,4
DA:45,4
DA:46,4
DA:47,4
DA:48,4
DA:49,4
DA:50,2
DA:52,2
DA:53,2
DA:54,2
DA:55,2
DA:56,2
DA:59,4
DA:63,152
DA:64,152
DA:65,152
DA:66,152
DA:67,152
DA:68,152
DA:69,152
DA:70,152
DA:72,152
DA:74,0
DA:75,0
DA:76,0
DA:80,0
DA:81,0
DA:82,0
DA:83,0
DA:84,0
DA:85,0
DA:86,0
DA:87,0
DA:88,0
DA:89,0
BRF:0
BRH:0
LF:35
LH:22
end_of_record
SF:/Users/steve/repos/DSC/lib/dsc-lib-jsonschema/src/vscode/keywords/vscode_keyword.rs
FN:240,_RNvXs_NtNtNtCse9HBjRuE3ke_18dsc_lib_jsonschema6vscode8keywords14vscode_keywordNtNtCsdBofyk9Yr2t_5alloc6string6StringINtNtCsitGFVNq7Ifu_4core7convert4FromNtB4_13VSCodeKeywordE4from
FN:106,_RNvMNtNtNtCse9HBjRuE3ke_18dsc_lib_jsonschema6vscode8keywords14vscode_keywordNtB2_13VSCodeKeyword4name
FN:133,_RNvMNtNtNtCse9HBjRuE3ke_18dsc_lib_jsonschema6vscode8keywords14vscode_keywordNtB2_13VSCodeKeyword8register
FN:106,_RNvMNtNtNtCs1p6hG0j9t4b_18dsc_lib_jsonschema6vscode8keywords14vscode_keywordNtB2_13VSCodeKeyword4name
FN:133,_RNvMNtNtNtCs1p6hG0j9t4b_18dsc_lib_jsonschema6vscode8keywords14vscode_keywordNtB2_13VSCodeKeyword8register
FN:240,_RNvXs_NtNtNtCs1p6hG0j9t4b_18dsc_lib_jsonschema6vscode8keywords14vscode_keywordNtNtCsdBofyk9Yr2t_5alloc6string6StringINtNtCsitGFVNq7Ifu_4core7convert4FromNtB4_13VSCodeKeywordE4from
FN:106,_RNvMNtNtNtCs8FPg1R8LBRe_18dsc_lib_jsonschema6vscode8keywords14vscode_keywordNtB2_13VSCodeKeyword4name
FN:133,_RNvMNtNtNtCs8FPg1R8LBRe_18dsc_lib_jsonschema6vscode8keywords14vscode_keywordNtB2_13VSCodeKeyword8register
FN:240,_RNvXs_NtNtNtCs8FPg1R8LBRe_18dsc_lib_jsonschema6vscode8keywords14vscode_keywordNtNtCsdBofyk9Yr2t_5alloc6string6StringINtNtCsitGFVNq7Ifu_4core7convert4FromNtB4_13VSCodeKeywordE4from
FN:106,_RNvMNtNtNtCs6DmBUIV3MEM_18dsc_lib_jsonschema6vscode8keywords14vscode_keywordNtB2_13VSCodeKeyword4name
FN:240,_RNvXs_NtNtNtCs6DmBUIV3MEM_18dsc_lib_jsonschema6vscode8keywords14vscode_keywordNtNtCsdBofyk9Yr2t_5alloc6string6StringINtNtCsitGFVNq7Ifu_4core7convert4FromNtB4_13VSCodeKeywordE4from
FN:133,_RNvMNtNtNtCs6DmBUIV3MEM_18dsc_lib_jsonschema6vscode8keywords14vscode_keywordNtB2_13VSCodeKeyword8register
FN:133,_RNvMNtNtNtCs92r3DgzGcjh_18dsc_lib_jsonschema6vscode8keywords14vscode_keywordNtB2_13VSCodeKeyword8register
FN:106,_RNvMNtNtNtCs92r3DgzGcjh_18dsc_lib_jsonschema6vscode8keywords14vscode_keywordNtB2_13VSCodeKeyword4name
FN:240,_RNvXs_NtNtNtCs92r3DgzGcjh_18dsc_lib_jsonschema6vscode8keywords14vscode_keywordNtNtCsdBofyk9Yr2t_5alloc6string6StringINtNtCsitGFVNq7Ifu_4core7convert4FromNtB4_13VSCodeKeywordE4from
FNDA:0,_RNvXs_NtNtNtCse9HBjRuE3ke_18dsc_lib_jsonschema6vscode8keywords14vscode_keywordNtNtCsdBofyk9Yr2t_5alloc6string6StringINtNtCsitGFVNq7Ifu_4core7convert4FromNtB4_13VSCodeKeywordE4from
FNDA:0,_RNvMNtNtNtCse9HBjRuE3ke_18dsc_lib_jsonschema6vscode8keywords14vscode_keywordNtB2_13VSCodeKeyword4name
FNDA:0,_RNvMNtNtNtCse9HBjRuE3ke_18dsc_lib_jsonschema6vscode8keywords14vscode_keywordNtB2_13VSCodeKeyword8register
FNDA:0,_RNvMNtNtNtCs1p6hG0j9t4b_18dsc_lib_jsonschema6vscode8keywords14vscode_keywordNtB2_13VSCodeKeyword4name
FNDA:0,_RNvMNtNtNtCs1p6hG0j9t4b_18dsc_lib_jsonschema6vscode8keywords14vscode_keywordNtB2_13VSCodeKeyword8register
FNDA:0,_RNvXs_NtNtNtCs1p6hG0j9t4b_18dsc_lib_jsonschema6vscode8keywords14vscode_keywordNtNtCsdBofyk9Yr2t_5alloc6string6StringINtNtCsitGFVNq7Ifu_4core7convert4FromNtB4_13VSCodeKeywordE4from
FNDA:0,_RNvMNtNtNtCs8FPg1R8LBRe_18dsc_lib_jsonschema6vscode8keywords14vscode_keywordNtB2_13VSCodeKeyword4name
FNDA:0,_RNvMNtNtNtCs8FPg1R8LBRe_18dsc_lib_jsonschema6vscode8keywords14vscode_keywordNtB2_13VSCodeKeyword8register
FNDA:0,_RNvXs_NtNtNtCs8FPg1R8LBRe_18dsc_lib_jsonschema6vscode8keywords14vscode_keywordNtNtCsdBofyk9Yr2t_5alloc6string6StringINtNtCsitGFVNq7Ifu_4core7convert4FromNtB4_13VSCodeKeywordE4from
FNDA:0,_RNvMNtNtNtCs6DmBUIV3MEM_18dsc_lib_jsonschema6vscode8keywords14vscode_keywordNtB2_13VSCodeKeyword4name
FNDA:0,_RNvXs_NtNtNtCs6DmBUIV3MEM_18dsc_lib_jsonschema6vscode8keywords14vscode_keywordNtNtCsdBofyk9Yr2t_5alloc6string6StringINtNtCsitGFVNq7Ifu_4core7convert4FromNtB4_13VSCodeKeywordE4from
FNDA:649,_RNvMNtNtNtCs6DmBUIV3MEM_18dsc_lib_jsonschema6vscode8keywords14vscode_keywordNtB2_13VSCodeKeyword8register
FNDA:649,_RNvMNtNtNtCs92r3DgzGcjh_18dsc_lib_jsonschema6vscode8keywords14vscode_keywordNtB2_13VSCodeKeyword8register
FNDA:0,_RNvMNtNtNtCs92r3DgzGcjh_18dsc_lib_jsonschema6vscode8keywords14vscode_keywordNtB2_13VSCodeKeyword4name
FNDA:0,_RNvXs_NtNtNtCs92r3DgzGcjh_18dsc_lib_jsonschema6vscode8keywords14vscode_keywordNtNtCsdBofyk9Yr2t_5alloc6string6StringINtNtCsitGFVNq7Ifu_4core7convert4FromNtB4_13VSCodeKeywordE4from
FNF:3
FNH:1
DA:106,0
DA:107,0
DA:108,0
DA:109,0
DA:110,0
DA:111,0
DA:112,0
DA:113,0
DA:114,0
DA:115,0
DA:116,0
DA:117,0
DA:118,0
DA:119,0
DA:120,0
DA:121,0
DA:123,0
DA:133,1298
DA:134,1298
DA:135,90
DA:138,90
DA:140,90
DA:143,88
DA:146,88
DA:148,88
DA:151,96
DA:154,96
DA:156,96
DA:158,96
DA:161,96
DA:163,96
DA:165,92
DA:168,92
DA:170,92
DA:172,96
DA:175,96
DA:177,96
DA:179,92
DA:182,92
DA:184,92
DA:186,96
DA:189,96
DA:191,96
DA:193,96
DA:196,96
DA:198,96
DA:200,88
DA:203,88
DA:205,88
DA:207,92
DA:210,92
DA:212,92
DA:214,92
DA:217,92
DA:219,92
DA:221,88
DA:224,88
DA:226,88
DA:228,96
DA:231,96
DA:233,96
DA:236,1298
DA:240,0
DA:241,0
DA:242,0
BRF:0
BRH:0
LF:65
LH:45
end_of_record
SF:/Users/steve/repos/DSC/lib/dsc-lib-jsonschema/src/vscode/keywords/vscode_keyword_definition.rs
FN:53,_RNvYNtNtNtNtCse9HBjRuE3ke_18dsc_lib_jsonschema6vscode8keywords17enum_descriptions23EnumDescriptionsKeywordNtNtB6_25vscode_keyword_definition23VSCodeKeywordDefinition14default_schemaBa_
FN:67,_RNvYNtNtNtNtCse9HBjRuE3ke_18dsc_lib_jsonschema6vscode8keywords17enum_descriptions23EnumDescriptionsKeywordNtNtB6_25vscode_keyword_definition23VSCodeKeywordDefinition16schema_referenceBa_
FN:83,_RNvYNtNtNtNtCse9HBjRuE3ke_18dsc_lib_jsonschema6vscode8keywords17enum_descriptions23EnumDescriptionsKeywordNtNtB6_25vscode_keyword_definition23VSCodeKeywordDefinition23default_schema_resourceBa_
FN:53,_RNvYNtNtNtNtCse9HBjRuE3ke_18dsc_lib_jsonschema6vscode8keywords12enum_details18EnumDetailsKeywordNtNtB6_25vscode_keyword_definition23VSCodeKeywordDefinition14default_schemaBa_
FN:67,_RNvYNtNtNtNtCse9HBjRuE3ke_18dsc_lib_jsonschema6vscode8keywords12enum_details18EnumDetailsKeywordNtNtB6_25vscode_keyword_definition23VSCodeKeywordDefinition16schema_referenceBa_
FN:83,_RNvYNtNtNtNtCse9HBjRuE3ke_18dsc_lib_jsonschema6vscode8keywords12enum_details18EnumDetailsKeywordNtNtB6_25vscode_keyword_definition23VSCodeKeywordDefinition23default_schema_resourceBa_
FN:53,_RNvYNtNtNtNtCse9HBjRuE3ke_18dsc_lib_jsonschema6vscode8keywords13error_message19ErrorMessageKeywordNtNtB6_25vscode_keyword_definition23VSCodeKeywordDefinition14default_schemaBa_
FN:67,_RNvYNtNtNtNtCse9HBjRuE3ke_18dsc_lib_jsonschema6vscode8keywords13error_message19ErrorMessageKeywordNtNtB6_25vscode_keyword_definition23VSCodeKeywordDefinition16schema_referenceBa_
FN:83,_RNvYNtNtNtNtCse9HBjRuE3ke_18dsc_lib_jsonschema6vscode8keywords13error_message19ErrorMessageKeywordNtNtB6_25vscode_keyword_definition23VSCodeKeywordDefinition23default_schema_resourceBa_
FN:53,_RNvYNtNtNtNtCse9HBjRuE3ke_18dsc_lib_jsonschema6vscode8keywords19deprecation_message25DeprecationMessageKeywordNtNtB6_25vscode_keyword_definition23VSCodeKeywordDefinition14default_schemaBa_
FN:67,_RNvYNtNtNtNtCse9HBjRuE3ke_18dsc_lib_jsonschema6vscode8keywords19deprecation_message25DeprecationMessageKeywordNtNtB6_25vscode_keyword_definition23VSCodeKeywordDefinition16schema_referenceBa_
FN:83,_RNvYNtNtNtNtCse9HBjRuE3ke_18dsc_lib_jsonschema6vscode8keywords19deprecation_message25DeprecationMessageKeywordNtNtB6_25vscode_keyword_definition23VSCodeKeywordDefinition23default_schema_resourceBa_
FN:53,_RNvYNtNtNtNtCse9HBjRuE3ke_18dsc_lib_jsonschema6vscode8keywords15enum_sort_texts20EnumSortTextsKeywordNtNtB6_25vscode_keyword_definition23VSCodeKeywordDefinition14default_schemaBa_
FN:67,_RNvYNtNtNtNtCse9HBjRuE3ke_18dsc_lib_jsonschema6vscode8keywords15enum_sort_texts20EnumSortTextsKeywordNtNtB6_25vscode_keyword_definition23VSCodeKeywordDefinition16schema_referenceBa_
FN:83,_RNvYNtNtNtNtCse9HBjRuE3ke_18dsc_lib_jsonschema6vscode8keywords15enum_sort_texts20EnumSortTextsKeywordNtNtB6_25vscode_keyword_definition23VSCodeKeywordDefinition23default_schema_resourceBa_
FN:53,_RNvYNtNtNtNtCse9HBjRuE3ke_18dsc_lib_jsonschema6vscode8keywords26markdown_enum_descriptions31MarkdownEnumDescriptionsKeywordNtNtB6_25vscode_keyword_definition23VSCodeKeywordDefinition14default_schemaBa_
FN:67,_RNvYNtNtNtNtCse9HBjRuE3ke_18dsc_lib_jsonschema6vscode8keywords26markdown_enum_descriptions31MarkdownEnumDescriptionsKeywordNtNtB6_25vscode_keyword_definition23VSCodeKeywordDefinition16schema_referenceBa_
FN:83,_RNvYNtNtNtNtCse9HBjRuE3ke_18dsc_lib_jsonschema6vscode8keywords26markdown_enum_descriptions31MarkdownEnumDescriptionsKeywordNtNtB6_25vscode_keyword_definition23VSCodeKeywordDefinition23default_schema_resourceBa_
FN:53,_RNvYNtNtNtNtCse9HBjRuE3ke_18dsc_lib_jsonschema6vscode8keywords20markdown_description26MarkdownDescriptionKeywordNtNtB6_25vscode_keyword_definition23VSCodeKeywordDefinition14default_schemaBa_
FN:67,_RNvYNtNtNtNtCse9HBjRuE3ke_18dsc_lib_jsonschema6vscode8keywords20markdown_description26MarkdownDescriptionKeywordNtNtB6_25vscode_keyword_definition23VSCodeKeywordDefinition16schema_referenceBa_
FN:83,_RNvYNtNtNtNtCse9HBjRuE3ke_18dsc_lib_jsonschema6vscode8keywords20markdown_description26MarkdownDescriptionKeywordNtNtB6_25vscode_keyword_definition23VSCodeKeywordDefinition23default_schema_resourceBa_
FN:53,_RNvYNtNtNtNtCse9HBjRuE3ke_18dsc_lib_jsonschema6vscode8keywords17completion_detail23CompletionDetailKeywordNtNtB6_25vscode_keyword_definition23VSCodeKeywordDefinition14default_schemaBa_
FN:67,_RNvYNtNtNtNtCse9HBjRuE3ke_18dsc_lib_jsonschema6vscode8keywords17completion_detail23CompletionDetailKeywordNtNtB6_25vscode_keyword_definition23VSCodeKeywordDefinition16schema_referenceBa_
FN:83,_RNvYNtNtNtNtCse9HBjRuE3ke_18dsc_lib_jsonschema6vscode8keywords17completion_detail23CompletionDetailKeywordNtNtB6_25vscode_keyword_definition23VSCodeKeywordDefinition23default_schema_resourceBa_
FN:53,_RNvYNtNtNtNtCse9HBjRuE3ke_18dsc_lib_jsonschema6vscode8keywords14do_not_suggest19DoNotSuggestKeywordNtNtB6_25vscode_keyword_definition23VSCodeKeywordDefinition14default_schemaBa_
FN:67,_RNvYNtNtNtNtCse9HBjRuE3ke_18dsc_lib_jsonschema6vscode8keywords14do_not_suggest19DoNotSuggestKeywordNtNtB6_25vscode_keyword_definition23VSCodeKeywordDefinition16schema_referenceBa_
FN:83,_RNvYNtNtNtNtCse9HBjRuE3ke_18dsc_lib_jsonschema6vscode8keywords14do_not_suggest19DoNotSuggestKeywordNtNtB6_25vscode_keyword_definition23VSCodeKeywordDefinition23default_schema_resourceBa_
FN:53,_RNvYNtNtNtNtCse9HBjRuE3ke_18dsc_lib_jsonschema6vscode8keywords14allow_comments20AllowCommentsKeywordNtNtB6_25vscode_keyword_definition23VSCodeKeywordDefinition14default_schemaBa_
FN:67,_RNvYNtNtNtNtCse9HBjRuE3ke_18dsc_lib_jsonschema6vscode8keywords14allow_comments20AllowCommentsKeywordNtNtB6_25vscode_keyword_definition23VSCodeKeywordDefinition16schema_referenceBa_
FN:83,_RNvYNtNtNtNtCse9HBjRuE3ke_18dsc_lib_jsonschema6vscode8keywords14allow_comments20AllowCommentsKeywordNtNtB6_25vscode_keyword_definition23VSCodeKeywordDefinition23default_schema_resourceBa_
FN:53,_RNvYNtNtNtNtCse9HBjRuE3ke_18dsc_lib_jsonschema6vscode8keywords21pattern_error_message26PatternErrorMessageKeywordNtNtB6_25vscode_keyword_definition23VSCodeKeywordDefinition14default_schemaBa_
FN:67,_RNvYNtNtNtNtCse9HBjRuE3ke_18dsc_lib_jsonschema6vscode8keywords21pattern_error_message26PatternErrorMessageKeywordNtNtB6_25vscode_keyword_definition23VSCodeKeywordDefinition16schema_referenceBa_
FN:83,_RNvYNtNtNtNtCse9HBjRuE3ke_18dsc_lib_jsonschema6vscode8keywords21pattern_error_message26PatternErrorMessageKeywordNtNtB6_25vscode_keyword_definition23VSCodeKeywordDefinition23default_schema_resourceBa_
FN:53,_RNvYNtNtNtNtCse9HBjRuE3ke_18dsc_lib_jsonschema6vscode8keywords16default_snippets22DefaultSnippetsKeywordNtNtB6_25vscode_keyword_definition23VSCodeKeywordDefinition14default_schemaBa_
FN:67,_RNvYNtNtNtNtCse9HBjRuE3ke_18dsc_lib_jsonschema6vscode8keywords16default_snippets22DefaultSnippetsKeywordNtNtB6_25vscode_keyword_definition23VSCodeKeywordDefinition16schema_referenceBa_
FN:83,_RNvYNtNtNtNtCse9HBjRuE3ke_18dsc_lib_jsonschema6vscode8keywords16default_snippets22DefaultSnippetsKeywordNtNtB6_25vscode_keyword_definition23VSCodeKeywordDefinition23default_schema_resourceBa_
FN:53,_RNvYNtNtNtNtCse9HBjRuE3ke_18dsc_lib_jsonschema6vscode8keywords21allow_trailing_commas26AllowTrailingCommasKeywordNtNtB6_25vscode_keyword_definition23VSCodeKeywordDefinition14default_schemaBa_
FN:67,_RNvYNtNtNtNtCse9HBjRuE3ke_18dsc_lib_jsonschema6vscode8keywords21allow_trailing_commas26AllowTrailingCommasKeywordNtNtB6_25vscode_keyword_definition23VSCodeKeywordDefinition16schema_referenceBa_
FN:83,_RNvYNtNtNtNtCse9HBjRuE3ke_18dsc_lib_jsonschema6vscode8keywords21allow_trailing_commas26AllowTrailingCommasKeywordNtNtB6_25vscode_keyword_definition23VSCodeKeywordDefinition23default_schema_resourceBa_
FN:53,_RNvYNtNtNtNtCse9HBjRuE3ke_18dsc_lib_jsonschema6vscode8keywords17suggest_sort_text22SuggestSortTextKeywordNtNtB6_25vscode_keyword_definition23VSCodeKeywordDefinition14default_schemaBa_
FN:67,_RNvYNtNtNtNtCse9HBjRuE3ke_18dsc_lib_jsonschema6vscode8keywords17suggest_sort_text22SuggestSortTextKeywordNtNtB6_25vscode_keyword_definition23VSCodeKeywordDefinition16schema_referenceBa_
FN:83,_RNvYNtNtNtNtCse9HBjRuE3ke_18dsc_lib_jsonschema6vscode8keywords17suggest_sort_text22SuggestSortTextKeywordNtNtB6_25vscode_keyword_definition23VSCodeKeywordDefinition23default_schema_resourceBa_
FN:53,_RNvYNtNtNtNtCs1p6hG0j9t4b_18dsc_lib_jsonschema6vscode8keywords17enum_descriptions23EnumDescriptionsKeywordNtNtB6_25vscode_keyword_definition23VSCodeKeywordDefinition14default_schemaBa_
FN:67,_RNvYNtNtNtNtCs1p6hG0j9t4b_18dsc_lib_jsonschema6vscode8keywords17enum_descriptions23EnumDescriptionsKeywordNtNtB6_25vscode_keyword_definition23VSCodeKeywordDefinition16schema_referenceBa_
FN:83,_RNvYNtNtNtNtCs1p6hG0j9t4b_18dsc_lib_jsonschema6vscode8keywords17enum_descriptions23EnumDescriptionsKeywordNtNtB6_25vscode_keyword_definition23VSCodeKeywordDefinition23default_schema_resourceBa_
FN:53,_RNvYNtNtNtNtCs1p6hG0j9t4b_18dsc_lib_jsonschema6vscode8keywords14do_not_suggest19DoNotSuggestKeywordNtNtB6_25vscode_keyword_definition23VSCodeKeywordDefinition14default_schemaBa_
FN:67,_RNvYNtNtNtNtCs1p6hG0j9t4b_18dsc_lib_jsonschema6vscode8keywords14do_not_suggest19DoNotSuggestKeywordNtNtB6_25vscode_keyword_definition23VSCodeKeywordDefinition16schema_referenceBa_
FN:83,_RNvYNtNtNtNtCs1p6hG0j9t4b_18dsc_lib_jsonschema6vscode8keywords14do_not_suggest19DoNotSuggestKeywordNtNtB6_25vscode_keyword_definition23VSCodeKeywordDefinition23default_schema_resourceBa_
FN:53,_RNvYNtNtNtNtCs1p6hG0j9t4b_18dsc_lib_jsonschema6vscode8keywords20markdown_description26MarkdownDescriptionKeywordNtNtB6_25vscode_keyword_definition23VSCodeKeywordDefinition14default_schemaBa_
FN:67,_RNvYNtNtNtNtCs1p6hG0j9t4b_18dsc_lib_jsonschema6vscode8keywords20markdown_description26MarkdownDescriptionKeywordNtNtB6_25vscode_keyword_definition23VSCodeKeywordDefinition16schema_referenceBa_
FN:83,_RNvYNtNtNtNtCs1p6hG0j9t4b_18dsc_lib_jsonschema6vscode8keywords20markdown_description26MarkdownDescriptionKeywordNtNtB6_25vscode_keyword_definition23VSCodeKeywordDefinition23default_schema_resourceBa_
FN:53,_RNvYNtNtNtNtCs1p6hG0j9t4b_18dsc_lib_jsonschema6vscode8keywords21allow_trailing_commas26AllowTrailingCommasKeywordNtNtB6_25vscode_keyword_definition23VSCodeKeywordDefinition14default_schemaBa_
FN:67,_RNvYNtNtNtNtCs1p6hG0j9t4b_18dsc_lib_jsonschema6vscode8keywords21allow_trailing_commas26AllowTrailingCommasKeywordNtNtB6_25vscode_keyword_definition23VSCodeKeywordDefinition16schema_referenceBa_
FN:83,_RNvYNtNtNtNtCs1p6hG0j9t4b_18dsc_lib_jsonschema6vscode8keywords21allow_trailing_commas26AllowTrailingCommasKeywordNtNtB6_25vscode_keyword_definition23VSCodeKeywordDefinition23default_schema_resourceBa_
FN:53,_RNvYNtNtNtNtCs1p6hG0j9t4b_18dsc_lib_jsonschema6vscode8keywords17completion_detail23CompletionDetailKeywordNtNtB6_25vscode_keyword_definition23VSCodeKeywordDefinition14default_schemaBa_
FN:67,_RNvYNtNtNtNtCs1p6hG0j9t4b_18dsc_lib_jsonschema6vscode8keywords17completion_detail23CompletionDetailKeywordNtNtB6_25vscode_keyword_definition23VSCodeKeywordDefinition16schema_referenceBa_
FN:83,_RNvYNtNtNtNtCs1p6hG0j9t4b_18dsc_lib_jsonschema6vscode8keywords17completion_detail23CompletionDetailKeywordNtNtB6_25vscode_keyword_definition23VSCodeKeywordDefinition23default_schema_resourceBa_
FN:53,_RNvYNtNtNtNtCs1p6hG0j9t4b_18dsc_lib_jsonschema6vscode8keywords19deprecation_message25DeprecationMessageKeywordNtNtB6_25vscode_keyword_definition23VSCodeKeywordDefinition14default_schemaBa_
FN:67,_RNvYNtNtNtNtCs1p6hG0j9t4b_18dsc_lib_jsonschema6vscode8keywords19deprecation_message25DeprecationMessageKeywordNtNtB6_25vscode_keyword_definition23VSCodeKeywordDefinition16schema_referenceBa_
FN:83,_RNvYNtNtNtNtCs1p6hG0j9t4b_18dsc_lib_jsonschema6vscode8keywords19deprecation_message25DeprecationMessageKeywordNtNtB6_25vscode_keyword_definition23VSCodeKeywordDefinition23default_schema_resourceBa_
FN:53,_RNvYNtNtNtNtCs1p6hG0j9t4b_18dsc_lib_jsonschema6vscode8keywords21pattern_error_message26PatternErrorMessageKeywordNtNtB6_25vscode_keyword_definition23VSCodeKeywordDefinition14default_schemaBa_
FN:67,_RNvYNtNtNtNtCs1p6hG0j9t4b_18dsc_lib_jsonschema6vscode8keywords21pattern_error_message26PatternErrorMessageKeywordNtNtB6_25vscode_keyword_definition23VSCodeKeywordDefinition16schema_referenceBa_
FN:83,_RNvYNtNtNtNtCs1p6hG0j9t4b_18dsc_lib_jsonschema6vscode8keywords21pattern_error_message26PatternErrorMessageKeywordNtNtB6_25vscode_keyword_definition23VSCodeKeywordDefinition23default_schema_resourceBa_
FN:53,_RNvYNtNtNtNtCs1p6hG0j9t4b_18dsc_lib_jsonschema6vscode8keywords12enum_details18EnumDetailsKeywordNtNtB6_25vscode_keyword_definition23VSCodeKeywordDefinition14default_schemaBa_
FN:67,_RNvYNtNtNtNtCs1p6hG0j9t4b_18dsc_lib_jsonschema6vscode8keywords12enum_details18EnumDetailsKeywordNtNtB6_25vscode_keyword_definition23VSCodeKeywordDefinition16schema_referenceBa_
FN:83,_RNvYNtNtNtNtCs1p6hG0j9t4b_18dsc_lib_jsonschema6vscode8keywords12enum_details18EnumDetailsKeywordNtNtB6_25vscode_keyword_definition23VSCodeKeywordDefinition23default_schema_resourceBa_
FN:53,_RNvYNtNtNtNtCs1p6hG0j9t4b_18dsc_lib_jsonschema6vscode8keywords17suggest_sort_text22SuggestSortTextKeywordNtNtB6_25vscode_keyword_definition23VSCodeKeywordDefinition14default_schemaBa_
FN:67,_RNvYNtNtNtNtCs1p6hG0j9t4b_18dsc_lib_jsonschema6vscode8keywords17suggest_sort_text22SuggestSortTextKeywordNtNtB6_25vscode_keyword_definition23VSCodeKeywordDefinition16schema_referenceBa_
FN:83,_RNvYNtNtNtNtCs1p6hG0j9t4b_18dsc_lib_jsonschema6vscode8keywords17suggest_sort_text22SuggestSortTextKeywordNtNtB6_25vscode_keyword_definition23VSCodeKeywordDefinition23default_schema_resourceBa_
FN:53,_RNvYNtNtNtNtCs1p6hG0j9t4b_18dsc_lib_jsonschema6vscode8keywords13error_message19ErrorMessageKeywordNtNtB6_25vscode_keyword_definition23VSCodeKeywordDefinition14default_schemaBa_
FN:67,_RNvYNtNtNtNtCs1p6hG0j9t4b_18dsc_lib_jsonschema6vscode8keywords13error_message19ErrorMessageKeywordNtNtB6_25vscode_keyword_definition23VSCodeKeywordDefinition16schema_referenceBa_
FN:83,_RNvYNtNtNtNtCs1p6hG0j9t4b_18dsc_lib_jsonschema6vscode8keywords13error_message19ErrorMessageKeywordNtNtB6_25vscode_keyword_definition23VSCodeKeywordDefinition23default_schema_resourceBa_
FN:53,_RNvYNtNtNtNtCs1p6hG0j9t4b_18dsc_lib_jsonschema6vscode8keywords26markdown_enum_descriptions31MarkdownEnumDescriptionsKeywordNtNtB6_25vscode_keyword_definition23VSCodeKeywordDefinition14default_schemaBa_
FN:67,_RNvYNtNtNtNtCs1p6hG0j9t4b_18dsc_lib_jsonschema6vscode8keywords26markdown_enum_descriptions31MarkdownEnumDescriptionsKeywordNtNtB6_25vscode_keyword_definition23VSCodeKeywordDefinition16schema_referenceBa_
FN:83,_RNvYNtNtNtNtCs1p6hG0j9t4b_18dsc_lib_jsonschema6vscode8keywords26markdown_enum_descriptions31MarkdownEnumDescriptionsKeywordNtNtB6_25vscode_keyword_definition23VSCodeKeywordDefinition23default_schema_resourceBa_
FN:53,_RNvYNtNtNtNtCs1p6hG0j9t4b_18dsc_lib_jsonschema6vscode8keywords16default_snippets22DefaultSnippetsKeywordNtNtB6_25vscode_keyword_definition23VSCodeKeywordDefinition14default_schemaBa_
FN:67,_RNvYNtNtNtNtCs1p6hG0j9t4b_18dsc_lib_jsonschema6vscode8keywords16default_snippets22DefaultSnippetsKeywordNtNtB6_25vscode_keyword_definition23VSCodeKeywordDefinition16schema_referenceBa_
FN:83,_RNvYNtNtNtNtCs1p6hG0j9t4b_18dsc_lib_jsonschema6vscode8keywords16default_snippets22DefaultSnippetsKeywordNtNtB6_25vscode_keyword_definition23VSCodeKeywordDefinition23default_schema_resourceBa_
FN:53,_RNvYNtNtNtNtCs1p6hG0j9t4b_18dsc_lib_jsonschema6vscode8keywords14allow_comments20AllowCommentsKeywordNtNtB6_25vscode_keyword_definition23VSCodeKeywordDefinition14default_schemaBa_
